

Microchip MPLAB XC8 Assembler V2.36 build 20220127204148 
                                                                                               Mon Jun 06 10:46:29 2022

Microchip MPLAB XC8 C Compiler v2.36 (Free license) build 20220127204148 Og1 
     1                           	processor	16F1827
     2                           	pagewidth 120
     3                           	opt	flic
     4                           	psect	eeprom_data,global,class=EEDATA,space=3,delta=2,noexec
     5                           	psect	stringtext1,global,class=STRCODE,delta=2,noexec
     6                           	psect	stringtext2,global,class=STRCODE,delta=2,noexec
     7                           	psect	stringtext3,global,class=STRCODE,delta=2,noexec
     8                           	psect	stringtext4,global,class=STRCODE,delta=2,noexec
     9                           	psect	stringtext5,global,class=STRCODE,delta=2,noexec
    10                           	psect	stringtext6,global,class=STRCODE,delta=2,noexec
    11                           	psect	nvBANK4,global,class=BANK4,space=1,delta=1,noexec
    12                           	psect	cinit,global,class=CODE,merge=1,delta=2
    13                           	psect	bssCOMMON,global,class=COMMON,space=1,delta=1,noexec
    14                           	psect	bssBANK0,global,class=BANK0,space=1,delta=1,noexec
    15                           	psect	bssBANK1,global,class=BANK1,space=1,delta=1,noexec
    16                           	psect	bssBANK2,global,class=BANK2,space=1,delta=1,noexec
    17                           	psect	bssBANK3,global,class=BANK3,space=1,delta=1,noexec
    18                           	psect	bssBANK4,global,class=BANK4,space=1,delta=1,noexec
    19                           	psect	clrtext,global,class=CODE,delta=2
    20                           	psect	cstackBANK4,global,class=BANK4,space=1,delta=1,noexec
    21                           	psect	cstackCOMMON,global,class=COMMON,space=1,delta=1,noexec
    22                           	psect	maintext,global,class=CODE,merge=1,split=1,delta=2
    23                           	psect	text1,local,class=CODE,merge=1,delta=2,group=1
    24                           	psect	text2,local,class=CODE,merge=1,delta=2,group=1
    25                           	psect	text3,local,class=CODE,merge=1,delta=2,group=1
    26                           	psect	text4,local,class=CODE,merge=1,delta=2
    27                           	psect	text5,local,class=CODE,merge=1,delta=2
    28                           	psect	text6,local,class=CODE,merge=1,delta=2
    29                           	psect	text7,local,class=CODE,merge=1,delta=2
    30                           	psect	text8,local,class=CODE,merge=1,delta=2
    31                           	psect	text9,local,class=CODE,merge=1,delta=2
    32                           	psect	text10,local,class=CODE,merge=1,delta=2
    33                           	psect	text11,local,class=CODE,merge=1,delta=2
    34                           	psect	text12,local,class=CODE,merge=1,delta=2
    35                           	psect	text13,local,class=CODE,merge=1,delta=2
    36                           	psect	text14,local,class=CODE,merge=1,delta=2
    37                           	psect	text15,local,class=CODE,merge=1,delta=2
    38                           	psect	text16,local,class=CODE,merge=1,delta=2
    39                           	psect	text17,local,class=CODE,merge=1,delta=2
    40                           	psect	text18,local,class=CODE,merge=1,delta=2
    41                           	psect	text19,local,class=CODE,merge=1,delta=2
    42                           	psect	text20,local,class=CODE,merge=1,delta=2
    43                           	psect	text21,local,class=CODE,merge=1,delta=2
    44                           	psect	text22,local,class=CODE,merge=1,delta=2
    45                           	psect	text23,local,class=CODE,merge=1,delta=2
    46                           	psect	text24,local,class=CODE,merge=1,delta=2
    47                           	psect	intentry,global,class=CODE,delta=2
    48                           	psect	text26,local,class=CODE,merge=1,delta=2
    49                           	psect	text27,local,class=CODE,merge=1,delta=2
    50                           	psect	text28,local,class=CODE,merge=1,delta=2
    51                           	psect	text29,local,class=CODE,merge=1,delta=2
    52                           	psect	text30,local,class=CODE,merge=1,delta=2
    53                           	psect	text31,local,class=CODE,merge=1,delta=2
    54                           	psect	idloc,global,abs,ovrld,class=IDLOC,space=5,delta=2,noexec
    55                           	psect	config,global,abs,ovrld,class=CONFIG,space=4,delta=2,noexec
    56                           	dabs	1,0x7E,2
    57  0000                     
    58                           ; Version 2.40
    59                           ; Generated 17/11/2021 GMT
    60                           ; 
    61                           ; Copyright © 2021, Microchip Technology Inc. and its subsidiaries ("Microchip")
    62                           ; All rights reserved.
    63                           ; 
    64                           ; This software is developed by Microchip Technology Inc. and its subsidiaries ("Microch
      +                          ip").
    65                           ; 
    66                           ; Redistribution and use in source and binary forms, with or without modification, are
    67                           ; permitted provided that the following conditions are met:
    68                           ; 
    69                           ;     1. Redistributions of source code must retain the above copyright notice, this lis
      +                          t of
    70                           ;        conditions and the following disclaimer.
    71                           ; 
    72                           ;     2. Redistributions in binary form must reproduce the above copyright notice, this 
      +                          list
    73                           ;        of conditions and the following disclaimer in the documentation and/or other
    74                           ;        materials provided with the distribution. Publication is not required when
    75                           ;        this file is used in an embedded application.
    76                           ; 
    77                           ;     3. Microchip's name may not be used to endorse or promote products derived from th
      +                          is
    78                           ;        software without specific prior written permission.
    79                           ; 
    80                           ; THIS SOFTWARE IS PROVIDED BY MICROCHIP "AS IS" AND ANY EXPRESS OR IMPLIED WARRANTIES,
    81                           ; INCLUDING, BUT NOT LIMITED TO, THE IMPLIED WARRANTIES OF MERCHANTABILITY AND FITNESS F
      +                          OR
    82                           ; PURPOSE ARE DISCLAIMED.  IN NO EVENT SHALL MICROCHIP BE LIABLE FOR ANY DIRECT, INDIREC
      +                          T,
    83                           ; INCIDENTAL, SPECIAL, EXEMPLARY, OR CONSEQUENTIAL DAMAGES (INCLUDING BUT NOT LIMITED TO
    84                           ; PROCUREMENT OF SUBSTITUTE GOODS OR SERVICES; LOSS OF USE, DATA OR PROFITS; OR BUSINESS
    85                           ; INTERRUPTION) HOWSOEVER CAUSED AND ON ANY THEORY OF LIABILITY, WHETHER IN CONTRACT, ST
      +                          RICT
    86                           ; LIABILITY, OR TORT (INCLUDING NEGLIGENCE OR OTHERWISE) ARISING IN ANY WAY OUT OF THE U
      +                          SE OF
    87                           ; THIS SOFTWARE, EVEN IF ADVISED OF THE POSSIBILITY OF SUCH DAMAGE.
    88                           ; 
    89                           ; 
    90                           ; Code-generator required, PIC16F1827 Definitions
    91                           ; 
    92                           ; SFR Addresses
    93  0000                     	;# 
    94  0001                     	;# 
    95  0002                     	;# 
    96  0003                     	;# 
    97  0004                     	;# 
    98  0005                     	;# 
    99  0006                     	;# 
   100  0007                     	;# 
   101  0008                     	;# 
   102  0009                     	;# 
   103  000A                     	;# 
   104  000B                     	;# 
   105  000C                     	;# 
   106  000D                     	;# 
   107  0011                     	;# 
   108  0012                     	;# 
   109  0013                     	;# 
   110  0014                     	;# 
   111  0015                     	;# 
   112  0016                     	;# 
   113  0016                     	;# 
   114  0017                     	;# 
   115  0018                     	;# 
   116  0019                     	;# 
   117  001A                     	;# 
   118  001B                     	;# 
   119  001C                     	;# 
   120  001E                     	;# 
   121  001F                     	;# 
   122  008C                     	;# 
   123  008D                     	;# 
   124  0091                     	;# 
   125  0092                     	;# 
   126  0093                     	;# 
   127  0094                     	;# 
   128  0095                     	;# 
   129  0096                     	;# 
   130  0097                     	;# 
   131  0098                     	;# 
   132  0099                     	;# 
   133  009A                     	;# 
   134  009B                     	;# 
   135  009B                     	;# 
   136  009C                     	;# 
   137  009D                     	;# 
   138  009E                     	;# 
   139  010C                     	;# 
   140  010D                     	;# 
   141  0111                     	;# 
   142  0112                     	;# 
   143  0113                     	;# 
   144  0114                     	;# 
   145  0115                     	;# 
   146  0116                     	;# 
   147  0117                     	;# 
   148  0118                     	;# 
   149  0119                     	;# 
   150  011A                     	;# 
   151  011B                     	;# 
   152  011D                     	;# 
   153  011E                     	;# 
   154  018C                     	;# 
   155  018D                     	;# 
   156  0191                     	;# 
   157  0191                     	;# 
   158  0192                     	;# 
   159  0193                     	;# 
   160  0193                     	;# 
   161  0193                     	;# 
   162  0194                     	;# 
   163  0195                     	;# 
   164  0196                     	;# 
   165  0199                     	;# 
   166  019A                     	;# 
   167  019B                     	;# 
   168  019B                     	;# 
   169  019B                     	;# 
   170  019B                     	;# 
   171  019C                     	;# 
   172  019C                     	;# 
   173  019D                     	;# 
   174  019E                     	;# 
   175  019F                     	;# 
   176  020C                     	;# 
   177  020D                     	;# 
   178  0211                     	;# 
   179  0211                     	;# 
   180  0212                     	;# 
   181  0212                     	;# 
   182  0213                     	;# 
   183  0213                     	;# 
   184  0214                     	;# 
   185  0214                     	;# 
   186  0215                     	;# 
   187  0215                     	;# 
   188  0215                     	;# 
   189  0216                     	;# 
   190  0216                     	;# 
   191  0217                     	;# 
   192  0217                     	;# 
   193  0219                     	;# 
   194  021A                     	;# 
   195  021B                     	;# 
   196  021C                     	;# 
   197  021D                     	;# 
   198  021E                     	;# 
   199  021F                     	;# 
   200  0291                     	;# 
   201  0291                     	;# 
   202  0292                     	;# 
   203  0293                     	;# 
   204  0294                     	;# 
   205  0295                     	;# 
   206  0295                     	;# 
   207  0296                     	;# 
   208  0298                     	;# 
   209  0298                     	;# 
   210  0299                     	;# 
   211  029A                     	;# 
   212  029B                     	;# 
   213  029C                     	;# 
   214  029C                     	;# 
   215  029D                     	;# 
   216  029E                     	;# 
   217  029E                     	;# 
   218  0311                     	;# 
   219  0311                     	;# 
   220  0312                     	;# 
   221  0313                     	;# 
   222  0318                     	;# 
   223  0318                     	;# 
   224  0319                     	;# 
   225  031A                     	;# 
   226  0394                     	;# 
   227  0395                     	;# 
   228  0396                     	;# 
   229  039A                     	;# 
   230  039C                     	;# 
   231  039D                     	;# 
   232  039E                     	;# 
   233  039F                     	;# 
   234  0415                     	;# 
   235  0416                     	;# 
   236  0417                     	;# 
   237  041C                     	;# 
   238  041D                     	;# 
   239  041E                     	;# 
   240  0FE4                     	;# 
   241  0FE5                     	;# 
   242  0FE6                     	;# 
   243  0FE7                     	;# 
   244  0FE8                     	;# 
   245  0FE9                     	;# 
   246  0FEA                     	;# 
   247  0FEB                     	;# 
   248  0FED                     	;# 
   249  0FEE                     	;# 
   250  0FEF                     	;# 
   251  0000                     	;# 
   252  0001                     	;# 
   253  0002                     	;# 
   254  0003                     	;# 
   255  0004                     	;# 
   256  0005                     	;# 
   257  0006                     	;# 
   258  0007                     	;# 
   259  0008                     	;# 
   260  0009                     	;# 
   261  000A                     	;# 
   262  000B                     	;# 
   263  000C                     	;# 
   264  000D                     	;# 
   265  0011                     	;# 
   266  0012                     	;# 
   267  0013                     	;# 
   268  0014                     	;# 
   269  0015                     	;# 
   270  0016                     	;# 
   271  0016                     	;# 
   272  0017                     	;# 
   273  0018                     	;# 
   274  0019                     	;# 
   275  001A                     	;# 
   276  001B                     	;# 
   277  001C                     	;# 
   278  001E                     	;# 
   279  001F                     	;# 
   280  008C                     	;# 
   281  008D                     	;# 
   282  0091                     	;# 
   283  0092                     	;# 
   284  0093                     	;# 
   285  0094                     	;# 
   286  0095                     	;# 
   287  0096                     	;# 
   288  0097                     	;# 
   289  0098                     	;# 
   290  0099                     	;# 
   291  009A                     	;# 
   292  009B                     	;# 
   293  009B                     	;# 
   294  009C                     	;# 
   295  009D                     	;# 
   296  009E                     	;# 
   297  010C                     	;# 
   298  010D                     	;# 
   299  0111                     	;# 
   300  0112                     	;# 
   301  0113                     	;# 
   302  0114                     	;# 
   303  0115                     	;# 
   304  0116                     	;# 
   305  0117                     	;# 
   306  0118                     	;# 
   307  0119                     	;# 
   308  011A                     	;# 
   309  011B                     	;# 
   310  011D                     	;# 
   311  011E                     	;# 
   312  018C                     	;# 
   313  018D                     	;# 
   314  0191                     	;# 
   315  0191                     	;# 
   316  0192                     	;# 
   317  0193                     	;# 
   318  0193                     	;# 
   319  0193                     	;# 
   320  0194                     	;# 
   321  0195                     	;# 
   322  0196                     	;# 
   323  0199                     	;# 
   324  019A                     	;# 
   325  019B                     	;# 
   326  019B                     	;# 
   327  019B                     	;# 
   328  019B                     	;# 
   329  019C                     	;# 
   330  019C                     	;# 
   331  019D                     	;# 
   332  019E                     	;# 
   333  019F                     	;# 
   334  020C                     	;# 
   335  020D                     	;# 
   336  0211                     	;# 
   337  0211                     	;# 
   338  0212                     	;# 
   339  0212                     	;# 
   340  0213                     	;# 
   341  0213                     	;# 
   342  0214                     	;# 
   343  0214                     	;# 
   344  0215                     	;# 
   345  0215                     	;# 
   346  0215                     	;# 
   347  0216                     	;# 
   348  0216                     	;# 
   349  0217                     	;# 
   350  0217                     	;# 
   351  0219                     	;# 
   352  021A                     	;# 
   353  021B                     	;# 
   354  021C                     	;# 
   355  021D                     	;# 
   356  021E                     	;# 
   357  021F                     	;# 
   358  0291                     	;# 
   359  0291                     	;# 
   360  0292                     	;# 
   361  0293                     	;# 
   362  0294                     	;# 
   363  0295                     	;# 
   364  0295                     	;# 
   365  0296                     	;# 
   366  0298                     	;# 
   367  0298                     	;# 
   368  0299                     	;# 
   369  029A                     	;# 
   370  029B                     	;# 
   371  029C                     	;# 
   372  029C                     	;# 
   373  029D                     	;# 
   374  029E                     	;# 
   375  029E                     	;# 
   376  0311                     	;# 
   377  0311                     	;# 
   378  0312                     	;# 
   379  0313                     	;# 
   380  0318                     	;# 
   381  0318                     	;# 
   382  0319                     	;# 
   383  031A                     	;# 
   384  0394                     	;# 
   385  0395                     	;# 
   386  0396                     	;# 
   387  039A                     	;# 
   388  039C                     	;# 
   389  039D                     	;# 
   390  039E                     	;# 
   391  039F                     	;# 
   392  0415                     	;# 
   393  0416                     	;# 
   394  0417                     	;# 
   395  041C                     	;# 
   396  041D                     	;# 
   397  041E                     	;# 
   398  0FE4                     	;# 
   399  0FE5                     	;# 
   400  0FE6                     	;# 
   401  0FE7                     	;# 
   402  0FE8                     	;# 
   403  0FE9                     	;# 
   404  0FEA                     	;# 
   405  0FEB                     	;# 
   406  0FED                     	;# 
   407  0FEE                     	;# 
   408  0FEF                     	;# 
   409  0000                     	;# 
   410  0001                     	;# 
   411  0002                     	;# 
   412  0003                     	;# 
   413  0004                     	;# 
   414  0005                     	;# 
   415  0006                     	;# 
   416  0007                     	;# 
   417  0008                     	;# 
   418  0009                     	;# 
   419  000A                     	;# 
   420  000B                     	;# 
   421  000C                     	;# 
   422  000D                     	;# 
   423  0011                     	;# 
   424  0012                     	;# 
   425  0013                     	;# 
   426  0014                     	;# 
   427  0015                     	;# 
   428  0016                     	;# 
   429  0016                     	;# 
   430  0017                     	;# 
   431  0018                     	;# 
   432  0019                     	;# 
   433  001A                     	;# 
   434  001B                     	;# 
   435  001C                     	;# 
   436  001E                     	;# 
   437  001F                     	;# 
   438  008C                     	;# 
   439  008D                     	;# 
   440  0091                     	;# 
   441  0092                     	;# 
   442  0093                     	;# 
   443  0094                     	;# 
   444  0095                     	;# 
   445  0096                     	;# 
   446  0097                     	;# 
   447  0098                     	;# 
   448  0099                     	;# 
   449  009A                     	;# 
   450  009B                     	;# 
   451  009B                     	;# 
   452  009C                     	;# 
   453  009D                     	;# 
   454  009E                     	;# 
   455  010C                     	;# 
   456  010D                     	;# 
   457  0111                     	;# 
   458  0112                     	;# 
   459  0113                     	;# 
   460  0114                     	;# 
   461  0115                     	;# 
   462  0116                     	;# 
   463  0117                     	;# 
   464  0118                     	;# 
   465  0119                     	;# 
   466  011A                     	;# 
   467  011B                     	;# 
   468  011D                     	;# 
   469  011E                     	;# 
   470  018C                     	;# 
   471  018D                     	;# 
   472  0191                     	;# 
   473  0191                     	;# 
   474  0192                     	;# 
   475  0193                     	;# 
   476  0193                     	;# 
   477  0193                     	;# 
   478  0194                     	;# 
   479  0195                     	;# 
   480  0196                     	;# 
   481  0199                     	;# 
   482  019A                     	;# 
   483  019B                     	;# 
   484  019B                     	;# 
   485  019B                     	;# 
   486  019B                     	;# 
   487  019C                     	;# 
   488  019C                     	;# 
   489  019D                     	;# 
   490  019E                     	;# 
   491  019F                     	;# 
   492  020C                     	;# 
   493  020D                     	;# 
   494  0211                     	;# 
   495  0211                     	;# 
   496  0212                     	;# 
   497  0212                     	;# 
   498  0213                     	;# 
   499  0213                     	;# 
   500  0214                     	;# 
   501  0214                     	;# 
   502  0215                     	;# 
   503  0215                     	;# 
   504  0215                     	;# 
   505  0216                     	;# 
   506  0216                     	;# 
   507  0217                     	;# 
   508  0217                     	;# 
   509  0219                     	;# 
   510  021A                     	;# 
   511  021B                     	;# 
   512  021C                     	;# 
   513  021D                     	;# 
   514  021E                     	;# 
   515  021F                     	;# 
   516  0291                     	;# 
   517  0291                     	;# 
   518  0292                     	;# 
   519  0293                     	;# 
   520  0294                     	;# 
   521  0295                     	;# 
   522  0295                     	;# 
   523  0296                     	;# 
   524  0298                     	;# 
   525  0298                     	;# 
   526  0299                     	;# 
   527  029A                     	;# 
   528  029B                     	;# 
   529  029C                     	;# 
   530  029C                     	;# 
   531  029D                     	;# 
   532  029E                     	;# 
   533  029E                     	;# 
   534  0311                     	;# 
   535  0311                     	;# 
   536  0312                     	;# 
   537  0313                     	;# 
   538  0318                     	;# 
   539  0318                     	;# 
   540  0319                     	;# 
   541  031A                     	;# 
   542  0394                     	;# 
   543  0395                     	;# 
   544  0396                     	;# 
   545  039A                     	;# 
   546  039C                     	;# 
   547  039D                     	;# 
   548  039E                     	;# 
   549  039F                     	;# 
   550  0415                     	;# 
   551  0416                     	;# 
   552  0417                     	;# 
   553  041C                     	;# 
   554  041D                     	;# 
   555  041E                     	;# 
   556  0FE4                     	;# 
   557  0FE5                     	;# 
   558  0FE6                     	;# 
   559  0FE7                     	;# 
   560  0FE8                     	;# 
   561  0FE9                     	;# 
   562  0FEA                     	;# 
   563  0FEB                     	;# 
   564  0FED                     	;# 
   565  0FEE                     	;# 
   566  0FEF                     	;# 
   567  0000                     	;# 
   568  0001                     	;# 
   569  0002                     	;# 
   570  0003                     	;# 
   571  0004                     	;# 
   572  0005                     	;# 
   573  0006                     	;# 
   574  0007                     	;# 
   575  0008                     	;# 
   576  0009                     	;# 
   577  000A                     	;# 
   578  000B                     	;# 
   579  000C                     	;# 
   580  000D                     	;# 
   581  0011                     	;# 
   582  0012                     	;# 
   583  0013                     	;# 
   584  0014                     	;# 
   585  0015                     	;# 
   586  0016                     	;# 
   587  0016                     	;# 
   588  0017                     	;# 
   589  0018                     	;# 
   590  0019                     	;# 
   591  001A                     	;# 
   592  001B                     	;# 
   593  001C                     	;# 
   594  001E                     	;# 
   595  001F                     	;# 
   596  008C                     	;# 
   597  008D                     	;# 
   598  0091                     	;# 
   599  0092                     	;# 
   600  0093                     	;# 
   601  0094                     	;# 
   602  0095                     	;# 
   603  0096                     	;# 
   604  0097                     	;# 
   605  0098                     	;# 
   606  0099                     	;# 
   607  009A                     	;# 
   608  009B                     	;# 
   609  009B                     	;# 
   610  009C                     	;# 
   611  009D                     	;# 
   612  009E                     	;# 
   613  010C                     	;# 
   614  010D                     	;# 
   615  0111                     	;# 
   616  0112                     	;# 
   617  0113                     	;# 
   618  0114                     	;# 
   619  0115                     	;# 
   620  0116                     	;# 
   621  0117                     	;# 
   622  0118                     	;# 
   623  0119                     	;# 
   624  011A                     	;# 
   625  011B                     	;# 
   626  011D                     	;# 
   627  011E                     	;# 
   628  018C                     	;# 
   629  018D                     	;# 
   630  0191                     	;# 
   631  0191                     	;# 
   632  0192                     	;# 
   633  0193                     	;# 
   634  0193                     	;# 
   635  0193                     	;# 
   636  0194                     	;# 
   637  0195                     	;# 
   638  0196                     	;# 
   639  0199                     	;# 
   640  019A                     	;# 
   641  019B                     	;# 
   642  019B                     	;# 
   643  019B                     	;# 
   644  019B                     	;# 
   645  019C                     	;# 
   646  019C                     	;# 
   647  019D                     	;# 
   648  019E                     	;# 
   649  019F                     	;# 
   650  020C                     	;# 
   651  020D                     	;# 
   652  0211                     	;# 
   653  0211                     	;# 
   654  0212                     	;# 
   655  0212                     	;# 
   656  0213                     	;# 
   657  0213                     	;# 
   658  0214                     	;# 
   659  0214                     	;# 
   660  0215                     	;# 
   661  0215                     	;# 
   662  0215                     	;# 
   663  0216                     	;# 
   664  0216                     	;# 
   665  0217                     	;# 
   666  0217                     	;# 
   667  0219                     	;# 
   668  021A                     	;# 
   669  021B                     	;# 
   670  021C                     	;# 
   671  021D                     	;# 
   672  021E                     	;# 
   673  021F                     	;# 
   674  0291                     	;# 
   675  0291                     	;# 
   676  0292                     	;# 
   677  0293                     	;# 
   678  0294                     	;# 
   679  0295                     	;# 
   680  0295                     	;# 
   681  0296                     	;# 
   682  0298                     	;# 
   683  0298                     	;# 
   684  0299                     	;# 
   685  029A                     	;# 
   686  029B                     	;# 
   687  029C                     	;# 
   688  029C                     	;# 
   689  029D                     	;# 
   690  029E                     	;# 
   691  029E                     	;# 
   692  0311                     	;# 
   693  0311                     	;# 
   694  0312                     	;# 
   695  0313                     	;# 
   696  0318                     	;# 
   697  0318                     	;# 
   698  0319                     	;# 
   699  031A                     	;# 
   700  0394                     	;# 
   701  0395                     	;# 
   702  0396                     	;# 
   703  039A                     	;# 
   704  039C                     	;# 
   705  039D                     	;# 
   706  039E                     	;# 
   707  039F                     	;# 
   708  0415                     	;# 
   709  0416                     	;# 
   710  0417                     	;# 
   711  041C                     	;# 
   712  041D                     	;# 
   713  041E                     	;# 
   714  0FE4                     	;# 
   715  0FE5                     	;# 
   716  0FE6                     	;# 
   717  0FE7                     	;# 
   718  0FE8                     	;# 
   719  0FE9                     	;# 
   720  0FEA                     	;# 
   721  0FEB                     	;# 
   722  0FED                     	;# 
   723  0FEE                     	;# 
   724  0FEF                     	;# 
   725  0000                     	;# 
   726  0001                     	;# 
   727  0002                     	;# 
   728  0003                     	;# 
   729  0004                     	;# 
   730  0005                     	;# 
   731  0006                     	;# 
   732  0007                     	;# 
   733  0008                     	;# 
   734  0009                     	;# 
   735  000A                     	;# 
   736  000B                     	;# 
   737  000C                     	;# 
   738  000D                     	;# 
   739  0011                     	;# 
   740  0012                     	;# 
   741  0013                     	;# 
   742  0014                     	;# 
   743  0015                     	;# 
   744  0016                     	;# 
   745  0016                     	;# 
   746  0017                     	;# 
   747  0018                     	;# 
   748  0019                     	;# 
   749  001A                     	;# 
   750  001B                     	;# 
   751  001C                     	;# 
   752  001E                     	;# 
   753  001F                     	;# 
   754  008C                     	;# 
   755  008D                     	;# 
   756  0091                     	;# 
   757  0092                     	;# 
   758  0093                     	;# 
   759  0094                     	;# 
   760  0095                     	;# 
   761  0096                     	;# 
   762  0097                     	;# 
   763  0098                     	;# 
   764  0099                     	;# 
   765  009A                     	;# 
   766  009B                     	;# 
   767  009B                     	;# 
   768  009C                     	;# 
   769  009D                     	;# 
   770  009E                     	;# 
   771  010C                     	;# 
   772  010D                     	;# 
   773  0111                     	;# 
   774  0112                     	;# 
   775  0113                     	;# 
   776  0114                     	;# 
   777  0115                     	;# 
   778  0116                     	;# 
   779  0117                     	;# 
   780  0118                     	;# 
   781  0119                     	;# 
   782  011A                     	;# 
   783  011B                     	;# 
   784  011D                     	;# 
   785  011E                     	;# 
   786  018C                     	;# 
   787  018D                     	;# 
   788  0191                     	;# 
   789  0191                     	;# 
   790  0192                     	;# 
   791  0193                     	;# 
   792  0193                     	;# 
   793  0193                     	;# 
   794  0194                     	;# 
   795  0195                     	;# 
   796  0196                     	;# 
   797  0199                     	;# 
   798  019A                     	;# 
   799  019B                     	;# 
   800  019B                     	;# 
   801  019B                     	;# 
   802  019B                     	;# 
   803  019C                     	;# 
   804  019C                     	;# 
   805  019D                     	;# 
   806  019E                     	;# 
   807  019F                     	;# 
   808  020C                     	;# 
   809  020D                     	;# 
   810  0211                     	;# 
   811  0211                     	;# 
   812  0212                     	;# 
   813  0212                     	;# 
   814  0213                     	;# 
   815  0213                     	;# 
   816  0214                     	;# 
   817  0214                     	;# 
   818  0215                     	;# 
   819  0215                     	;# 
   820  0215                     	;# 
   821  0216                     	;# 
   822  0216                     	;# 
   823  0217                     	;# 
   824  0217                     	;# 
   825  0219                     	;# 
   826  021A                     	;# 
   827  021B                     	;# 
   828  021C                     	;# 
   829  021D                     	;# 
   830  021E                     	;# 
   831  021F                     	;# 
   832  0291                     	;# 
   833  0291                     	;# 
   834  0292                     	;# 
   835  0293                     	;# 
   836  0294                     	;# 
   837  0295                     	;# 
   838  0295                     	;# 
   839  0296                     	;# 
   840  0298                     	;# 
   841  0298                     	;# 
   842  0299                     	;# 
   843  029A                     	;# 
   844  029B                     	;# 
   845  029C                     	;# 
   846  029C                     	;# 
   847  029D                     	;# 
   848  029E                     	;# 
   849  029E                     	;# 
   850  0311                     	;# 
   851  0311                     	;# 
   852  0312                     	;# 
   853  0313                     	;# 
   854  0318                     	;# 
   855  0318                     	;# 
   856  0319                     	;# 
   857  031A                     	;# 
   858  0394                     	;# 
   859  0395                     	;# 
   860  0396                     	;# 
   861  039A                     	;# 
   862  039C                     	;# 
   863  039D                     	;# 
   864  039E                     	;# 
   865  039F                     	;# 
   866  0415                     	;# 
   867  0416                     	;# 
   868  0417                     	;# 
   869  041C                     	;# 
   870  041D                     	;# 
   871  041E                     	;# 
   872  0FE4                     	;# 
   873  0FE5                     	;# 
   874  0FE6                     	;# 
   875  0FE7                     	;# 
   876  0FE8                     	;# 
   877  0FE9                     	;# 
   878  0FEA                     	;# 
   879  0FEB                     	;# 
   880  0FED                     	;# 
   881  0FEE                     	;# 
   882  0FEF                     	;# 
   883  0000                     	;# 
   884  0001                     	;# 
   885  0002                     	;# 
   886  0003                     	;# 
   887  0004                     	;# 
   888  0005                     	;# 
   889  0006                     	;# 
   890  0007                     	;# 
   891  0008                     	;# 
   892  0009                     	;# 
   893  000A                     	;# 
   894  000B                     	;# 
   895  000C                     	;# 
   896  000D                     	;# 
   897  0011                     	;# 
   898  0012                     	;# 
   899  0013                     	;# 
   900  0014                     	;# 
   901  0015                     	;# 
   902  0016                     	;# 
   903  0016                     	;# 
   904  0017                     	;# 
   905  0018                     	;# 
   906  0019                     	;# 
   907  001A                     	;# 
   908  001B                     	;# 
   909  001C                     	;# 
   910  001E                     	;# 
   911  001F                     	;# 
   912  008C                     	;# 
   913  008D                     	;# 
   914  0091                     	;# 
   915  0092                     	;# 
   916  0093                     	;# 
   917  0094                     	;# 
   918  0095                     	;# 
   919  0096                     	;# 
   920  0097                     	;# 
   921  0098                     	;# 
   922  0099                     	;# 
   923  009A                     	;# 
   924  009B                     	;# 
   925  009B                     	;# 
   926  009C                     	;# 
   927  009D                     	;# 
   928  009E                     	;# 
   929  010C                     	;# 
   930  010D                     	;# 
   931  0111                     	;# 
   932  0112                     	;# 
   933  0113                     	;# 
   934  0114                     	;# 
   935  0115                     	;# 
   936  0116                     	;# 
   937  0117                     	;# 
   938  0118                     	;# 
   939  0119                     	;# 
   940  011A                     	;# 
   941  011B                     	;# 
   942  011D                     	;# 
   943  011E                     	;# 
   944  018C                     	;# 
   945  018D                     	;# 
   946  0191                     	;# 
   947  0191                     	;# 
   948  0192                     	;# 
   949  0193                     	;# 
   950  0193                     	;# 
   951  0193                     	;# 
   952  0194                     	;# 
   953  0195                     	;# 
   954  0196                     	;# 
   955  0199                     	;# 
   956  019A                     	;# 
   957  019B                     	;# 
   958  019B                     	;# 
   959  019B                     	;# 
   960  019B                     	;# 
   961  019C                     	;# 
   962  019C                     	;# 
   963  019D                     	;# 
   964  019E                     	;# 
   965  019F                     	;# 
   966  020C                     	;# 
   967  020D                     	;# 
   968  0211                     	;# 
   969  0211                     	;# 
   970  0212                     	;# 
   971  0212                     	;# 
   972  0213                     	;# 
   973  0213                     	;# 
   974  0214                     	;# 
   975  0214                     	;# 
   976  0215                     	;# 
   977  0215                     	;# 
   978  0215                     	;# 
   979  0216                     	;# 
   980  0216                     	;# 
   981  0217                     	;# 
   982  0217                     	;# 
   983  0219                     	;# 
   984  021A                     	;# 
   985  021B                     	;# 
   986  021C                     	;# 
   987  021D                     	;# 
   988  021E                     	;# 
   989  021F                     	;# 
   990  0291                     	;# 
   991  0291                     	;# 
   992  0292                     	;# 
   993  0293                     	;# 
   994  0294                     	;# 
   995  0295                     	;# 
   996  0295                     	;# 
   997  0296                     	;# 
   998  0298                     	;# 
   999  0298                     	;# 
  1000  0299                     	;# 
  1001  029A                     	;# 
  1002  029B                     	;# 
  1003  029C                     	;# 
  1004  029C                     	;# 
  1005  029D                     	;# 
  1006  029E                     	;# 
  1007  029E                     	;# 
  1008  0311                     	;# 
  1009  0311                     	;# 
  1010  0312                     	;# 
  1011  0313                     	;# 
  1012  0318                     	;# 
  1013  0318                     	;# 
  1014  0319                     	;# 
  1015  031A                     	;# 
  1016  0394                     	;# 
  1017  0395                     	;# 
  1018  0396                     	;# 
  1019  039A                     	;# 
  1020  039C                     	;# 
  1021  039D                     	;# 
  1022  039E                     	;# 
  1023  039F                     	;# 
  1024  0415                     	;# 
  1025  0416                     	;# 
  1026  0417                     	;# 
  1027  041C                     	;# 
  1028  041D                     	;# 
  1029  041E                     	;# 
  1030  0FE4                     	;# 
  1031  0FE5                     	;# 
  1032  0FE6                     	;# 
  1033  0FE7                     	;# 
  1034  0FE8                     	;# 
  1035  0FE9                     	;# 
  1036  0FEA                     	;# 
  1037  0FEB                     	;# 
  1038  0FED                     	;# 
  1039  0FEE                     	;# 
  1040  0FEF                     	;# 
  1041                           
  1042                           	psect	eeprom_data
  1043  0000  0000 0000 00D4 0039 00DE 0001 0036 0037 	db	0,0,212,57,222,1,54,55	;# 
  1044  0008  0034 0033 0033 0032 0047 0047 0046 0046 	db	52,51,51,50,71,71,70,70	;# 
  1045  0010  000E 00D4 0039 006F 0015 0008 000B 001B 	db	14,212,57,111,21,8,11,27	;# 
  1046  0018  000B 00DE 0004 0000 0000 0055 0024 00E8 	db	11,222,4,0,0,85,36,232	;# 
  1047  0020  0059 00BD 0009 0008 002B 00F3 002A 001F 	db	89,189,9,8,43,243,42,31	;# 
  1048  0028  0015 0000 0001 0002 0003 0004 0005 0006 	db	21,0,1,2,3,4,5,6	;# 
  1049  0030  0038 0037 0037 0036 0044 0044 0044 0043 	db	56,55,55,54,68,68,68,67	;# 
  1050  0038  005B 005A 005A 0059 0026 0025 0025 0000 	db	91,90,90,89,38,37,37,0	;# 
  1051  0040  0036 000E 00D4 0039 006F 0015 0008 008D 	db	54,14,212,57,111,21,8,141	;# 
  1052  0048  0032 0047 0047 0046 00C8 0037 0019 0021 	db	50,71,71,70,200,55,25,33	;# 
  1053  0050  0066 0065 0065 0064 0064 0063 0063 0062 	db	102,101,101,100,100,99,99,98	;# 
  1054  0058  0062 0061 0061 0061 0060 0060 005F 005F 	db	98,97,97,97,96,96,95,95	;# 
  1055  0060  005E 005E 005D 005D 005C 005C 005C 005B 	db	94,94,93,93,92,92,92,91	;# 
  1056  0068  005B 005A 005A 0059 0059 0059 0058 0058 	db	91,90,90,89,89,89,88,88	;# 
  1057  0070  0057 0057 0057 0056 0056 0055 0055 0055 	db	87,87,87,86,86,85,85,85	;# 
  1058  0078  0054 0054 0053 0053 0053 0052 0052 0051 	db	84,84,83,83,83,82,82,81	;# 
  1059  0080  0051 0051 0050 0050 0050 004F 004F 004E 	db	81,81,80,80,80,79,79,78	;# 
  1060  0088  004E 004E 004D 004D 004C 004C 004C 004B 	db	78,78,77,77,76,76,76,75	;# 
  1061  0090  004B 004B 004A 004A 0049 0049 0049 0048 	db	75,75,74,74,73,73,73,72	;# 
  1062  0098  0048 0047 0047 0047 0046 0046 0046 0045 	db	72,71,71,71,70,70,70,69	;# 
  1063  00A0  0045 0044 0044 0044 0043 0043 0042 0042 	db	69,68,68,68,67,67,66,66	;# 
  1064  00A8  0042 0041 0041 0040 0040 0040 003F 003F 	db	66,65,65,64,64,64,63,63	;# 
  1065  00B0  003E 003E 003E 003D 003D 003C 003C 003B 	db	62,62,62,61,61,60,60,59	;# 
  1066  00B8  003B 003B 003A 003A 0039 0039 0038 0038 	db	59,59,58,58,57,57,56,56	;# 
  1067  00C0  0038 0037 0037 0036 0036 0035 0035 0034 	db	56,55,55,54,54,53,53,52	;# 
  1068  00C8  0034 0033 0033 0032 0032 0031 0031 0030 	db	52,51,51,50,50,49,49,48	;# 
  1069  00D0  002F 002F 002F 002E 002E 002D 002C 002C 	db	47,47,47,46,46,45,44,44	;# 
  1070  00D8  002B 002B 002A 0029 0029 0028 0027 0027 	db	43,43,42,41,41,40,39,39	;# 
  1071  00E0  0026 0025 0025 0024 0023 0022 0021 0021 	db	38,37,37,36,35,34,33,33	;# 
  1072  00E8  0020 001F 001E 001D 001C 001B 001A 0019 	db	32,31,30,29,28,27,26,25	;# 
  1073  00F0  004B 004B 004A 004A 0049 0049 0049 0048 	db	75,75,74,74,73,73,73,72	;# 
  1074  00F8  0032 0047 0047 0046 00C8 0037 0019 0021 	db	50,71,71,70,200,55,25,33	;# 
  1075  0000                     	;# 
  1076  0001                     	;# 
  1077  0002                     	;# 
  1078  0003                     	;# 
  1079  0004                     	;# 
  1080  0005                     	;# 
  1081  0006                     	;# 
  1082  0007                     	;# 
  1083  0008                     	;# 
  1084  0009                     	;# 
  1085  000A                     	;# 
  1086  000B                     	;# 
  1087  000C                     	;# 
  1088  000D                     	;# 
  1089  0011                     	;# 
  1090  0012                     	;# 
  1091  0013                     	;# 
  1092  0014                     	;# 
  1093  0015                     	;# 
  1094  0016                     	;# 
  1095  0016                     	;# 
  1096  0017                     	;# 
  1097  0018                     	;# 
  1098  0019                     	;# 
  1099  001A                     	;# 
  1100  001B                     	;# 
  1101  001C                     	;# 
  1102  001E                     	;# 
  1103  001F                     	;# 
  1104  008C                     	;# 
  1105  008D                     	;# 
  1106  0091                     	;# 
  1107  0092                     	;# 
  1108  0093                     	;# 
  1109  0094                     	;# 
  1110  0095                     	;# 
  1111  0096                     	;# 
  1112  0097                     	;# 
  1113  0098                     	;# 
  1114  0099                     	;# 
  1115  009A                     	;# 
  1116  009B                     	;# 
  1117  009B                     	;# 
  1118  009C                     	;# 
  1119  009D                     	;# 
  1120  009E                     	;# 
  1121  010C                     	;# 
  1122  010D                     	;# 
  1123  0111                     	;# 
  1124  0112                     	;# 
  1125  0113                     	;# 
  1126  0114                     	;# 
  1127  0115                     	;# 
  1128  0116                     	;# 
  1129  0117                     	;# 
  1130  0118                     	;# 
  1131  0119                     	;# 
  1132  011A                     	;# 
  1133  011B                     	;# 
  1134  011D                     	;# 
  1135  011E                     	;# 
  1136  018C                     	;# 
  1137  018D                     	;# 
  1138  0191                     	;# 
  1139  0191                     	;# 
  1140  0192                     	;# 
  1141  0193                     	;# 
  1142  0193                     	;# 
  1143  0193                     	;# 
  1144  0194                     	;# 
  1145  0195                     	;# 
  1146  0196                     	;# 
  1147  0199                     	;# 
  1148  019A                     	;# 
  1149  019B                     	;# 
  1150  019B                     	;# 
  1151  019B                     	;# 
  1152  019B                     	;# 
  1153  019C                     	;# 
  1154  019C                     	;# 
  1155  019D                     	;# 
  1156  019E                     	;# 
  1157  019F                     	;# 
  1158  020C                     	;# 
  1159  020D                     	;# 
  1160  0211                     	;# 
  1161  0211                     	;# 
  1162  0212                     	;# 
  1163  0212                     	;# 
  1164  0213                     	;# 
  1165  0213                     	;# 
  1166  0214                     	;# 
  1167  0214                     	;# 
  1168  0215                     	;# 
  1169  0215                     	;# 
  1170  0215                     	;# 
  1171  0216                     	;# 
  1172  0216                     	;# 
  1173  0217                     	;# 
  1174  0217                     	;# 
  1175  0219                     	;# 
  1176  021A                     	;# 
  1177  021B                     	;# 
  1178  021C                     	;# 
  1179  021D                     	;# 
  1180  021E                     	;# 
  1181  021F                     	;# 
  1182  0291                     	;# 
  1183  0291                     	;# 
  1184  0292                     	;# 
  1185  0293                     	;# 
  1186  0294                     	;# 
  1187  0295                     	;# 
  1188  0295                     	;# 
  1189  0296                     	;# 
  1190  0298                     	;# 
  1191  0298                     	;# 
  1192  0299                     	;# 
  1193  029A                     	;# 
  1194  029B                     	;# 
  1195  029C                     	;# 
  1196  029C                     	;# 
  1197  029D                     	;# 
  1198  029E                     	;# 
  1199  029E                     	;# 
  1200  0311                     	;# 
  1201  0311                     	;# 
  1202  0312                     	;# 
  1203  0313                     	;# 
  1204  0318                     	;# 
  1205  0318                     	;# 
  1206  0319                     	;# 
  1207  031A                     	;# 
  1208  0394                     	;# 
  1209  0395                     	;# 
  1210  0396                     	;# 
  1211  039A                     	;# 
  1212  039C                     	;# 
  1213  039D                     	;# 
  1214  039E                     	;# 
  1215  039F                     	;# 
  1216  0415                     	;# 
  1217  0416                     	;# 
  1218  0417                     	;# 
  1219  041C                     	;# 
  1220  041D                     	;# 
  1221  041E                     	;# 
  1222  0FE4                     	;# 
  1223  0FE5                     	;# 
  1224  0FE6                     	;# 
  1225  0FE7                     	;# 
  1226  0FE8                     	;# 
  1227  0FE9                     	;# 
  1228  0FEA                     	;# 
  1229  0FEB                     	;# 
  1230  0FED                     	;# 
  1231  0FEE                     	;# 
  1232  0FEF                     	;# 
  1233                           
  1234                           	psect	stringtext1
  1235  07F9                     __pstringtext1:
  1236  07F9                     __CFC22:
  1237  07F9  3441               	retlw	65
  1238  07FA  3454               	retlw	84
  1239  07FB  342B               	retlw	43
  1240  07FC  3454               	retlw	84
  1241  07FD  3443               	retlw	67
  1242  07FE  344F               	retlw	79
  1243  07FF  344E               	retlw	78
  1244  0800  3446               	retlw	70
  1245  0801  343D               	retlw	61
  1246  0802  3439               	retlw	57
  1247  0803  3430               	retlw	48
  1248  0804  3436               	retlw	54
  1249  0805  3437               	retlw	55
  1250  0806  3430               	retlw	48
  1251  0807  3430               	retlw	48
  1252  0808  343A               	retlw	58
  1253  0809  3432               	retlw	50
  1254  080A  3432               	retlw	50
  1255  080B  343A               	retlw	58
  1256  080C  3431               	retlw	49
  1257  080D  3432               	retlw	50
  1258  080E  3435               	retlw	53
  1259  080F  343A               	retlw	58
  1260  0810  3431               	retlw	49
  1261  0811  3432               	retlw	50
  1262  0812  343A               	retlw	58
  1263  0813  3434               	retlw	52
  1264  0814  342F               	retlw	47
  1265  0815  3438               	retlw	56
  1266  0816  343A               	retlw	58
  1267  0817  3431               	retlw	49
  1268  0818  343A               	retlw	58
  1269  0819  3431               	retlw	49
  1270  081A  340D               	retlw	13
  1271  081B  3400               	retlw	0
  1272  081C                     __end_of__CFC22:
  1273                           
  1274                           	psect	stringtext2
  1275  081C                     __pstringtext2:
  1276  081C                     __TXC22PING:
  1277  081C  3441               	retlw	65
  1278  081D  3454               	retlw	84
  1279  081E  342B               	retlw	43
  1280  081F  3454               	retlw	84
  1281  0820  3458               	retlw	88
  1282  0821  344C               	retlw	76
  1283  0822  3452               	retlw	82
  1284  0823  3441               	retlw	65
  1285  0824  343D               	retlw	61
  1286  0825  3439               	retlw	57
  1287  0826  3430               	retlw	48
  1288  0827  3436               	retlw	54
  1289  0828  3437               	retlw	55
  1290  0829  3430               	retlw	48
  1291  082A  3430               	retlw	48
  1292  082B  343A               	retlw	58
  1293  082C  3430               	retlw	48
  1294  082D  343A               	retlw	58
  1295  082E  3450               	retlw	80
  1296  082F  3449               	retlw	73
  1297  0830  344E               	retlw	78
  1298  0831  3447               	retlw	71
  1299  0832  340D               	retlw	13
  1300  0833  3400               	retlw	0
  1301  0834                     __end_of__TXC22PING:
  1302                           
  1303                           	psect	stringtext3
  1304  0834                     __pstringtext3:
  1305  0834                     __RXC22:
  1306  0834  3441               	retlw	65
  1307  0835  3454               	retlw	84
  1308  0836  342B               	retlw	43
  1309  0837  3452               	retlw	82
  1310  0838  3458               	retlw	88
  1311  0839  344C               	retlw	76
  1312  083A  3452               	retlw	82
  1313  083B  3441               	retlw	65
  1314  083C  343D               	retlw	61
  1315  083D  3439               	retlw	57
  1316  083E  3430               	retlw	48
  1317  083F  3436               	retlw	54
  1318  0840  3437               	retlw	55
  1319  0841  3430               	retlw	48
  1320  0842  3430               	retlw	48
  1321  0843  343A               	retlw	58
  1322  0844  3431               	retlw	49
  1323  0845  340D               	retlw	13
  1324  0846  3400               	retlw	0
  1325  0847                     __end_of__RXC22:
  1326                           
  1327                           	psect	stringtext4
  1328  0847                     __pstringtext4:
  1329  0847                     __TXSTART22:
  1330  0847  3441               	retlw	65
  1331  0848  3454               	retlw	84
  1332  0849  342B               	retlw	43
  1333  084A  3454               	retlw	84
  1334  084B  3458               	retlw	88
  1335  084C  344C               	retlw	76
  1336  084D  3452               	retlw	82
  1337  084E  3441               	retlw	65
  1338  084F  343D               	retlw	61
  1339  0850  3439               	retlw	57
  1340  0851  3430               	retlw	48
  1341  0852  3436               	retlw	54
  1342  0853  3437               	retlw	55
  1343  0854  3430               	retlw	48
  1344  0855  3430               	retlw	48
  1345  0856  343A               	retlw	58
  1346  0857  3430               	retlw	48
  1347  0858  343A               	retlw	58
  1348  0859  3400               	retlw	0
  1349  085A                     __end_of__TXSTART22:
  1350                           
  1351                           	psect	stringtext5
  1352  085A                     __pstringtext5:
  1353  085A                     __CFOFF:
  1354  085A  3441               	retlw	65
  1355  085B  3454               	retlw	84
  1356  085C  342B               	retlw	43
  1357  085D  3454               	retlw	84
  1358  085E  344F               	retlw	79
  1359  085F  3446               	retlw	70
  1360  0860  3446               	retlw	70
  1361  0861  340D               	retlw	13
  1362  0862  3400               	retlw	0
  1363  0863                     __end_of__CFOFF:
  1364                           
  1365                           	psect	stringtext6
  1366  0863                     __pstringtext6:
  1367  0863                     __RESET:
  1368  0863  3441               	retlw	65
  1369  0864  3454               	retlw	84
  1370  0865  345A               	retlw	90
  1371  0866  340D               	retlw	13
  1372  0867  3400               	retlw	0
  1373  0868                     __end_of__RESET:
  1374                           
  1375                           	psect	nvBANK4
  1376  0233                     __pnvBANK4:
  1377  0233                     _segsAlive:
  1378  0233                     	ds	2
  1379  000C                     _PORTAbits	set	12
  1380  000D                     _PORTBbits	set	13
  1381  0011                     _PIR1bits	set	17
  1382  000B                     _INTCONbits	set	11
  1383  0097                     _WDTCONbits	set	151
  1384  008D                     _TRISBbits	set	141
  1385  0095                     _OPTION_REGbits	set	149
  1386  008D                     _TRISB	set	141
  1387  008C                     _TRISA	set	140
  1388  0091                     _PIE1bits	set	145
  1389  0097                     _WDTCON	set	151
  1390  0098                     _OSCTUNE	set	152
  1391  0099                     _OSCCON	set	153
  1392  010C                     _LATAbits	set	268
  1393  010D                     _LATBbits	set	269
  1394  011E                     _APFCON1	set	286
  1395  011D                     _APFCON0	set	285
  1396  010D                     _LATB	set	269
  1397  010C                     _LATA	set	268
  1398  0116                     _BORCON	set	278
  1399  0196                     _EECON2	set	406
  1400  0193                     _EEDATL	set	403
  1401  0194                     _EEDATH	set	404
  1402  0195                     _EECON1bits	set	405
  1403  0192                     _EEADRH	set	402
  1404  0191                     _EEADRL	set	401
  1405  018C                     _ANSELA	set	396
  1406  018D                     _ANSELB	set	397
  1407  0199                     _RCREG	set	409
  1408  019D                     _RCSTAbits	set	413
  1409  019A                     _TXREG	set	410
  1410  019E                     _TXSTAbits	set	414
  1411  019C                     _SPBRGH	set	412
  1412  019B                     _SPBRGL	set	411
  1413  019E                     _TXSTA	set	414
  1414  019D                     _RCSTA	set	413
  1415  019F                     _BAUDCON	set	415
  1416  020C                     _WPUA	set	524
  1417  020D                     _WPUB	set	525
  1418                           
  1419                           	psect	cinit
  1420  002E                     start_initialization:	
  1421                           ; #config settings
  1422                           
  1423  002E                     __initialization:
  1424                           
  1425                           ; Clear objects allocated to COMMON
  1426  002E  01F9               	clrf	__pbssCOMMON& (0+127)
  1427  002F  01FA               	clrf	(__pbssCOMMON+1)& (0+127)
  1428  0030  01FB               	clrf	(__pbssCOMMON+2)& (0+127)
  1429                           
  1430                           ; Clear objects allocated to BANK0
  1431  0031  3020               	movlw	low __pbssBANK0
  1432  0032  0084               	movwf	4
  1433  0033  3000               	movlw	high __pbssBANK0
  1434  0034  0085               	movwf	5
  1435  0035  3050               	movlw	80
  1436  0036  318D  2592  3180   	fcall	clear_ram0
  1437                           
  1438                           ; Clear objects allocated to BANK1
  1439  0039  30A0               	movlw	low __pbssBANK1
  1440  003A  0084               	movwf	4
  1441  003B  3000               	movlw	high __pbssBANK1
  1442  003C  0085               	movwf	5
  1443  003D  3050               	movlw	80
  1444  003E  318D  2592  3180   	fcall	clear_ram0
  1445                           
  1446                           ; Clear objects allocated to BANK2
  1447  0041  3020               	movlw	low __pbssBANK2
  1448  0042  0084               	movwf	4
  1449  0043  3001               	movlw	high __pbssBANK2
  1450  0044  0085               	movwf	5
  1451  0045  3050               	movlw	80
  1452  0046  318D  2592  3180   	fcall	clear_ram0
  1453                           
  1454                           ; Clear objects allocated to BANK3
  1455  0049  30A0               	movlw	low __pbssBANK3
  1456  004A  0084               	movwf	4
  1457  004B  3001               	movlw	high __pbssBANK3
  1458  004C  0085               	movwf	5
  1459  004D  3050               	movlw	80
  1460  004E  318D  2592  3180   	fcall	clear_ram0
  1461                           
  1462                           ; Clear objects allocated to BANK4
  1463  0051  3020               	movlw	low __pbssBANK4
  1464  0052  0084               	movwf	4
  1465  0053  3002               	movlw	high __pbssBANK4
  1466  0054  0085               	movwf	5
  1467  0055  3013               	movlw	19
  1468  0056  318D  2592  3180   	fcall	clear_ram0
  1469  0059                     end_of_initialization:	
  1470                           ;End of C runtime variable initialization code
  1471                           
  1472  0059                     __end_of__initialization:
  1473  0059  107E               	bcf	int$flags,0	;clear compiler interrupt flag (level 1)
  1474  005A  0020               	movlb	0
  1475  005B  3180  285D         	ljmp	_main	;jump to C main() function
  1476                           
  1477                           	psect	bssCOMMON
  1478  0079                     __pbssCOMMON:
  1479  0079                     _UltimoDadoRecebido:
  1480  0079                     	ds	1
  1481  007A                     _fTxOk:
  1482  007A                     	ds	1
  1483  007B                     _indice:
  1484  007B                     	ds	1
  1485                           
  1486                           	psect	bssBANK0
  1487  0020                     __pbssBANK0:
  1488  0020                     _eusartRxBuffer:
  1489  0020                     	ds	64
  1490  0060                     _flags:
  1491  0060                     	ds	6
  1492  0066                     _TotalSerial:
  1493  0066                     	ds	2
  1494  0068                     _EUSART_RxDefaultInterruptHandler:
  1495  0068                     	ds	2
  1496  006A                     _EUSART_TxDefaultInterruptHandler:
  1497  006A                     	ds	2
  1498  006C                     _fParm:
  1499  006C                     	ds	1
  1500  006D                     _fBusy:
  1501  006D                     	ds	1
  1502  006E                     _fATerr:
  1503  006E                     	ds	1
  1504  006F                     _fOK:
  1505  006F                     	ds	1
  1506                           
  1507                           	psect	bssBANK1
  1508  00A0                     __pbssBANK1:
  1509  00A0                     _eusartTxBuffer:
  1510  00A0                     	ds	32
  1511  00C0                     _pacoteTRX:
  1512  00C0                     	ds	14
  1513  00CE                     _DadosSensor:
  1514  00CE                     	ds	8
  1515  00D6                     _ID:
  1516  00D6                     	ds	4
  1517  00DA                     _EUSART_ErrorHandler:
  1518  00DA                     	ds	2
  1519  00DC                     _EUSART_OverrunErrorHandler:
  1520  00DC                     	ds	2
  1521  00DE                     _EUSART_FramingErrorHandler:
  1522  00DE                     	ds	2
  1523  00E0                     _fComandoSirene:
  1524  00E0                     	ds	1
  1525  00E1                     _fRTX:
  1526  00E1                     	ds	1
  1527  00E2                     _fLigado:
  1528  00E2                     	ds	1
  1529  00E3                     _fErroID:
  1530  00E3                     	ds	1
  1531  00E4                     _fTimeOut:
  1532  00E4                     	ds	1
  1533  00E5                     _fDetec:
  1534  00E5                     	ds	1
  1535  00E6                     _fAT:
  1536  00E6                     	ds	1
  1537  00E7                     _eusartRxLastError:
  1538  00E7                     	ds	1
  1539  00E8                     _eusartRxCount:
  1540  00E8                     	ds	1
  1541  00E9                     _eusartRxTail:
  1542  00E9                     	ds	1
  1543  00EA                     _eusartRxHead:
  1544  00EA                     	ds	1
  1545  00EB                     _eusartTxBufferRemaining:
  1546  00EB                     	ds	1
  1547  00EC                     _eusartTxTail:
  1548  00EC                     	ds	1
  1549  00ED                     _eusartTxHead:
  1550  00ED                     	ds	1
  1551  00EE                     _fProgID:
  1552  00EE                     	ds	1
  1553  00EF                     _fRetLora:
  1554  00EF                     	ds	1
  1555                           
  1556                           	psect	bssBANK2
  1557  0120                     __pbssBANK2:
  1558  0120                     _DadosLora:
  1559  0120                     	ds	64
  1560  0160                     _passagem:
  1561  0160                     	ds	2
  1562  0162                     _cicloLED:
  1563  0162                     	ds	2
  1564  0164                     _tMs:
  1565  0164                     	ds	2
  1566  0166                     _tempoEspera:
  1567  0166                     	ds	2
  1568  0168                     _TempoDeReplicacao:
  1569  0168                     	ds	2
  1570  016A                     _ENDERECO:
  1571  016A                     	ds	2
  1572  016C                     _OFFSET:
  1573  016C                     	ds	2
  1574  016E                     _fRetSensor:
  1575  016E                     	ds	1
  1576  016F                     _indiceSensor:
  1577  016F                     	ds	1
  1578                           
  1579                           	psect	bssBANK3
  1580  01A0                     __pbssBANK3:
  1581  01A0                     _eusartRxStatusBuffer:
  1582  01A0                     	ds	64
  1583  01E0                     _offset:
  1584  01E0                     	ds	2
  1585  01E2                     _endereco:
  1586  01E2                     	ds	2
  1587  01E4                     _enderecoRecebido:
  1588  01E4                     	ds	2
  1589  01E6                     _temp16:
  1590  01E6                     	ds	2
  1591  01E8                     _tempoRTX:
  1592  01E8                     	ds	2
  1593  01EA                     _endereco_U:
  1594  01EA                     	ds	1
  1595  01EB                     _endereco_C:
  1596  01EB                     	ds	1
  1597  01EC                     _endereco_M:
  1598  01EC                     	ds	1
  1599  01ED                     _TIPO:
  1600  01ED                     	ds	1
  1601  01EE                     _SM_STATUSflags:
  1602  01EE                     	ds	1
  1603  01EF                     _endereco_D:
  1604  01EF                     	ds	1
  1605                           
  1606                           	psect	bssBANK4
  1607  0220                     __pbssBANK4:
  1608  0220                     _U_EnderecoRecebido:
  1609  0220                     	ds	1
  1610  0221                     _M_EnderecoRecebido:
  1611  0221                     	ds	1
  1612  0222                     _rett:
  1613  0222                     	ds	1
  1614  0223                     _temp8:
  1615  0223                     	ds	1
  1616  0224                     _BatL:
  1617  0224                     	ds	1
  1618  0225                     _BatH:
  1619  0225                     	ds	1
  1620  0226                     _dips:
  1621  0226                     	ds	1
  1622  0227                     _canal:
  1623  0227                     	ds	1
  1624  0228                     _loop:
  1625  0228                     	ds	1
  1626  0229                     _LL:
  1627  0229                     	ds	1
  1628  022A                     _HH:
  1629  022A                     	ds	1
  1630  022B                     _fEspera:
  1631  022B                     	ds	1
  1632  022C                     _fRepete:
  1633  022C                     	ds	1
  1634  022D                     _AcEVTBatLOW:
  1635  022D                     	ds	1
  1636  022E                     _AcEVTBatOK:
  1637  022E                     	ds	1
  1638  022F                     _AcAliveBatLOW:
  1639  022F                     	ds	1
  1640  0230                     _AcAliveBatOK:
  1641  0230                     	ds	1
  1642  0231                     _D_EnderecoRecebido:
  1643  0231                     	ds	1
  1644  0232                     _C_EnderecoRecebido:
  1645  0232                     	ds	1
  1646                           
  1647                           	psect	clrtext
  1648  0D92                     clear_ram0:	
  1649                           ;	Called with FSR0 containing the base address, and
  1650                           ;	WREG with the size to clear
  1651                           
  1652  0D92  0064               	clrwdt	;clear the watchdog before getting into this loop
  1653  0D93                     clrloop0:
  1654  0D93  0180               	clrf	0	;clear RAM location pointed to by FSR
  1655  0D94  3101               	addfsr 0,1
  1656  0D95  0B89               	decfsz	9,f	;Have we reached the end of clearing yet?
  1657  0D96  2D93               	goto	clrloop0	;have we reached the end yet?
  1658  0D97  3400               	retlw	0	;all done for this memory range, return
  1659                           
  1660                           	psect	cstackBANK4
  1661  0235                     __pcstackBANK4:
  1662  0235                     ??_main:
  1663                           
  1664                           ; 1 bytes @ 0x0
  1665  0235                     	ds	2
  1666                           
  1667                           	psect	cstackCOMMON
  1668  0070                     __pcstackCOMMON:
  1669  0070                     ?_EUSART_Receive_ISR:
  1670  0070                     ?_EUSART_Transmit_ISR:	
  1671                           ; 1 bytes @ 0x0
  1672                           
  1673  0070                     ??_EUSART_Transmit_ISR:	
  1674                           ; 1 bytes @ 0x0
  1675                           
  1676  0070                     ?_EUSART_DefaultFramingErrorHandler:	
  1677                           ; 1 bytes @ 0x0
  1678                           
  1679  0070                     ??_EUSART_DefaultFramingErrorHandler:	
  1680                           ; 1 bytes @ 0x0
  1681                           
  1682  0070                     ?_EUSART_DefaultOverrunErrorHandler:	
  1683                           ; 1 bytes @ 0x0
  1684                           
  1685  0070                     ??_EUSART_DefaultOverrunErrorHandler:	
  1686                           ; 1 bytes @ 0x0
  1687                           
  1688  0070                     ?_EUSART_DefaultErrorHandler:	
  1689                           ; 1 bytes @ 0x0
  1690                           
  1691  0070                     ?_EUSART_RxDataHandler:	
  1692                           ; 1 bytes @ 0x0
  1693                           
  1694  0070                     ??_EUSART_RxDataHandler:	
  1695                           ; 1 bytes @ 0x0
  1696                           
  1697  0070                     ?_OSCILLATOR_Initialize:	
  1698                           ; 1 bytes @ 0x0
  1699                           
  1700  0070                     ?_WDT_Initialize:	
  1701                           ; 1 bytes @ 0x0
  1702                           
  1703  0070                     ?_INTERRUPT_InterruptManager:	
  1704                           ; 1 bytes @ 0x0
  1705                           
  1706  0070                     ?_EUSART_Reset:	
  1707                           ; 1 bytes @ 0x0
  1708                           
  1709  0070                     ?_EUSART_Initialize:	
  1710                           ; 1 bytes @ 0x0
  1711                           
  1712  0070                     ?_EUSART_Write:	
  1713                           ; 1 bytes @ 0x0
  1714                           
  1715  0070                     ?_PIN_MANAGER_Initialize:	
  1716                           ; 1 bytes @ 0x0
  1717                           
  1718  0070                     ?_ModuloOn:	
  1719                           ; 1 bytes @ 0x0
  1720                           
  1721  0070                     ?_ModuloOff:	
  1722                           ; 1 bytes @ 0x0
  1723                           
  1724  0070                     ?_ErrCode:	
  1725                           ; 1 bytes @ 0x0
  1726                           
  1727  0070                     ?_Espera_TxOk:	
  1728                           ; 1 bytes @ 0x0
  1729                           
  1730  0070                     ?_SM_RESET:	
  1731                           ; 1 bytes @ 0x0
  1732                           
  1733  0070                     ?_SM_CONFIGRADIO:	
  1734                           ; 1 bytes @ 0x0
  1735                           
  1736  0070                     ?_SM_MODORX:	
  1737                           ; 1 bytes @ 0x0
  1738                           
  1739  0070                     ?_SM_CFOFF:	
  1740                           ; 1 bytes @ 0x0
  1741                           
  1742  0070                     ?_SM_START:	
  1743                           ; 1 bytes @ 0x0
  1744                           
  1745  0070                     ?_TX_Lora:	
  1746                           ; 1 bytes @ 0x0
  1747                           
  1748  0070                     ?_main:	
  1749                           ; 1 bytes @ 0x0
  1750                           
  1751  0070                     SM_CONFIGRADIO@ch:	
  1752                           ; 1 bytes @ 0x0
  1753                           
  1754  0070                     SM_MODORX@ch:	
  1755                           ; 1 bytes @ 0x0
  1756                           
  1757                           
  1758                           ; 1 bytes @ 0x0
  1759  0070                     	ds	1
  1760  0071                     ?_EUSART_SetRxInterruptHandler:
  1761  0071                     ??_EUSART_Receive_ISR:	
  1762                           ; 1 bytes @ 0x1
  1763                           
  1764  0071                     ?_EUSART_SetTxInterruptHandler:	
  1765                           ; 1 bytes @ 0x1
  1766                           
  1767  0071                     ?_EUSART_SetFramingErrorHandler:	
  1768                           ; 1 bytes @ 0x1
  1769                           
  1770  0071                     ?_EUSART_SetOverrunErrorHandler:	
  1771                           ; 1 bytes @ 0x1
  1772                           
  1773  0071                     ?_EUSART_SetErrorHandler:	
  1774                           ; 1 bytes @ 0x1
  1775                           
  1776  0071                     ??_EUSART_DefaultErrorHandler:	
  1777                           ; 1 bytes @ 0x1
  1778                           
  1779  0071                     ??_OSCILLATOR_Initialize:	
  1780                           ; 1 bytes @ 0x1
  1781                           
  1782  0071                     ??_WDT_Initialize:	
  1783                           ; 1 bytes @ 0x1
  1784                           
  1785  0071                     ??_INTERRUPT_InterruptManager:	
  1786                           ; 1 bytes @ 0x1
  1787                           
  1788  0071                     ??_EUSART_Reset:	
  1789                           ; 1 bytes @ 0x1
  1790                           
  1791  0071                     ??_EUSART_Write:	
  1792                           ; 1 bytes @ 0x1
  1793                           
  1794  0071                     ??_PIN_MANAGER_Initialize:	
  1795                           ; 1 bytes @ 0x1
  1796                           
  1797  0071                     ??_ModuloOn:	
  1798                           ; 1 bytes @ 0x1
  1799                           
  1800  0071                     ??_ModuloOff:	
  1801                           ; 1 bytes @ 0x1
  1802                           
  1803  0071                     ??_Espera_TxOk:	
  1804                           ; 1 bytes @ 0x1
  1805                           
  1806  0071                     ?___wmul:	
  1807                           ; 1 bytes @ 0x1
  1808                           
  1809  0071                     ?___lwdiv:	
  1810                           ; 2 bytes @ 0x1
  1811                           
  1812  0071                     ?___lwmod:	
  1813                           ; 2 bytes @ 0x1
  1814                           
  1815  0071                     EUSART_SetFramingErrorHandler@interruptHandler:	
  1816                           ; 2 bytes @ 0x1
  1817                           
  1818  0071                     EUSART_SetOverrunErrorHandler@interruptHandler:	
  1819                           ; 2 bytes @ 0x1
  1820                           
  1821  0071                     EUSART_SetErrorHandler@interruptHandler:	
  1822                           ; 2 bytes @ 0x1
  1823                           
  1824  0071                     EUSART_SetTxInterruptHandler@interruptHandler:	
  1825                           ; 2 bytes @ 0x1
  1826                           
  1827  0071                     EUSART_SetRxInterruptHandler@interruptHandler:	
  1828                           ; 2 bytes @ 0x1
  1829                           
  1830  0071                     ___wmul@multiplier:	
  1831                           ; 2 bytes @ 0x1
  1832                           
  1833  0071                     ___lwdiv@divisor:	
  1834                           ; 2 bytes @ 0x1
  1835                           
  1836  0071                     ___lwmod@divisor:	
  1837                           ; 2 bytes @ 0x1
  1838                           
  1839                           
  1840                           ; 2 bytes @ 0x1
  1841  0071                     	ds	1
  1842  0072                     ??_ErrCode:
  1843  0072                     EUSART_Write@txData:	
  1844                           ; 1 bytes @ 0x2
  1845                           
  1846                           
  1847                           ; 1 bytes @ 0x2
  1848  0072                     	ds	1
  1849  0073                     ??_EUSART_SetRxInterruptHandler:
  1850  0073                     ??_EUSART_SetTxInterruptHandler:	
  1851                           ; 1 bytes @ 0x3
  1852                           
  1853  0073                     ??_EUSART_SetFramingErrorHandler:	
  1854                           ; 1 bytes @ 0x3
  1855                           
  1856  0073                     ??_EUSART_SetOverrunErrorHandler:	
  1857                           ; 1 bytes @ 0x3
  1858                           
  1859  0073                     ??_EUSART_SetErrorHandler:	
  1860                           ; 1 bytes @ 0x3
  1861                           
  1862  0073                     ??_EUSART_Initialize:	
  1863                           ; 1 bytes @ 0x3
  1864                           
  1865  0073                     ??_SM_RESET:	
  1866                           ; 1 bytes @ 0x3
  1867                           
  1868  0073                     ??_SM_CONFIGRADIO:	
  1869                           ; 1 bytes @ 0x3
  1870                           
  1871  0073                     ??_SM_MODORX:	
  1872                           ; 1 bytes @ 0x3
  1873                           
  1874  0073                     ??_SM_CFOFF:	
  1875                           ; 1 bytes @ 0x3
  1876                           
  1877  0073                     ___wmul@multiplicand:	
  1878                           ; 1 bytes @ 0x3
  1879                           
  1880  0073                     ___lwdiv@dividend:	
  1881                           ; 2 bytes @ 0x3
  1882                           
  1883  0073                     ___lwmod@dividend:	
  1884                           ; 2 bytes @ 0x3
  1885                           
  1886                           
  1887                           ; 2 bytes @ 0x3
  1888  0073                     	ds	1
  1889  0074                     ErrCode@code:
  1890                           
  1891                           ; 1 bytes @ 0x4
  1892  0074                     	ds	1
  1893  0075                     ??_SM_START:
  1894  0075                     ??_TX_Lora:	
  1895                           ; 1 bytes @ 0x5
  1896                           
  1897  0075                     ??___wmul:	
  1898                           ; 1 bytes @ 0x5
  1899                           
  1900  0075                     ??___lwdiv:	
  1901                           ; 1 bytes @ 0x5
  1902                           
  1903  0075                     ??___lwmod:	
  1904                           ; 1 bytes @ 0x5
  1905                           
  1906  0075                     ___wmul@product:	
  1907                           ; 1 bytes @ 0x5
  1908                           
  1909                           
  1910                           ; 2 bytes @ 0x5
  1911  0075                     	ds	1
  1912  0076                     ___lwmod@counter:
  1913  0076                     ___lwdiv@quotient:	
  1914                           ; 1 bytes @ 0x6
  1915                           
  1916                           
  1917                           ; 2 bytes @ 0x6
  1918  0076                     	ds	2
  1919  0078                     ___lwdiv@counter:
  1920                           
  1921                           ; 1 bytes @ 0x8
  1922  0078                     	ds	1
  1923                           
  1924                           	psect	maintext
  1925  005D                     __pmaintext:	
  1926 ;;
  1927 ;;Main: autosize = 0, tempsize = 2, incstack = 0, save=0
  1928 ;;
  1929 ;; *************** function _main *****************
  1930 ;; Defined at:
  1931 ;;		line 254 in file "main.c"
  1932 ;; Parameters:    Size  Location     Type
  1933 ;;		None
  1934 ;; Auto vars:     Size  Location     Type
  1935 ;;		None
  1936 ;; Return value:  Size  Location     Type
  1937 ;;                  1    wreg      void 
  1938 ;; Registers used:
  1939 ;;		wreg, fsr0l, fsr0h, fsr1l, fsr1h, status,2, status,0, pclath, cstack
  1940 ;; Tracked objects:
  1941 ;;		On entry : B1F/0
  1942 ;;		On exit  : 0/0
  1943 ;;		Unchanged: 0/0
  1944 ;; Data sizes:     COMMON   BANK0   BANK1   BANK2   BANK3   BANK4
  1945 ;;      Params:         0       0       0       0       0       0
  1946 ;;      Locals:         0       0       0       0       0       0
  1947 ;;      Temps:          0       0       0       0       0       2
  1948 ;;      Totals:         0       0       0       0       0       2
  1949 ;;Total ram usage:        2 bytes
  1950 ;; Hardware stack levels required when called: 7
  1951 ;; This function calls:
  1952 ;;		_EUSART_Initialize
  1953 ;;		_EUSART_Reset
  1954 ;;		_EUSART_Write
  1955 ;;		_ErrCode
  1956 ;;		_ModuloOff
  1957 ;;		_OSCILLATOR_Initialize
  1958 ;;		_PIN_MANAGER_Initialize
  1959 ;;		_SM_CFOFF
  1960 ;;		_SM_CONFIGRADIO
  1961 ;;		_SM_MODORX
  1962 ;;		_SM_START
  1963 ;;		_TX_Lora
  1964 ;;		_WDT_Initialize
  1965 ;;		___lwdiv
  1966 ;;		___lwmod
  1967 ;;		___wmul
  1968 ;; This function is called by:
  1969 ;;		Startup code after reset
  1970 ;; This function uses a non-reentrant model
  1971 ;;
  1972                           
  1973  005D                     _main:	
  1974                           ;psect for function _main
  1975                           
  1976  005D                     l3244:	
  1977                           ;incstack = 0
  1978                           ; Regs used in _main: [wreg-fsr1h+status,2+status,0+pclath+cstack]
  1979                           
  1980                           
  1981                           ;main.c: 256:     __nop();
  1982  005D  0000               	nop
  1983                           
  1984                           ;main.c: 257:     __nop();
  1985  005E  0000               	nop
  1986  005F                     l3246:
  1987                           
  1988                           ;main.c: 260:     PIN_MANAGER_Initialize();
  1989  005F  318D  25B2  3180   	fcall	_PIN_MANAGER_Initialize
  1990                           
  1991                           ;main.c: 261:     OSCILLATOR_Initialize();
  1992  0062  318D  2598  3180   	fcall	_OSCILLATOR_Initialize
  1993                           
  1994                           ;main.c: 262:     WDT_Initialize();
  1995  0065  318D  2570  3180   	fcall	_WDT_Initialize
  1996  0068                     l3248:
  1997                           
  1998                           ;main.c: 263:     WDTCONbits.SWDTEN=0;
  1999  0068  0021               	movlb	1	; select bank1
  2000  0069  1017               	bcf	23,0	;volatile
  2001  006A                     l3250:
  2002  006A  0022               	movlb	2	; select bank2
  2003  006B  100C               	bcf	12,0	;volatile
  2004  006C                     l581:
  2005                           
  2006                           ;main.c: 265:     ModuloOff();
  2007  006C  318D  259F  3180   	fcall	_ModuloOff
  2008  006F                     l3252:
  2009  006F  0022               	movlb	2	; select bank2
  2010  0070  170C               	bsf	12,6	;volatile
  2011  0071                     l3254:
  2012  0071  178C               	bsf	12,7	;volatile
  2013  0072                     l3256:
  2014  0072  300B               	movlw	11
  2015  0073  0024               	movlb	4	; select bank4
  2016  0074  00B6               	movwf	(??_main^(0+512)+1)
  2017  0075  3026               	movlw	38
  2018  0076  00B5               	movwf	??_main^(0+512)
  2019  0077  305D               	movlw	93
  2020  0078                     u2377:
  2021  0078  0B89               	decfsz	9,f
  2022  0079  2878               	goto	u2377
  2023  007A  0BB5               	decfsz	??_main^(0+512),f
  2024  007B  2878               	goto	u2377
  2025  007C  0BB6               	decfsz	(??_main^(0+512)+1),f
  2026  007D  2878               	goto	u2377
  2027  007E  3200               	nop2
  2028  007F                     l3258:
  2029  007F  0022               	movlb	2	; select bank2
  2030  0080  130C               	bcf	12,6	;volatile
  2031  0081                     l3260:
  2032  0081  138C               	bcf	12,7	;volatile
  2033  0082                     l3262:
  2034  0082  300B               	movlw	11
  2035  0083  0024               	movlb	4	; select bank4
  2036  0084  00B6               	movwf	(??_main^(0+512)+1)
  2037  0085  3026               	movlw	38
  2038  0086  00B5               	movwf	??_main^(0+512)
  2039  0087  305D               	movlw	93
  2040  0088                     u2387:
  2041  0088  0B89               	decfsz	9,f
  2042  0089  2888               	goto	u2387
  2043  008A  0BB5               	decfsz	??_main^(0+512),f
  2044  008B  2888               	goto	u2387
  2045  008C  0BB6               	decfsz	(??_main^(0+512)+1),f
  2046  008D  2888               	goto	u2387
  2047  008E  3200               	nop2
  2048  008F                     l3264:
  2049  008F  0022               	movlb	2	; select bank2
  2050  0090  170C               	bsf	12,6	;volatile
  2051  0091                     l3266:
  2052  0091  178C               	bsf	12,7	;volatile
  2053  0092                     l3268:
  2054  0092  300B               	movlw	11
  2055  0093  0024               	movlb	4	; select bank4
  2056  0094  00B6               	movwf	(??_main^(0+512)+1)
  2057  0095  3026               	movlw	38
  2058  0096  00B5               	movwf	??_main^(0+512)
  2059  0097  305D               	movlw	93
  2060  0098                     u2397:
  2061  0098  0B89               	decfsz	9,f
  2062  0099  2898               	goto	u2397
  2063  009A  0BB5               	decfsz	??_main^(0+512),f
  2064  009B  2898               	goto	u2397
  2065  009C  0BB6               	decfsz	(??_main^(0+512)+1),f
  2066  009D  2898               	goto	u2397
  2067  009E  3200               	nop2
  2068  009F                     l3270:
  2069  009F  0022               	movlb	2	; select bank2
  2070  00A0  130C               	bcf	12,6	;volatile
  2071  00A1                     l3272:
  2072  00A1  138C               	bcf	12,7	;volatile
  2073  00A2                     l3274:
  2074  00A2  300B               	movlw	11
  2075  00A3  0024               	movlb	4	; select bank4
  2076  00A4  00B6               	movwf	(??_main^(0+512)+1)
  2077  00A5  3026               	movlw	38
  2078  00A6  00B5               	movwf	??_main^(0+512)
  2079  00A7  305D               	movlw	93
  2080  00A8                     u2407:
  2081  00A8  0B89               	decfsz	9,f
  2082  00A9  28A8               	goto	u2407
  2083  00AA  0BB5               	decfsz	??_main^(0+512),f
  2084  00AB  28A8               	goto	u2407
  2085  00AC  0BB6               	decfsz	(??_main^(0+512)+1),f
  2086  00AD  28A8               	goto	u2407
  2087  00AE  3200               	nop2
  2088  00AF                     l3276:
  2089  00AF  0022               	movlb	2	; select bank2
  2090  00B0  170C               	bsf	12,6	;volatile
  2091  00B1                     l3278:
  2092  00B1  178C               	bsf	12,7	;volatile
  2093  00B2                     l3280:
  2094  00B2  300B               	movlw	11
  2095  00B3  0024               	movlb	4	; select bank4
  2096  00B4  00B6               	movwf	(??_main^(0+512)+1)
  2097  00B5  3026               	movlw	38
  2098  00B6  00B5               	movwf	??_main^(0+512)
  2099  00B7  305D               	movlw	93
  2100  00B8                     u2417:
  2101  00B8  0B89               	decfsz	9,f
  2102  00B9  28B8               	goto	u2417
  2103  00BA  0BB5               	decfsz	??_main^(0+512),f
  2104  00BB  28B8               	goto	u2417
  2105  00BC  0BB6               	decfsz	(??_main^(0+512)+1),f
  2106  00BD  28B8               	goto	u2417
  2107  00BE  3200               	nop2
  2108  00BF                     l3282:
  2109  00BF  0022               	movlb	2	; select bank2
  2110  00C0  130C               	bcf	12,6	;volatile
  2111  00C1                     l3284:
  2112  00C1  138C               	bcf	12,7	;volatile
  2113  00C2                     l3286:
  2114                           
  2115                           ;main.c: 272:     indice=0;
  2116  00C2  01FB               	clrf	_indice	;volatile
  2117  00C3                     l3288:
  2118                           
  2119                           ;main.c: 273:     fRetSensor=250;
  2120  00C3  30FA               	movlw	250
  2121  00C4  0024               	movlb	4	; select bank4
  2122  00C5  00B5               	movwf	??_main^(0+512)
  2123  00C6  0835               	movf	??_main^(0+512),w
  2124  00C7  0022               	movlb	2	; select bank2
  2125  00C8  00EE               	movwf	_fRetSensor^(0+256)	;volatile
  2126  00C9                     l3290:
  2127                           
  2128                           ;main.c: 274:     segsAlive=0;
  2129  00C9  0024               	movlb	4	; select bank4
  2130  00CA  01B3               	clrf	_segsAlive^(0+512)
  2131  00CB  01B4               	clrf	(_segsAlive+1)^(0+512)
  2132                           
  2133                           ;main.c: 276:     EUSART_Initialize();
  2134  00CC  318F  27C1  3180   	fcall	_EUSART_Initialize
  2135  00CF                     l3292:
  2136                           
  2137                           ;main.c: 277:     (INTCONbits.GIE = 1);
  2138  00CF  178B               	bsf	11,7	;volatile
  2139  00D0                     l3294:
  2140                           
  2141                           ;main.c: 278:     (INTCONbits.PEIE = 1);
  2142  00D0  170B               	bsf	11,6	;volatile
  2143  00D1                     l3296:
  2144                           
  2145                           ;main.c: 281:     __nop();
  2146  00D1  0000               	nop
  2147  00D2                     l3298:
  2148                           
  2149                           ;main.c: 282:     rett = SM_START();
  2150  00D2  3187  2731  3180   	fcall	_SM_START
  2151  00D5  0024               	movlb	4	; select bank4
  2152  00D6  00B5               	movwf	??_main^(0+512)
  2153  00D7  0835               	movf	??_main^(0+512),w
  2154  00D8  00A2               	movwf	_rett^(0+512)
  2155  00D9                     l3300:
  2156                           
  2157                           ;main.c: 283:     if (rett != fSM_OK)
  2158  00D9  0322               	decf	_rett^(0+512),w
  2159  00DA  1903               	btfsc	3,2
  2160  00DB  28DD               	goto	u2071
  2161  00DC  28DE               	goto	u2070
  2162  00DD                     u2071:
  2163  00DD  28E2               	goto	l3304
  2164  00DE                     u2070:
  2165  00DE                     l3302:
  2166                           
  2167                           ;main.c: 284:         ErrCode(rett);
  2168  00DE  0822               	movf	_rett^(0+512),w
  2169  00DF  3186  26B6  3180   	fcall	_ErrCode
  2170  00E2                     l3304:
  2171                           
  2172                           ;main.c: 285:     __nop();
  2173  00E2  0000               	nop
  2174  00E3                     l3306:
  2175                           
  2176                           ;main.c: 288:     SM_CFOFF();
  2177  00E3  318E  26B5  3180   	fcall	_SM_CFOFF
  2178  00E6                     l3308:
  2179                           
  2180                           ;main.c: 289:     __nop();
  2181  00E6  0000               	nop
  2182  00E7                     l3310:
  2183                           
  2184                           ;main.c: 290:     SM_CONFIGRADIO(22);
  2185  00E7  3016               	movlw	22
  2186  00E8  318E  26E4  3180   	fcall	_SM_CONFIGRADIO
  2187  00EB                     l3312:
  2188                           
  2189                           ;main.c: 291:     __nop();
  2190  00EB  0000               	nop
  2191  00EC                     l3314:
  2192                           
  2193                           ;main.c: 292:     SM_MODORX(22);
  2194  00EC  3016               	movlw	22
  2195  00ED  318E  2657  3180   	fcall	_SM_MODORX
  2196  00F0                     l3316:
  2197                           
  2198                           ;main.c: 293:     __nop();
  2199  00F0  0000               	nop
  2200  00F1                     l3318:
  2201                           
  2202                           ;main.c: 295:     fLigado=0;
  2203  00F1  0021               	movlb	1	; select bank1
  2204  00F2  01E2               	clrf	_fLigado^(0+128)	;volatile
  2205  00F3                     l3320:
  2206                           
  2207                           ;main.c: 296:     indice=0;
  2208  00F3  01FB               	clrf	_indice	;volatile
  2209  00F4                     l3322:
  2210                           
  2211                           ;main.c: 297:     tempoRTX=0;
  2212  00F4  0023               	movlb	3	; select bank3
  2213  00F5  01E8               	clrf	_tempoRTX^(0+384)
  2214  00F6  01E9               	clrf	(_tempoRTX+1)^(0+384)
  2215  00F7                     l3324:
  2216                           
  2217                           ;main.c: 298:     passagem=0;
  2218  00F7  0022               	movlb	2	; select bank2
  2219  00F8  01E0               	clrf	_passagem^(0+256)
  2220  00F9  01E1               	clrf	(_passagem+1)^(0+256)
  2221  00FA                     l3326:
  2222                           
  2223                           ;main.c: 299:     cicloLED=50000;
  2224  00FA  3050               	movlw	80
  2225  00FB  00E2               	movwf	_cicloLED^(0+256)
  2226  00FC  30C3               	movlw	195
  2227  00FD  00E3               	movwf	(_cicloLED^(0+256)+1)
  2228  00FE                     l3328:
  2229                           
  2230                           ;main.c: 300:     __nop();
  2231  00FE  0000               	nop
  2232  00FF                     l3330:
  2233                           
  2234                           ;main.c: 303:     {;main.c: 304:         __nop();
  2235  00FF  0000               	nop
  2236  0100                     l3332:
  2237                           
  2238                           ;main.c: 305:         if (PORTBbits.RB0==0)
  2239  0100  0020               	movlb	0	; select bank0
  2240  0101  180D               	btfsc	13,0	;volatile
  2241  0102  2904               	goto	u2081
  2242  0103  2905               	goto	u2080
  2243  0104                     u2081:
  2244  0104  2A2C               	goto	l3400
  2245  0105                     u2080:
  2246  0105  2924               	goto	l3340
  2247  0106                     l611:	
  2248                           ;main.c: 308:             { do { LATAbits.LATA7 = 1; } while(0); _delay((unsigned long)(
      +                          (50)*(16000000/4000.0))); do { LATAbits.LATA7 = 0; } while(0); _delay((unsigned long)((5
      +                          0)*(16000000/4000.0))); }
  2249                           
  2250  0106  0022               	movlb	2	; select bank2
  2251  0107  178C               	bsf	12,7	;volatile
  2252  0108                     l3336:
  2253  0108  3002               	movlw	2
  2254  0109  0024               	movlb	4	; select bank4
  2255  010A  00B6               	movwf	(??_main^(0+512)+1)
  2256  010B  3004               	movlw	4
  2257  010C  00B5               	movwf	??_main^(0+512)
  2258  010D  30BA               	movlw	186
  2259  010E                     u2427:
  2260  010E  0B89               	decfsz	9,f
  2261  010F  290E               	goto	u2427
  2262  0110  0BB5               	decfsz	??_main^(0+512),f
  2263  0111  290E               	goto	u2427
  2264  0112  0BB6               	decfsz	(??_main^(0+512)+1),f
  2265  0113  290E               	goto	u2427
  2266  0114  0000               	nop
  2267  0115                     l3338:
  2268  0115  0022               	movlb	2	; select bank2
  2269  0116  138C               	bcf	12,7	;volatile
  2270  0117                     l614:
  2271  0117  3002               	movlw	2
  2272  0118  0024               	movlb	4	; select bank4
  2273  0119  00B6               	movwf	(??_main^(0+512)+1)
  2274  011A  3004               	movlw	4
  2275  011B  00B5               	movwf	??_main^(0+512)
  2276  011C  30BA               	movlw	186
  2277  011D                     u2437:
  2278  011D  0B89               	decfsz	9,f
  2279  011E  291D               	goto	u2437
  2280  011F  0BB5               	decfsz	??_main^(0+512),f
  2281  0120  291D               	goto	u2437
  2282  0121  0BB6               	decfsz	(??_main^(0+512)+1),f
  2283  0122  291D               	goto	u2437
  2284  0123  0000               	nop
  2285  0124                     l3340:
  2286                           
  2287                           ;main.c: 307:             while (PORTBbits.RB0==0)
  2288  0124  0020               	movlb	0	; select bank0
  2289  0125  1C0D               	btfss	13,0	;volatile
  2290  0126  2928               	goto	u2091
  2291  0127  2929               	goto	u2090
  2292  0128                     u2091:
  2293  0128  2906               	goto	l611
  2294  0129                     u2090:
  2295  0129                     l616:	
  2296                           ;main.c: 310:             do { LATAbits.LATA7 = 1; } while(0);
  2297                           
  2298  0129  0022               	movlb	2	; select bank2
  2299  012A  178C               	bsf	12,7	;volatile
  2300  012B                     l3342:
  2301                           
  2302                           ;main.c: 312:             SM_CFOFF();
  2303  012B  318E  26B5  3180   	fcall	_SM_CFOFF
  2304  012E                     l3344:
  2305                           
  2306                           ;main.c: 313:             __nop();
  2307  012E  0000               	nop
  2308                           
  2309                           ;main.c: 314:             SM_CONFIGRADIO(22);
  2310  012F  3016               	movlw	22
  2311  0130  318E  26E4  3180   	fcall	_SM_CONFIGRADIO
  2312  0133                     l3346:
  2313                           
  2314                           ;main.c: 315:             __nop();
  2315  0133  0000               	nop
  2316  0134                     l3348:
  2317                           
  2318                           ;main.c: 318:             ENDERECO = 9010;
  2319  0134  3032               	movlw	50
  2320  0135  0022               	movlb	2	; select bank2
  2321  0136  00EA               	movwf	_ENDERECO^(0+256)
  2322  0137  3023               	movlw	35
  2323  0138  00EB               	movwf	(_ENDERECO^(0+256)+1)
  2324  0139                     l3350:
  2325                           
  2326                           ;main.c: 319:             endereco_M = (uint8_t)(ENDERECO/1000);
  2327  0139  30E8               	movlw	232
  2328  013A  00F1               	movwf	___lwdiv@divisor
  2329  013B  3003               	movlw	3
  2330  013C  00F2               	movwf	___lwdiv@divisor+1
  2331  013D  3032               	movlw	50
  2332  013E  00F3               	movwf	___lwdiv@dividend
  2333  013F  3023               	movlw	35
  2334  0140  00F4               	movwf	___lwdiv@dividend+1
  2335  0141  318F  2747  3180   	fcall	___lwdiv
  2336  0144  0871               	movf	?___lwdiv,w
  2337  0145  0024               	movlb	4	; select bank4
  2338  0146  00B5               	movwf	??_main^(0+512)
  2339  0147  0835               	movf	??_main^(0+512),w
  2340  0148  0023               	movlb	3	; select bank3
  2341  0149  00EC               	movwf	_endereco_M^(0+384)	;volatile
  2342  014A                     l3352:
  2343                           
  2344                           ;main.c: 320:             temp16 = ENDERECO%1000;
  2345  014A  30E8               	movlw	232
  2346  014B  00F1               	movwf	___lwmod@divisor
  2347  014C  3003               	movlw	3
  2348  014D  00F2               	movwf	___lwmod@divisor+1
  2349  014E  3032               	movlw	50
  2350  014F  00F3               	movwf	___lwmod@dividend
  2351  0150  3023               	movlw	35
  2352  0151  00F4               	movwf	___lwmod@dividend+1
  2353  0152  3187  27C5  3180   	fcall	___lwmod
  2354  0155  0872               	movf	?___lwmod+1,w
  2355  0156  0023               	movlb	3	; select bank3
  2356  0157  00E7               	movwf	(_temp16+1)^(0+384)
  2357  0158  0871               	movf	?___lwmod,w
  2358  0159  00E6               	movwf	_temp16^(0+384)
  2359  015A                     l3354:
  2360                           
  2361                           ;main.c: 321:             endereco_C = (uint8_t)(temp16/100);
  2362  015A  3064               	movlw	100
  2363  015B  00F1               	movwf	___lwdiv@divisor
  2364  015C  3000               	movlw	0
  2365  015D  00F2               	movwf	___lwdiv@divisor+1
  2366  015E  0867               	movf	(_temp16+1)^(0+384),w
  2367  015F  00F4               	movwf	___lwdiv@dividend+1
  2368  0160  0866               	movf	_temp16^(0+384),w
  2369  0161  00F3               	movwf	___lwdiv@dividend
  2370  0162  318F  2747  3180   	fcall	___lwdiv
  2371  0165  0871               	movf	?___lwdiv,w
  2372  0166  0024               	movlb	4	; select bank4
  2373  0167  00B5               	movwf	??_main^(0+512)
  2374  0168  0835               	movf	??_main^(0+512),w
  2375  0169  0023               	movlb	3	; select bank3
  2376  016A  00EB               	movwf	_endereco_C^(0+384)	;volatile
  2377  016B                     l3356:
  2378                           
  2379                           ;main.c: 322:             temp16 = temp16%100;
  2380  016B  3064               	movlw	100
  2381  016C  00F1               	movwf	___lwmod@divisor
  2382  016D  3000               	movlw	0
  2383  016E  00F2               	movwf	___lwmod@divisor+1
  2384  016F  0867               	movf	(_temp16+1)^(0+384),w
  2385  0170  00F4               	movwf	___lwmod@dividend+1
  2386  0171  0866               	movf	_temp16^(0+384),w
  2387  0172  00F3               	movwf	___lwmod@dividend
  2388  0173  3187  27C5  3180   	fcall	___lwmod
  2389  0176  0872               	movf	?___lwmod+1,w
  2390  0177  0023               	movlb	3	; select bank3
  2391  0178  00E7               	movwf	(_temp16+1)^(0+384)
  2392  0179  0871               	movf	?___lwmod,w
  2393  017A  00E6               	movwf	_temp16^(0+384)
  2394  017B                     l3358:
  2395                           
  2396                           ;main.c: 323:             endereco_D = (uint8_t)(temp16/10);
  2397  017B  300A               	movlw	10
  2398  017C  00F1               	movwf	___lwdiv@divisor
  2399  017D  3000               	movlw	0
  2400  017E  00F2               	movwf	___lwdiv@divisor+1
  2401  017F  0867               	movf	(_temp16+1)^(0+384),w
  2402  0180  00F4               	movwf	___lwdiv@dividend+1
  2403  0181  0866               	movf	_temp16^(0+384),w
  2404  0182  00F3               	movwf	___lwdiv@dividend
  2405  0183  318F  2747  3180   	fcall	___lwdiv
  2406  0186  0871               	movf	?___lwdiv,w
  2407  0187  0024               	movlb	4	; select bank4
  2408  0188  00B5               	movwf	??_main^(0+512)
  2409  0189  0835               	movf	??_main^(0+512),w
  2410  018A  0023               	movlb	3	; select bank3
  2411  018B  00EF               	movwf	_endereco_D^(0+384)	;volatile
  2412  018C                     l3360:
  2413                           
  2414                           ;main.c: 324:             endereco_U = (uint8_t)(temp16%10);
  2415  018C  300A               	movlw	10
  2416  018D  00F1               	movwf	___lwmod@divisor
  2417  018E  3000               	movlw	0
  2418  018F  00F2               	movwf	___lwmod@divisor+1
  2419  0190  0867               	movf	(_temp16+1)^(0+384),w
  2420  0191  00F4               	movwf	___lwmod@dividend+1
  2421  0192  0866               	movf	_temp16^(0+384),w
  2422  0193  00F3               	movwf	___lwmod@dividend
  2423  0194  3187  27C5  3180   	fcall	___lwmod
  2424  0197  0871               	movf	?___lwmod,w
  2425  0198  0024               	movlb	4	; select bank4
  2426  0199  00B5               	movwf	??_main^(0+512)
  2427  019A  0835               	movf	??_main^(0+512),w
  2428  019B  0023               	movlb	3	; select bank3
  2429  019C  00EA               	movwf	_endereco_U^(0+384)	;volatile
  2430  019D                     l3362:
  2431                           
  2432                           ;main.c: 326:             endereco_M += 48;
  2433  019D  3030               	movlw	48
  2434  019E  0024               	movlb	4	; select bank4
  2435  019F  00B5               	movwf	??_main^(0+512)
  2436  01A0  0835               	movf	??_main^(0+512),w
  2437  01A1  0023               	movlb	3	; select bank3
  2438  01A2  07EC               	addwf	_endereco_M^(0+384),f	;volatile
  2439  01A3                     l3364:
  2440                           
  2441                           ;main.c: 327:             endereco_C += 48;
  2442  01A3  3030               	movlw	48
  2443  01A4  0024               	movlb	4	; select bank4
  2444  01A5  00B5               	movwf	??_main^(0+512)
  2445  01A6  0835               	movf	??_main^(0+512),w
  2446  01A7  0023               	movlb	3	; select bank3
  2447  01A8  07EB               	addwf	_endereco_C^(0+384),f	;volatile
  2448  01A9                     l3366:
  2449                           
  2450                           ;main.c: 328:             endereco_D += 48;
  2451  01A9  3030               	movlw	48
  2452  01AA  0024               	movlb	4	; select bank4
  2453  01AB  00B5               	movwf	??_main^(0+512)
  2454  01AC  0835               	movf	??_main^(0+512),w
  2455  01AD  0023               	movlb	3	; select bank3
  2456  01AE  07EF               	addwf	_endereco_D^(0+384),f	;volatile
  2457  01AF                     l3368:
  2458                           
  2459                           ;main.c: 329:             endereco_U += 48;
  2460  01AF  3030               	movlw	48
  2461  01B0  0024               	movlb	4	; select bank4
  2462  01B1  00B5               	movwf	??_main^(0+512)
  2463  01B2  0835               	movf	??_main^(0+512),w
  2464  01B3  0023               	movlb	3	; select bank3
  2465  01B4  07EA               	addwf	_endereco_U^(0+384),f	;volatile
  2466  01B5                     l3370:
  2467                           
  2468                           ;main.c: 330:             __nop();
  2469  01B5  0000               	nop
  2470  01B6                     l3372:
  2471                           
  2472                           ;main.c: 332:             EUSART_Reset();
  2473  01B6  3187  277C  3180   	fcall	_EUSART_Reset
  2474  01B9                     l3374:
  2475                           
  2476                           ;main.c: 333:             for (loop=0; _TXSTART22[loop]!=0; loop++) EUSART_Write (_TXSTA
      +                          RT22[loop]);
  2477  01B9  0024               	movlb	4	; select bank4
  2478  01BA  01A8               	clrf	_loop^(0+512)
  2479  01BB  29CC               	goto	l3380
  2480  01BC                     l3376:
  2481  01BC  0828               	movf	_loop^(0+512),w
  2482  01BD  3E47               	addlw	low (__TXSTART22| (0+32768))
  2483  01BE  0084               	movwf	4
  2484  01BF  3088               	movlw	high (__TXSTART22| (0+32768))
  2485  01C0  1803               	skipnc
  2486  01C1  3E01               	addlw	1
  2487  01C2  0085               	movwf	5
  2488  01C3  0800               	movf	0,w	;code access
  2489  01C4  318E  262D  3180   	fcall	_EUSART_Write
  2490  01C7                     l3378:
  2491  01C7  3001               	movlw	1
  2492  01C8  0024               	movlb	4	; select bank4
  2493  01C9  00B5               	movwf	??_main^(0+512)
  2494  01CA  0835               	movf	??_main^(0+512),w
  2495  01CB  07A8               	addwf	_loop^(0+512),f
  2496  01CC                     l3380:
  2497  01CC  0828               	movf	_loop^(0+512),w
  2498  01CD  3E47               	addlw	low (__TXSTART22| (0+32768))
  2499  01CE  0084               	movwf	4
  2500  01CF  3088               	movlw	high (__TXSTART22| (0+32768))
  2501  01D0  1803               	skipnc
  2502  01D1  3E01               	addlw	1
  2503  01D2  0085               	movwf	5
  2504  01D3  0012               	moviw fsr0++
  2505  01D4  1D03               	btfss	3,2
  2506  01D5  29D7               	goto	u2101
  2507  01D6  29D8               	goto	u2100
  2508  01D7                     u2101:
  2509  01D7  29BC               	goto	l3376
  2510  01D8                     u2100:
  2511  01D8                     l3382:
  2512                           
  2513                           ;main.c: 334:             EUSART_Write('S');
  2514  01D8  3053               	movlw	83
  2515  01D9  318E  262D  3180   	fcall	_EUSART_Write
  2516                           
  2517                           ;main.c: 335:             EUSART_Write('i');
  2518  01DC  3069               	movlw	105
  2519  01DD  318E  262D  3180   	fcall	_EUSART_Write
  2520                           
  2521                           ;main.c: 336:             EUSART_Write('r');
  2522  01E0  3072               	movlw	114
  2523  01E1  318E  262D  3180   	fcall	_EUSART_Write
  2524                           
  2525                           ;main.c: 337:             EUSART_Write('e');
  2526  01E4  3065               	movlw	101
  2527  01E5  318E  262D  3180   	fcall	_EUSART_Write
  2528                           
  2529                           ;main.c: 338:             EUSART_Write('n');
  2530  01E8  306E               	movlw	110
  2531  01E9  318E  262D  3180   	fcall	_EUSART_Write
  2532                           
  2533                           ;main.c: 339:             EUSART_Write('e');
  2534  01EC  3065               	movlw	101
  2535  01ED  318E  262D  3180   	fcall	_EUSART_Write
  2536                           
  2537                           ;main.c: 340:             EUSART_Write(':');
  2538  01F0  303A               	movlw	58
  2539  01F1  318E  262D  3180   	fcall	_EUSART_Write
  2540                           
  2541                           ;main.c: 341:             EUSART_Write(' ');
  2542  01F4  3020               	movlw	32
  2543  01F5  318E  262D  3180   	fcall	_EUSART_Write
  2544                           
  2545                           ;main.c: 342:             EUSART_Write(endereco_M);
  2546  01F8  0023               	movlb	3	; select bank3
  2547  01F9  086C               	movf	_endereco_M^(0+384),w	;volatile
  2548  01FA  318E  262D  3180   	fcall	_EUSART_Write
  2549                           
  2550                           ;main.c: 343:             EUSART_Write(endereco_C);
  2551  01FD  0023               	movlb	3	; select bank3
  2552  01FE  086B               	movf	_endereco_C^(0+384),w	;volatile
  2553  01FF  318E  262D  3180   	fcall	_EUSART_Write
  2554                           
  2555                           ;main.c: 344:             EUSART_Write(endereco_D);
  2556  0202  0023               	movlb	3	; select bank3
  2557  0203  086F               	movf	_endereco_D^(0+384),w	;volatile
  2558  0204  318E  262D  3180   	fcall	_EUSART_Write
  2559                           
  2560                           ;main.c: 345:             EUSART_Write(endereco_U);
  2561  0207  0023               	movlb	3	; select bank3
  2562  0208  086A               	movf	_endereco_U^(0+384),w	;volatile
  2563  0209  318E  262D  3180   	fcall	_EUSART_Write
  2564                           
  2565                           ;main.c: 346:             EUSART_Write (0x0D);
  2566  020C  300D               	movlw	13
  2567  020D  318E  262D  3180   	fcall	_EUSART_Write
  2568  0210                     l3384:
  2569                           
  2570                           ;main.c: 347:             _delay((unsigned long)((2000)*(16000000/4000.0)));
  2571  0210  3029               	movlw	41
  2572  0211  0024               	movlb	4	; select bank4
  2573  0212  00B6               	movwf	(??_main^(0+512)+1)
  2574  0213  3096               	movlw	150
  2575  0214  00B5               	movwf	??_main^(0+512)
  2576  0215  307F               	movlw	127
  2577  0216                     u2447:
  2578  0216  0B89               	decfsz	9,f
  2579  0217  2A16               	goto	u2447
  2580  0218  0BB5               	decfsz	??_main^(0+512),f
  2581  0219  2A16               	goto	u2447
  2582  021A  0BB6               	decfsz	(??_main^(0+512)+1),f
  2583  021B  2A16               	goto	u2447
  2584  021C                     l3386:
  2585                           
  2586                           ;main.c: 350:             SM_CFOFF();
  2587  021C  318E  26B5  3180   	fcall	_SM_CFOFF
  2588  021F                     l3388:
  2589                           
  2590                           ;main.c: 351:             __nop();
  2591  021F  0000               	nop
  2592  0220                     l3390:
  2593                           
  2594                           ;main.c: 352:             SM_CONFIGRADIO(22);
  2595  0220  3016               	movlw	22
  2596  0221  318E  26E4  3180   	fcall	_SM_CONFIGRADIO
  2597  0224                     l3392:
  2598                           
  2599                           ;main.c: 353:             __nop();
  2600  0224  0000               	nop
  2601  0225                     l3394:
  2602                           
  2603                           ;main.c: 354:             SM_MODORX(22);
  2604  0225  3016               	movlw	22
  2605  0226  318E  2657  3180   	fcall	_SM_MODORX
  2606  0229                     l3396:
  2607                           
  2608                           ;main.c: 355:             __nop();
  2609  0229  0000               	nop
  2610  022A                     l3398:
  2611  022A  0022               	movlb	2	; select bank2
  2612  022B  138C               	bcf	12,7	;volatile
  2613  022C                     l3400:
  2614                           
  2615                           ;main.c: 360:         _delay((unsigned long)((1)*(16000000/4000.0)));
  2616  022C  3006               	movlw	6
  2617  022D  0024               	movlb	4	; select bank4
  2618  022E  00B5               	movwf	??_main^(0+512)
  2619  022F  3030               	movlw	48
  2620  0230                     u2457:
  2621  0230  0B89               	decfsz	9,f
  2622  0231  2A30               	goto	u2457
  2623  0232  0BB5               	decfsz	??_main^(0+512),f
  2624  0233  2A30               	goto	u2457
  2625  0234  0000               	nop
  2626  0235                     l3402:
  2627                           
  2628                           ;main.c: 363:         if (fRTX==0)
  2629  0235  0021               	movlb	1	; select bank1
  2630  0236  0861               	movf	_fRTX^(0+128),w	;volatile
  2631  0237  1D03               	btfss	3,2
  2632  0238  2A3A               	goto	u2111
  2633  0239  2A3B               	goto	u2110
  2634  023A                     u2111:
  2635  023A  2A40               	goto	l3406
  2636  023B                     u2110:
  2637  023B                     l3404:
  2638                           
  2639                           ;main.c: 364:             cicloLED++;
  2640  023B  3001               	movlw	1
  2641  023C  0022               	movlb	2	; select bank2
  2642  023D  07E2               	addwf	_cicloLED^(0+256),f
  2643  023E  3000               	movlw	0
  2644  023F  3DE3               	addwfc	(_cicloLED+1)^(0+256),f
  2645  0240                     l3406:
  2646                           
  2647                           ;main.c: 365:         if (cicloLED==100)
  2648  0240  3064               	movlw	100
  2649  0241  0022               	movlb	2	; select bank2
  2650  0242  0662               	xorwf	_cicloLED^(0+256),w
  2651  0243  0463               	iorwf	(_cicloLED+1)^(0+256),w
  2652  0244  1D03               	btfss	3,2
  2653  0245  2A47               	goto	u2121
  2654  0246  2A48               	goto	u2120
  2655  0247                     u2121:
  2656  0247  2A4A               	goto	l624
  2657  0248                     u2120:
  2658  0248                     l625:	
  2659                           ;main.c: 366:         {;main.c: 367:             do { LATAbits.LATA6 = 0; } while(0);
  2660                           
  2661  0248  130C               	bcf	12,6	;volatile
  2662  0249  2A69               	goto	l3416
  2663  024A                     l624:	
  2664                           ;main.c: 369:         else
  2665                           
  2666                           
  2667                           ;main.c: 370:         {;main.c: 371:             if (PORTAbits.RA3==0)
  2668  024A  0020               	movlb	0	; select bank0
  2669  024B  198C               	btfsc	12,3	;volatile
  2670  024C  2A4E               	goto	u2131
  2671  024D  2A4F               	goto	u2130
  2672  024E                     u2131:
  2673  024E  2A5D               	goto	l3412
  2674  024F                     u2130:
  2675  024F                     l3408:
  2676                           
  2677                           ;main.c: 372:             {;main.c: 373:                 if (cicloLED>2000)
  2678  024F  3007               	movlw	7
  2679  0250  0022               	movlb	2	; select bank2
  2680  0251  0263               	subwf	(_cicloLED+1)^(0+256),w
  2681  0252  30D1               	movlw	209
  2682  0253  1903               	skipnz
  2683  0254  0262               	subwf	_cicloLED^(0+256),w
  2684  0255  1C03               	skipc
  2685  0256  2A58               	goto	u2141
  2686  0257  2A59               	goto	u2140
  2687  0258                     u2141:
  2688  0258  2A69               	goto	l3416
  2689  0259                     u2140:
  2690  0259                     l630:	
  2691                           ;main.c: 374:                 {;main.c: 375:                     do { LATAbits.LATA6 = 1
      +                          ; } while(0);
  2692                           
  2693  0259  170C               	bsf	12,6	;volatile
  2694  025A                     l3410:
  2695                           
  2696                           ;main.c: 376:                     cicloLED=0;
  2697  025A  01E2               	clrf	_cicloLED^(0+256)
  2698  025B  01E3               	clrf	(_cicloLED+1)^(0+256)
  2699  025C  2A69               	goto	l3416
  2700  025D                     l3412:
  2701                           
  2702                           ;main.c: 380:             {;main.c: 381:                 if (cicloLED>15000)
  2703  025D  303A               	movlw	58
  2704  025E  0022               	movlb	2	; select bank2
  2705  025F  0263               	subwf	(_cicloLED+1)^(0+256),w
  2706  0260  3099               	movlw	153
  2707  0261  1903               	skipnz
  2708  0262  0262               	subwf	_cicloLED^(0+256),w
  2709  0263  1C03               	skipc
  2710  0264  2A66               	goto	u2151
  2711  0265  2A67               	goto	u2150
  2712  0266                     u2151:
  2713  0266  2A69               	goto	l3416
  2714  0267                     u2150:
  2715  0267                     l634:	
  2716                           ;main.c: 382:                 {;main.c: 383:                     do { LATAbits.LATA6 = 1
      +                          ; } while(0);
  2717                           
  2718  0267  170C               	bsf	12,6	;volatile
  2719  0268  2A5A               	goto	l3410
  2720  0269                     l3416:
  2721                           
  2722                           ;main.c: 392:         passagem++;
  2723  0269  3001               	movlw	1
  2724  026A  07E0               	addwf	_passagem^(0+256),f
  2725  026B  3000               	movlw	0
  2726  026C  3DE1               	addwfc	(_passagem+1)^(0+256),f
  2727  026D                     l3418:
  2728                           
  2729                           ;main.c: 393:         if (passagem>30000)
  2730  026D  3075               	movlw	117
  2731  026E  0261               	subwf	(_passagem+1)^(0+256),w
  2732  026F  3031               	movlw	49
  2733  0270  1903               	skipnz
  2734  0271  0260               	subwf	_passagem^(0+256),w
  2735  0272  1C03               	skipc
  2736  0273  2A75               	goto	u2161
  2737  0274  2A76               	goto	u2160
  2738  0275                     u2161:
  2739  0275  2A78               	goto	l3422
  2740  0276                     u2160:
  2741  0276                     l3420:
  2742                           
  2743                           ;main.c: 394:         {;main.c: 395:             passagem=0;
  2744  0276  01E0               	clrf	_passagem^(0+256)
  2745  0277  01E1               	clrf	(_passagem+1)^(0+256)
  2746  0278                     l3422:
  2747                           
  2748                           ;main.c: 400:         if (fRTX)
  2749  0278  0021               	movlb	1	; select bank1
  2750  0279  0861               	movf	_fRTX^(0+128),w	;volatile
  2751  027A  1903               	btfsc	3,2
  2752  027B  2A7D               	goto	u2171
  2753  027C  2A7E               	goto	u2170
  2754  027D                     u2171:
  2755  027D  2ABD               	goto	l3450
  2756  027E                     u2170:
  2757  027E                     l3424:
  2758                           
  2759                           ;main.c: 401:         {;main.c: 402:             if (tempoRTX < 30000)
  2760  027E  3075               	movlw	117
  2761  027F  0023               	movlb	3	; select bank3
  2762  0280  0269               	subwf	(_tempoRTX+1)^(0+384),w
  2763  0281  3030               	movlw	48
  2764  0282  1903               	skipnz
  2765  0283  0268               	subwf	_tempoRTX^(0+384),w
  2766  0284  1803               	skipnc
  2767  0285  2A87               	goto	u2181
  2768  0286  2A88               	goto	u2180
  2769  0287                     u2181:
  2770  0287  2A8C               	goto	l638
  2771  0288                     u2180:
  2772  0288                     l3426:
  2773                           
  2774                           ;main.c: 403:                 tempoRTX++;
  2775  0288  3001               	movlw	1
  2776  0289  07E8               	addwf	_tempoRTX^(0+384),f
  2777  028A  3000               	movlw	0
  2778  028B  3DE9               	addwfc	(_tempoRTX+1)^(0+384),f
  2779  028C                     l638:
  2780                           
  2781                           ;main.c: 404:             if (tempoRTX >= TempoDeReplicacao)
  2782  028C  0022               	movlb	2	; select bank2
  2783  028D  0869               	movf	(_TempoDeReplicacao+1)^(0+256),w
  2784  028E  0023               	movlb	3	; select bank3
  2785  028F  0269               	subwf	(_tempoRTX+1)^(0+384),w
  2786  0290  1D03               	skipz
  2787  0291  2A96               	goto	u2195
  2788  0292  0022               	movlb	2	; select bank2
  2789  0293  0868               	movf	_TempoDeReplicacao^(0+256),w
  2790  0294  0023               	movlb	3	; select bank3
  2791  0295  0268               	subwf	_tempoRTX^(0+384),w
  2792  0296                     u2195:
  2793  0296  1C03               	skipc
  2794  0297  2A99               	goto	u2191
  2795  0298  2A9A               	goto	u2190
  2796  0299                     u2191:
  2797  0299  2ABD               	goto	l3450
  2798  029A                     u2190:
  2799  029A                     l3428:
  2800                           
  2801                           ;main.c: 405:             {;main.c: 406:                 fRTX=0;
  2802  029A  0021               	movlb	1	; select bank1
  2803  029B  01E1               	clrf	_fRTX^(0+128)	;volatile
  2804  029C                     l3430:
  2805  029C  0022               	movlb	2	; select bank2
  2806  029D  130C               	bcf	12,6	;volatile
  2807  029E                     l3432:
  2808                           
  2809                           ;main.c: 408:                 TX_Lora();
  2810  029E  3186  2634  3180   	fcall	_TX_Lora
  2811  02A1                     l3434:
  2812                           
  2813                           ;main.c: 409:                 __nop();
  2814  02A1  0000               	nop
  2815  02A2                     l3436:
  2816                           
  2817                           ;main.c: 411:                 SM_CFOFF();
  2818  02A2  318E  26B5  3180   	fcall	_SM_CFOFF
  2819  02A5                     l3438:
  2820                           
  2821                           ;main.c: 412:                 __nop();
  2822  02A5  0000               	nop
  2823  02A6                     l3440:
  2824                           
  2825                           ;main.c: 413:                 SM_CONFIGRADIO(22);
  2826  02A6  3016               	movlw	22
  2827  02A7  318E  26E4  3180   	fcall	_SM_CONFIGRADIO
  2828  02AA                     l3442:
  2829                           
  2830                           ;main.c: 414:                 __nop();
  2831  02AA  0000               	nop
  2832  02AB                     l3444:
  2833                           
  2834                           ;main.c: 415:                 SM_MODORX(22);
  2835  02AB  3016               	movlw	22
  2836  02AC  318E  2657  3180   	fcall	_SM_MODORX
  2837  02AF                     l3446:
  2838                           
  2839                           ;main.c: 416:                 __nop();
  2840  02AF  0000               	nop
  2841                           
  2842                           ;main.c: 417:                 fLigado=0;
  2843  02B0  0021               	movlb	1	; select bank1
  2844  02B1  01E2               	clrf	_fLigado^(0+128)	;volatile
  2845                           
  2846                           ;main.c: 418:                 indice=0;
  2847  02B2  01FB               	clrf	_indice	;volatile
  2848                           
  2849                           ;main.c: 419:                 tempoRTX=0;
  2850  02B3  0023               	movlb	3	; select bank3
  2851  02B4  01E8               	clrf	_tempoRTX^(0+384)
  2852  02B5  01E9               	clrf	(_tempoRTX+1)^(0+384)
  2853                           
  2854                           ;main.c: 420:                 passagem=0;
  2855  02B6  0022               	movlb	2	; select bank2
  2856  02B7  01E0               	clrf	_passagem^(0+256)
  2857  02B8  01E1               	clrf	(_passagem+1)^(0+256)
  2858  02B9                     l3448:
  2859                           
  2860                           ;main.c: 421:                 cicloLED=13000;
  2861  02B9  30C8               	movlw	200
  2862  02BA  00E2               	movwf	_cicloLED^(0+256)
  2863  02BB  3032               	movlw	50
  2864  02BC  00E3               	movwf	(_cicloLED^(0+256)+1)
  2865  02BD                     l3450:
  2866                           
  2867                           ;main.c: 426:         if (fRetLora)
  2868  02BD  0021               	movlb	1	; select bank1
  2869  02BE  086F               	movf	_fRetLora^(0+128),w	;volatile
  2870  02BF  1903               	btfsc	3,2
  2871  02C0  2AC2               	goto	u2201
  2872  02C1  2AC3               	goto	u2200
  2873  02C2                     u2201:
  2874  02C2  28FF               	goto	l3330
  2875  02C3                     u2200:
  2876  02C3                     l3452:
  2877                           
  2878                           ;main.c: 427:         {;main.c: 428:             fRetLora=0;
  2879  02C3  01EF               	clrf	_fRetLora^(0+128)	;volatile
  2880                           
  2881                           ;main.c: 429:             fComandoSirene=0;
  2882  02C4  01E0               	clrf	_fComandoSirene^(0+128)	;volatile
  2883                           
  2884                           ;main.c: 430:             indice=0;
  2885  02C5  01FB               	clrf	_indice	;volatile
  2886  02C6                     l3454:
  2887                           
  2888                           ;main.c: 432:             ENDERECO = 9010;
  2889  02C6  3032               	movlw	50
  2890  02C7  0022               	movlb	2	; select bank2
  2891  02C8  00EA               	movwf	_ENDERECO^(0+256)
  2892  02C9  3023               	movlw	35
  2893  02CA  00EB               	movwf	(_ENDERECO^(0+256)+1)
  2894  02CB                     l3456:
  2895                           
  2896                           ;main.c: 434:             __nop();
  2897  02CB  0000               	nop
  2898  02CC                     l3458:
  2899                           
  2900                           ;main.c: 436:             endereco_M = (uint8_t)(ENDERECO/1000);
  2901  02CC  30E8               	movlw	232
  2902  02CD  00F1               	movwf	___lwdiv@divisor
  2903  02CE  3003               	movlw	3
  2904  02CF  00F2               	movwf	___lwdiv@divisor+1
  2905  02D0  3032               	movlw	50
  2906  02D1  00F3               	movwf	___lwdiv@dividend
  2907  02D2  3023               	movlw	35
  2908  02D3  00F4               	movwf	___lwdiv@dividend+1
  2909  02D4  318F  2747  3180   	fcall	___lwdiv
  2910  02D7  0871               	movf	?___lwdiv,w
  2911  02D8  0024               	movlb	4	; select bank4
  2912  02D9  00B5               	movwf	??_main^(0+512)
  2913  02DA  0835               	movf	??_main^(0+512),w
  2914  02DB  0023               	movlb	3	; select bank3
  2915  02DC  00EC               	movwf	_endereco_M^(0+384)	;volatile
  2916  02DD                     l3460:
  2917                           
  2918                           ;main.c: 437:             temp16 = ENDERECO%1000;
  2919  02DD  30E8               	movlw	232
  2920  02DE  00F1               	movwf	___lwmod@divisor
  2921  02DF  3003               	movlw	3
  2922  02E0  00F2               	movwf	___lwmod@divisor+1
  2923  02E1  3032               	movlw	50
  2924  02E2  00F3               	movwf	___lwmod@dividend
  2925  02E3  3023               	movlw	35
  2926  02E4  00F4               	movwf	___lwmod@dividend+1
  2927  02E5  3187  27C5  3180   	fcall	___lwmod
  2928  02E8  0872               	movf	?___lwmod+1,w
  2929  02E9  0023               	movlb	3	; select bank3
  2930  02EA  00E7               	movwf	(_temp16+1)^(0+384)
  2931  02EB  0871               	movf	?___lwmod,w
  2932  02EC  00E6               	movwf	_temp16^(0+384)
  2933  02ED                     l3462:
  2934                           
  2935                           ;main.c: 438:             endereco_C = (uint8_t)(temp16/100);
  2936  02ED  3064               	movlw	100
  2937  02EE  00F1               	movwf	___lwdiv@divisor
  2938  02EF  3000               	movlw	0
  2939  02F0  00F2               	movwf	___lwdiv@divisor+1
  2940  02F1  0867               	movf	(_temp16+1)^(0+384),w
  2941  02F2  00F4               	movwf	___lwdiv@dividend+1
  2942  02F3  0866               	movf	_temp16^(0+384),w
  2943  02F4  00F3               	movwf	___lwdiv@dividend
  2944  02F5  318F  2747  3180   	fcall	___lwdiv
  2945  02F8  0871               	movf	?___lwdiv,w
  2946  02F9  0024               	movlb	4	; select bank4
  2947  02FA  00B5               	movwf	??_main^(0+512)
  2948  02FB  0835               	movf	??_main^(0+512),w
  2949  02FC  0023               	movlb	3	; select bank3
  2950  02FD  00EB               	movwf	_endereco_C^(0+384)	;volatile
  2951  02FE                     l3464:
  2952                           
  2953                           ;main.c: 439:             temp16 = temp16%100;
  2954  02FE  3064               	movlw	100
  2955  02FF  00F1               	movwf	___lwmod@divisor
  2956  0300  3000               	movlw	0
  2957  0301  00F2               	movwf	___lwmod@divisor+1
  2958  0302  0867               	movf	(_temp16+1)^(0+384),w
  2959  0303  00F4               	movwf	___lwmod@dividend+1
  2960  0304  0866               	movf	_temp16^(0+384),w
  2961  0305  00F3               	movwf	___lwmod@dividend
  2962  0306  3187  27C5  3180   	fcall	___lwmod
  2963  0309  0872               	movf	?___lwmod+1,w
  2964  030A  0023               	movlb	3	; select bank3
  2965  030B  00E7               	movwf	(_temp16+1)^(0+384)
  2966  030C  0871               	movf	?___lwmod,w
  2967  030D  00E6               	movwf	_temp16^(0+384)
  2968  030E                     l3466:
  2969                           
  2970                           ;main.c: 440:             endereco_D = (uint8_t)(temp16/10);
  2971  030E  300A               	movlw	10
  2972  030F  00F1               	movwf	___lwdiv@divisor
  2973  0310  3000               	movlw	0
  2974  0311  00F2               	movwf	___lwdiv@divisor+1
  2975  0312  0867               	movf	(_temp16+1)^(0+384),w
  2976  0313  00F4               	movwf	___lwdiv@dividend+1
  2977  0314  0866               	movf	_temp16^(0+384),w
  2978  0315  00F3               	movwf	___lwdiv@dividend
  2979  0316  318F  2747  3180   	fcall	___lwdiv
  2980  0319  0871               	movf	?___lwdiv,w
  2981  031A  0024               	movlb	4	; select bank4
  2982  031B  00B5               	movwf	??_main^(0+512)
  2983  031C  0835               	movf	??_main^(0+512),w
  2984  031D  0023               	movlb	3	; select bank3
  2985  031E  00EF               	movwf	_endereco_D^(0+384)	;volatile
  2986  031F                     l3468:
  2987                           
  2988                           ;main.c: 441:             endereco_U = (uint8_t)(temp16%10);
  2989  031F  300A               	movlw	10
  2990  0320  00F1               	movwf	___lwmod@divisor
  2991  0321  3000               	movlw	0
  2992  0322  00F2               	movwf	___lwmod@divisor+1
  2993  0323  0867               	movf	(_temp16+1)^(0+384),w
  2994  0324  00F4               	movwf	___lwmod@dividend+1
  2995  0325  0866               	movf	_temp16^(0+384),w
  2996  0326  00F3               	movwf	___lwmod@dividend
  2997  0327  3187  27C5  3180   	fcall	___lwmod
  2998  032A  0871               	movf	?___lwmod,w
  2999  032B  0024               	movlb	4	; select bank4
  3000  032C  00B5               	movwf	??_main^(0+512)
  3001  032D  0835               	movf	??_main^(0+512),w
  3002  032E  0023               	movlb	3	; select bank3
  3003  032F  00EA               	movwf	_endereco_U^(0+384)	;volatile
  3004  0330                     l3470:
  3005                           
  3006                           ;main.c: 443:             OFFSET = endereco_C * 100;
  3007  0330  086B               	movf	_endereco_C^(0+384),w	;volatile
  3008  0331  0024               	movlb	4	; select bank4
  3009  0332  00B5               	movwf	??_main^(0+512)
  3010  0333  01B6               	clrf	(??_main^(0+512)+1)
  3011  0334  0835               	movf	??_main^(0+512),w
  3012  0335  00F1               	movwf	___wmul@multiplier
  3013  0336  0836               	movf	(??_main+1)^(0+512),w
  3014  0337  00F2               	movwf	___wmul@multiplier+1
  3015  0338  3064               	movlw	100
  3016  0339  00F3               	movwf	___wmul@multiplicand
  3017  033A  3000               	movlw	0
  3018  033B  00F4               	movwf	___wmul@multiplicand+1
  3019  033C  318D  25CB  3180   	fcall	___wmul
  3020  033F  0872               	movf	?___wmul+1,w
  3021  0340  0022               	movlb	2	; select bank2
  3022  0341  00ED               	movwf	(_OFFSET+1)^(0+256)
  3023  0342  0871               	movf	?___wmul,w
  3024  0343  00EC               	movwf	_OFFSET^(0+256)
  3025  0344                     l3472:
  3026                           
  3027                           ;main.c: 444:             OFFSET += (endereco_D * 10);
  3028  0344  0023               	movlb	3	; select bank3
  3029  0345  086F               	movf	_endereco_D^(0+384),w	;volatile
  3030  0346  0024               	movlb	4	; select bank4
  3031  0347  00B5               	movwf	??_main^(0+512)
  3032  0348  01B6               	clrf	(??_main^(0+512)+1)
  3033  0349  0835               	movf	??_main^(0+512),w
  3034  034A  00F1               	movwf	___wmul@multiplier
  3035  034B  0836               	movf	(??_main+1)^(0+512),w
  3036  034C  00F2               	movwf	___wmul@multiplier+1
  3037  034D  300A               	movlw	10
  3038  034E  00F3               	movwf	___wmul@multiplicand
  3039  034F  3000               	movlw	0
  3040  0350  00F4               	movwf	___wmul@multiplicand+1
  3041  0351  318D  25CB  3180   	fcall	___wmul
  3042  0354  0871               	movf	?___wmul,w
  3043  0355  0022               	movlb	2	; select bank2
  3044  0356  07EC               	addwf	_OFFSET^(0+256),f
  3045  0357  0872               	movf	?___wmul+1,w
  3046  0358  3DED               	addwfc	(_OFFSET+1)^(0+256),f
  3047  0359                     l3474:
  3048                           
  3049                           ;main.c: 445:             OFFSET += endereco_U;
  3050  0359  0023               	movlb	3	; select bank3
  3051  035A  086A               	movf	_endereco_U^(0+384),w	;volatile
  3052  035B  0024               	movlb	4	; select bank4
  3053  035C  00B5               	movwf	??_main^(0+512)
  3054  035D  01B6               	clrf	(??_main^(0+512)+1)
  3055  035E  0835               	movf	??_main^(0+512),w
  3056  035F  0022               	movlb	2	; select bank2
  3057  0360  07EC               	addwf	_OFFSET^(0+256),f
  3058  0361  0024               	movlb	4	; select bank4
  3059  0362  0836               	movf	(??_main+1)^(0+512),w
  3060  0363  0022               	movlb	2	; select bank2
  3061  0364  3DED               	addwfc	(_OFFSET+1)^(0+256),f
  3062  0365                     l3476:
  3063                           
  3064                           ;main.c: 451:             if (OFFSET<10)
  3065  0365  3000               	movlw	0
  3066  0366  026D               	subwf	(_OFFSET+1)^(0+256),w
  3067  0367  300A               	movlw	10
  3068  0368  1903               	skipnz
  3069  0369  026C               	subwf	_OFFSET^(0+256),w
  3070  036A  1803               	skipnc
  3071  036B  2B6D               	goto	u2211
  3072  036C  2B6E               	goto	u2210
  3073  036D                     u2211:
  3074  036D  2B83               	goto	l3480
  3075  036E                     u2210:
  3076  036E                     l3478:
  3077                           
  3078                           ;main.c: 452:                 TempoDeReplicacao = OFFSET + OFFSET + OFFSET;
  3079  036E  086D               	movf	(_OFFSET+1)^(0+256),w
  3080  036F  0024               	movlb	4	; select bank4
  3081  0370  00B6               	movwf	(??_main^(0+512)+1)
  3082  0371  0022               	movlb	2	; select bank2
  3083  0372  086C               	movf	_OFFSET^(0+256),w
  3084  0373  0024               	movlb	4	; select bank4
  3085  0374  00B5               	movwf	??_main^(0+512)
  3086  0375  35B5               	lslf	??_main^(0+512),f
  3087  0376  0DB6               	rlf	(??_main^(0+512)+1),f
  3088  0377  0022               	movlb	2	; select bank2
  3089  0378  086C               	movf	_OFFSET^(0+256),w
  3090  0379  0024               	movlb	4	; select bank4
  3091  037A  0735               	addwf	??_main^(0+512),w
  3092  037B  0022               	movlb	2	; select bank2
  3093  037C  00E8               	movwf	_TempoDeReplicacao^(0+256)
  3094  037D  086D               	movf	(_OFFSET+1)^(0+256),w
  3095  037E  0024               	movlb	4	; select bank4
  3096  037F  3D36               	addwfc	(??_main+1)^(0+512),w
  3097  0380  0022               	movlb	2	; select bank2
  3098  0381  00E9               	movwf	(_TempoDeReplicacao+1)^(0+256)
  3099  0382  2B87               	goto	l644
  3100  0383                     l3480:
  3101                           
  3102                           ;main.c: 454:                 TempoDeReplicacao = OFFSET;
  3103  0383  086D               	movf	(_OFFSET+1)^(0+256),w
  3104  0384  00E9               	movwf	(_TempoDeReplicacao+1)^(0+256)
  3105  0385  086C               	movf	_OFFSET^(0+256),w
  3106  0386  00E8               	movwf	_TempoDeReplicacao^(0+256)
  3107  0387                     l644:
  3108                           
  3109                           ;main.c: 456:             ENDERECO -= OFFSET;
  3110  0387  086C               	movf	_OFFSET^(0+256),w
  3111  0388  02EA               	subwf	_ENDERECO^(0+256),f
  3112  0389  086D               	movf	(_OFFSET+1)^(0+256),w
  3113  038A  3BEB               	subwfb	(_ENDERECO+1)^(0+256),f
  3114                           
  3115                           ;main.c: 457:             endereco.end16 = ENDERECO;
  3116  038B  086B               	movf	(_ENDERECO+1)^(0+256),w
  3117  038C  0023               	movlb	3	; select bank3
  3118  038D  00E3               	movwf	(_endereco+1)^(0+384)
  3119  038E  0022               	movlb	2	; select bank2
  3120  038F  086A               	movf	_ENDERECO^(0+256),w
  3121  0390  0023               	movlb	3	; select bank3
  3122  0391  00E2               	movwf	_endereco^(0+384)
  3123                           
  3124                           ;main.c: 458:             offset.end16 = OFFSET;
  3125  0392  0022               	movlb	2	; select bank2
  3126  0393  086D               	movf	(_OFFSET+1)^(0+256),w
  3127  0394  0023               	movlb	3	; select bank3
  3128  0395  00E1               	movwf	(_offset+1)^(0+384)
  3129  0396  0022               	movlb	2	; select bank2
  3130  0397  086C               	movf	_OFFSET^(0+256),w
  3131  0398  0023               	movlb	3	; select bank3
  3132  0399  00E0               	movwf	_offset^(0+384)
  3133  039A                     l3482:
  3134                           
  3135                           ;main.c: 459:             __nop();
  3136  039A  0000               	nop
  3137  039B                     l3484:
  3138                           
  3139                           ;main.c: 461:             M_EnderecoRecebido = DadosLora[4]-48;
  3140  039B  0022               	movlb	2	; select bank2
  3141  039C  0824               	movf	(_DadosLora^(0+256)+4),w	;volatile
  3142  039D  3ED0               	addlw	208
  3143  039E  0024               	movlb	4	; select bank4
  3144  039F  00B5               	movwf	??_main^(0+512)
  3145  03A0  0835               	movf	??_main^(0+512),w
  3146  03A1  00A1               	movwf	_M_EnderecoRecebido^(0+512)
  3147  03A2                     l3486:
  3148                           
  3149                           ;main.c: 462:             C_EnderecoRecebido = DadosLora[5]-48;
  3150  03A2  0022               	movlb	2	; select bank2
  3151  03A3  0825               	movf	(_DadosLora^(0+256)+5),w	;volatile
  3152  03A4  3ED0               	addlw	208
  3153  03A5  0024               	movlb	4	; select bank4
  3154  03A6  00B5               	movwf	??_main^(0+512)
  3155  03A7  0835               	movf	??_main^(0+512),w
  3156  03A8  00B2               	movwf	_C_EnderecoRecebido^(0+512)
  3157  03A9                     l3488:
  3158                           
  3159                           ;main.c: 463:             D_EnderecoRecebido = DadosLora[6]-48;
  3160  03A9  0022               	movlb	2	; select bank2
  3161  03AA  0826               	movf	(_DadosLora^(0+256)+6),w	;volatile
  3162  03AB  3ED0               	addlw	208
  3163  03AC  0024               	movlb	4	; select bank4
  3164  03AD  00B5               	movwf	??_main^(0+512)
  3165  03AE  0835               	movf	??_main^(0+512),w
  3166  03AF  00B1               	movwf	_D_EnderecoRecebido^(0+512)
  3167  03B0                     l3490:
  3168                           
  3169                           ;main.c: 464:             U_EnderecoRecebido = DadosLora[7]-48;
  3170  03B0  0022               	movlb	2	; select bank2
  3171  03B1  0827               	movf	(_DadosLora^(0+256)+7),w	;volatile
  3172  03B2  3ED0               	addlw	208
  3173  03B3  0024               	movlb	4	; select bank4
  3174  03B4  00B5               	movwf	??_main^(0+512)
  3175  03B5  0835               	movf	??_main^(0+512),w
  3176  03B6  00A0               	movwf	_U_EnderecoRecebido^(0+512)
  3177  03B7                     l3492:
  3178                           
  3179                           ;main.c: 465:             __nop();
  3180  03B7  0000               	nop
  3181  03B8                     l3494:
  3182                           
  3183                           ;main.c: 466:             enderecoRecebido = M_EnderecoRecebido*1000;
  3184  03B8  0024               	movlb	4	; select bank4
  3185  03B9  0821               	movf	_M_EnderecoRecebido^(0+512),w
  3186  03BA  00B5               	movwf	??_main^(0+512)
  3187  03BB  01B6               	clrf	(??_main^(0+512)+1)
  3188  03BC  0835               	movf	??_main^(0+512),w
  3189  03BD  00F1               	movwf	___wmul@multiplier
  3190  03BE  0836               	movf	(??_main+1)^(0+512),w
  3191  03BF  00F2               	movwf	___wmul@multiplier+1
  3192  03C0  30E8               	movlw	232
  3193  03C1  00F3               	movwf	___wmul@multiplicand
  3194  03C2  3003               	movlw	3
  3195  03C3  00F4               	movwf	___wmul@multiplicand+1
  3196  03C4  318D  25CB  3180   	fcall	___wmul
  3197  03C7  0872               	movf	?___wmul+1,w
  3198  03C8  0023               	movlb	3	; select bank3
  3199  03C9  00E5               	movwf	(_enderecoRecebido+1)^(0+384)
  3200  03CA  0871               	movf	?___wmul,w
  3201  03CB  00E4               	movwf	_enderecoRecebido^(0+384)
  3202  03CC                     l3496:
  3203                           
  3204                           ;main.c: 467:             enderecoRecebido += C_EnderecoRecebido*100;
  3205  03CC  0024               	movlb	4	; select bank4
  3206  03CD  0832               	movf	_C_EnderecoRecebido^(0+512),w
  3207  03CE  00B5               	movwf	??_main^(0+512)
  3208  03CF  01B6               	clrf	(??_main^(0+512)+1)
  3209  03D0  0835               	movf	??_main^(0+512),w
  3210  03D1  00F1               	movwf	___wmul@multiplier
  3211  03D2  0836               	movf	(??_main+1)^(0+512),w
  3212  03D3  00F2               	movwf	___wmul@multiplier+1
  3213  03D4  3064               	movlw	100
  3214  03D5  00F3               	movwf	___wmul@multiplicand
  3215  03D6  3000               	movlw	0
  3216  03D7  00F4               	movwf	___wmul@multiplicand+1
  3217  03D8  318D  25CB  3180   	fcall	___wmul
  3218  03DB  0871               	movf	?___wmul,w
  3219  03DC  0023               	movlb	3	; select bank3
  3220  03DD  07E4               	addwf	_enderecoRecebido^(0+384),f
  3221  03DE  0872               	movf	?___wmul+1,w
  3222  03DF  3DE5               	addwfc	(_enderecoRecebido+1)^(0+384),f
  3223  03E0                     l3498:
  3224                           
  3225                           ;main.c: 468:             enderecoRecebido += D_EnderecoRecebido*10;
  3226  03E0  0024               	movlb	4	; select bank4
  3227  03E1  0831               	movf	_D_EnderecoRecebido^(0+512),w
  3228  03E2  00B5               	movwf	??_main^(0+512)
  3229  03E3  01B6               	clrf	(??_main^(0+512)+1)
  3230  03E4  0835               	movf	??_main^(0+512),w
  3231  03E5  00F1               	movwf	___wmul@multiplier
  3232  03E6  0836               	movf	(??_main+1)^(0+512),w
  3233  03E7  00F2               	movwf	___wmul@multiplier+1
  3234  03E8  300A               	movlw	10
  3235  03E9  00F3               	movwf	___wmul@multiplicand
  3236  03EA  3000               	movlw	0
  3237  03EB  00F4               	movwf	___wmul@multiplicand+1
  3238  03EC  318D  25CB  3180   	fcall	___wmul
  3239  03EF  0871               	movf	?___wmul,w
  3240  03F0  0023               	movlb	3	; select bank3
  3241  03F1  07E4               	addwf	_enderecoRecebido^(0+384),f
  3242  03F2  0872               	movf	?___wmul+1,w
  3243  03F3  3DE5               	addwfc	(_enderecoRecebido+1)^(0+384),f
  3244  03F4                     l3500:
  3245                           
  3246                           ;main.c: 469:             enderecoRecebido += U_EnderecoRecebido;
  3247  03F4  0024               	movlb	4	; select bank4
  3248  03F5  0820               	movf	_U_EnderecoRecebido^(0+512),w
  3249  03F6  00B5               	movwf	??_main^(0+512)
  3250  03F7  01B6               	clrf	(??_main^(0+512)+1)
  3251  03F8  0835               	movf	??_main^(0+512),w
  3252  03F9  0023               	movlb	3	; select bank3
  3253  03FA  07E4               	addwf	_enderecoRecebido^(0+384),f
  3254  03FB  0024               	movlb	4	; select bank4
  3255  03FC  0836               	movf	(??_main+1)^(0+512),w
  3256  03FD  0023               	movlb	3	; select bank3
  3257  03FE  3DE5               	addwfc	(_enderecoRecebido+1)^(0+384),f
  3258  03FF                     l3502:
  3259                           
  3260                           ;main.c: 470:             __nop();
  3261  03FF  0000               	nop
  3262  0400                     l3504:
  3263                           
  3264                           ;main.c: 472:             pacoteTRX[ 0] = DadosLora[ 2];
  3265  0400  0022               	movlb	2	; select bank2
  3266  0401  0822               	movf	(_DadosLora^(0+256)+2),w	;volatile
  3267  0402  0024               	movlb	4	; select bank4
  3268  0403  00B5               	movwf	??_main^(0+512)
  3269  0404  0835               	movf	??_main^(0+512),w
  3270  0405  0021               	movlb	1	; select bank1
  3271  0406  00C0               	movwf	_pacoteTRX^(0+128)	;volatile
  3272  0407                     l3506:
  3273                           
  3274                           ;main.c: 473:             pacoteTRX[ 1] = DadosLora[ 3];
  3275  0407  0022               	movlb	2	; select bank2
  3276  0408  0823               	movf	(_DadosLora^(0+256)+3),w	;volatile
  3277  0409  0024               	movlb	4	; select bank4
  3278  040A  00B5               	movwf	??_main^(0+512)
  3279  040B  0835               	movf	??_main^(0+512),w
  3280  040C  0021               	movlb	1	; select bank1
  3281  040D  00C1               	movwf	(_pacoteTRX^(0+128)+1)	;volatile
  3282  040E                     l3508:
  3283                           
  3284                           ;main.c: 474:             pacoteTRX[ 2] = DadosLora[ 4];
  3285  040E  0022               	movlb	2	; select bank2
  3286  040F  0824               	movf	(_DadosLora^(0+256)+4),w	;volatile
  3287  0410  0024               	movlb	4	; select bank4
  3288  0411  00B5               	movwf	??_main^(0+512)
  3289  0412  0835               	movf	??_main^(0+512),w
  3290  0413  0021               	movlb	1	; select bank1
  3291  0414  00C2               	movwf	(_pacoteTRX^(0+128)+2)	;volatile
  3292  0415                     l3510:
  3293                           
  3294                           ;main.c: 475:             pacoteTRX[ 3] = DadosLora[ 5];
  3295  0415  0022               	movlb	2	; select bank2
  3296  0416  0825               	movf	(_DadosLora^(0+256)+5),w	;volatile
  3297  0417  0024               	movlb	4	; select bank4
  3298  0418  00B5               	movwf	??_main^(0+512)
  3299  0419  0835               	movf	??_main^(0+512),w
  3300  041A  0021               	movlb	1	; select bank1
  3301  041B  00C3               	movwf	(_pacoteTRX^(0+128)+3)	;volatile
  3302  041C                     l3512:
  3303                           
  3304                           ;main.c: 476:             pacoteTRX[ 4] = DadosLora[ 6];
  3305  041C  0022               	movlb	2	; select bank2
  3306  041D  0826               	movf	(_DadosLora^(0+256)+6),w	;volatile
  3307  041E  0024               	movlb	4	; select bank4
  3308  041F  00B5               	movwf	??_main^(0+512)
  3309  0420  0835               	movf	??_main^(0+512),w
  3310  0421  0021               	movlb	1	; select bank1
  3311  0422  00C4               	movwf	(_pacoteTRX^(0+128)+4)	;volatile
  3312  0423                     l3514:
  3313                           
  3314                           ;main.c: 477:             pacoteTRX[ 5] = DadosLora[ 7];
  3315  0423  0022               	movlb	2	; select bank2
  3316  0424  0827               	movf	(_DadosLora^(0+256)+7),w	;volatile
  3317  0425  0024               	movlb	4	; select bank4
  3318  0426  00B5               	movwf	??_main^(0+512)
  3319  0427  0835               	movf	??_main^(0+512),w
  3320  0428  0021               	movlb	1	; select bank1
  3321  0429  00C5               	movwf	(_pacoteTRX^(0+128)+5)	;volatile
  3322  042A                     l3516:
  3323                           
  3324                           ;main.c: 478:             pacoteTRX[ 6] = DadosLora[ 8];
  3325  042A  0022               	movlb	2	; select bank2
  3326  042B  0828               	movf	(_DadosLora^(0+256)+8),w	;volatile
  3327  042C  0024               	movlb	4	; select bank4
  3328  042D  00B5               	movwf	??_main^(0+512)
  3329  042E  0835               	movf	??_main^(0+512),w
  3330  042F  0021               	movlb	1	; select bank1
  3331  0430  00C6               	movwf	(_pacoteTRX^(0+128)+6)	;volatile
  3332  0431                     l3518:
  3333                           
  3334                           ;main.c: 479:             pacoteTRX[ 7] = DadosLora[ 9];
  3335  0431  0022               	movlb	2	; select bank2
  3336  0432  0829               	movf	(_DadosLora^(0+256)+9),w	;volatile
  3337  0433  0024               	movlb	4	; select bank4
  3338  0434  00B5               	movwf	??_main^(0+512)
  3339  0435  0835               	movf	??_main^(0+512),w
  3340  0436  0021               	movlb	1	; select bank1
  3341  0437  00C7               	movwf	(_pacoteTRX^(0+128)+7)	;volatile
  3342  0438                     l3520:
  3343                           
  3344                           ;main.c: 480:             pacoteTRX[ 8] = DadosLora[10];
  3345  0438  0022               	movlb	2	; select bank2
  3346  0439  082A               	movf	(_DadosLora^(0+256)+10),w	;volatile
  3347  043A  0024               	movlb	4	; select bank4
  3348  043B  00B5               	movwf	??_main^(0+512)
  3349  043C  0835               	movf	??_main^(0+512),w
  3350  043D  0021               	movlb	1	; select bank1
  3351  043E  00C8               	movwf	(_pacoteTRX^(0+128)+8)	;volatile
  3352  043F                     l3522:
  3353                           
  3354                           ;main.c: 481:             pacoteTRX[ 9] = DadosLora[11];
  3355  043F  0022               	movlb	2	; select bank2
  3356  0440  082B               	movf	(_DadosLora^(0+256)+11),w	;volatile
  3357  0441  0024               	movlb	4	; select bank4
  3358  0442  00B5               	movwf	??_main^(0+512)
  3359  0443  0835               	movf	??_main^(0+512),w
  3360  0444  0021               	movlb	1	; select bank1
  3361  0445  00C9               	movwf	(_pacoteTRX^(0+128)+9)	;volatile
  3362  0446                     l3524:
  3363                           
  3364                           ;main.c: 482:             pacoteTRX[10] = DadosLora[12];
  3365  0446  0022               	movlb	2	; select bank2
  3366  0447  082C               	movf	(_DadosLora^(0+256)+12),w	;volatile
  3367  0448  0024               	movlb	4	; select bank4
  3368  0449  00B5               	movwf	??_main^(0+512)
  3369  044A  0835               	movf	??_main^(0+512),w
  3370  044B  0021               	movlb	1	; select bank1
  3371  044C  00CA               	movwf	(_pacoteTRX^(0+128)+10)	;volatile
  3372  044D                     l3526:
  3373                           
  3374                           ;main.c: 483:             pacoteTRX[11] = DadosLora[13];
  3375  044D  0022               	movlb	2	; select bank2
  3376  044E  082D               	movf	(_DadosLora^(0+256)+13),w	;volatile
  3377  044F  0024               	movlb	4	; select bank4
  3378  0450  00B5               	movwf	??_main^(0+512)
  3379  0451  0835               	movf	??_main^(0+512),w
  3380  0452  0021               	movlb	1	; select bank1
  3381  0453  00CB               	movwf	(_pacoteTRX^(0+128)+11)	;volatile
  3382  0454                     l3528:
  3383                           
  3384                           ;main.c: 484:             pacoteTRX[12] = DadosLora[14];
  3385  0454  0022               	movlb	2	; select bank2
  3386  0455  082E               	movf	(_DadosLora^(0+256)+14),w	;volatile
  3387  0456  0024               	movlb	4	; select bank4
  3388  0457  00B5               	movwf	??_main^(0+512)
  3389  0458  0835               	movf	??_main^(0+512),w
  3390  0459  0021               	movlb	1	; select bank1
  3391  045A  00CC               	movwf	(_pacoteTRX^(0+128)+12)	;volatile
  3392  045B                     l3530:
  3393                           
  3394                           ;main.c: 485:             pacoteTRX[13] = DadosLora[15];
  3395  045B  0022               	movlb	2	; select bank2
  3396  045C  082F               	movf	(_DadosLora^(0+256)+15),w	;volatile
  3397  045D  0024               	movlb	4	; select bank4
  3398  045E  00B5               	movwf	??_main^(0+512)
  3399  045F  0835               	movf	??_main^(0+512),w
  3400  0460  0021               	movlb	1	; select bank1
  3401  0461  00CD               	movwf	(_pacoteTRX^(0+128)+13)	;volatile
  3402  0462                     l3532:
  3403                           
  3404                           ;main.c: 486:             __nop();
  3405  0462  0000               	nop
  3406  0463                     l3534:
  3407                           
  3408                           ;main.c: 489:             if ( enderecoRecebido == endereco.end16 )
  3409  0463  0023               	movlb	3	; select bank3
  3410  0464  0865               	movf	(_enderecoRecebido+1)^(0+384),w
  3411  0465  0663               	xorwf	(_endereco+1)^(0+384),w
  3412  0466  1D03               	skipz
  3413  0467  2C6A               	goto	u2225
  3414  0468  0864               	movf	_enderecoRecebido^(0+384),w
  3415  0469  0662               	xorwf	_endereco^(0+384),w
  3416  046A                     u2225:
  3417  046A  1D03               	skipz
  3418  046B  2C6D               	goto	u2221
  3419  046C  2C6E               	goto	u2220
  3420  046D                     u2221:
  3421  046D  2C74               	goto	l645
  3422  046E                     u2220:
  3423  046E                     l3536:
  3424                           
  3425                           ;main.c: 490:                 fComandoSirene=1;
  3426  046E  3001               	movlw	1
  3427  046F  0024               	movlb	4	; select bank4
  3428  0470  00B5               	movwf	??_main^(0+512)
  3429  0471  0835               	movf	??_main^(0+512),w
  3430  0472  0021               	movlb	1	; select bank1
  3431  0473  00E0               	movwf	_fComandoSirene^(0+128)	;volatile
  3432  0474                     l645:
  3433                           
  3434                           ;main.c: 493:             endereco.end16 += offset.end16;
  3435  0474  0023               	movlb	3	; select bank3
  3436  0475  0860               	movf	_offset^(0+384),w
  3437  0476  07E2               	addwf	_endereco^(0+384),f
  3438  0477  0861               	movf	(_offset+1)^(0+384),w
  3439  0478  3DE3               	addwfc	(_endereco+1)^(0+384),f
  3440                           
  3441                           ;main.c: 494:             if ( enderecoRecebido == endereco.end16 )
  3442  0479  0865               	movf	(_enderecoRecebido+1)^(0+384),w
  3443  047A  0663               	xorwf	(_endereco+1)^(0+384),w
  3444  047B  1D03               	skipz
  3445  047C  2C7F               	goto	u2235
  3446  047D  0864               	movf	_enderecoRecebido^(0+384),w
  3447  047E  0662               	xorwf	_endereco^(0+384),w
  3448  047F                     u2235:
  3449  047F  1D03               	skipz
  3450  0480  2C82               	goto	u2231
  3451  0481  2C83               	goto	u2230
  3452  0482                     u2231:
  3453  0482  2C89               	goto	l3540
  3454  0483                     u2230:
  3455  0483                     l3538:
  3456                           
  3457                           ;main.c: 495:                 fComandoSirene=1;
  3458  0483  3001               	movlw	1
  3459  0484  0024               	movlb	4	; select bank4
  3460  0485  00B5               	movwf	??_main^(0+512)
  3461  0486  0835               	movf	??_main^(0+512),w
  3462  0487  0021               	movlb	1	; select bank1
  3463  0488  00E0               	movwf	_fComandoSirene^(0+128)	;volatile
  3464  0489                     l3540:
  3465                           
  3466                           ;main.c: 497:             if (fComandoSirene)
  3467  0489  0021               	movlb	1	; select bank1
  3468  048A  0860               	movf	_fComandoSirene^(0+128),w	;volatile
  3469  048B  1903               	btfsc	3,2
  3470  048C  2C8E               	goto	u2241
  3471  048D  2C8F               	goto	u2240
  3472  048E                     u2241:
  3473  048E  2D06               	goto	l3596
  3474  048F                     u2240:
  3475  048F                     l3542:
  3476                           
  3477                           ;main.c: 498:             {;main.c: 499:                 __nop();
  3478  048F  0000               	nop
  3479                           
  3480                           ;main.c: 500:                 __nop();
  3481  0490  0000               	nop
  3482  0491                     l3544:
  3483                           
  3484                           ;main.c: 501:                 fComandoSirene=0;
  3485  0491  0021               	movlb	1	; select bank1
  3486  0492  01E0               	clrf	_fComandoSirene^(0+128)	;volatile
  3487  0493                     l3546:
  3488                           
  3489                           ;main.c: 504:                 if ( (DadosLora[ 8] == '1')&&
  3490  0493  3031               	movlw	49
  3491  0494  0022               	movlb	2	; select bank2
  3492  0495  0628               	xorwf	(_DadosLora^(0+256)+8),w	;volatile
  3493  0496  1D03               	btfss	3,2
  3494  0497  2C99               	goto	u2251
  3495  0498  2C9A               	goto	u2250
  3496  0499                     u2251:
  3497  0499  2CCF               	goto	l3570
  3498  049A                     u2250:
  3499  049A                     l3548:
  3500  049A  3031               	movlw	49
  3501  049B  0629               	xorwf	(_DadosLora^(0+256)+9),w	;volatile
  3502  049C  1D03               	btfss	3,2
  3503  049D  2C9F               	goto	u2261
  3504  049E  2CA0               	goto	u2260
  3505  049F                     u2261:
  3506  049F  2CCF               	goto	l3570
  3507  04A0                     u2260:
  3508  04A0                     l3550:
  3509  04A0  3032               	movlw	50
  3510  04A1  062A               	xorwf	(_DadosLora^(0+256)+10),w	;volatile
  3511  04A2  1D03               	btfss	3,2
  3512  04A3  2CA5               	goto	u2271
  3513  04A4  2CA6               	goto	u2270
  3514  04A5                     u2271:
  3515  04A5  2CCF               	goto	l3570
  3516  04A6                     u2270:
  3517  04A6                     l3552:
  3518  04A6  3032               	movlw	50
  3519  04A7  062B               	xorwf	(_DadosLora^(0+256)+11),w	;volatile
  3520  04A8  1D03               	btfss	3,2
  3521  04A9  2CAB               	goto	u2281
  3522  04AA  2CAC               	goto	u2280
  3523  04AB                     u2281:
  3524  04AB  2CCF               	goto	l3570
  3525  04AC                     u2280:
  3526  04AC                     l3554:
  3527  04AC  3033               	movlw	51
  3528  04AD  062C               	xorwf	(_DadosLora^(0+256)+12),w	;volatile
  3529  04AE  1D03               	btfss	3,2
  3530  04AF  2CB1               	goto	u2291
  3531  04B0  2CB2               	goto	u2290
  3532  04B1                     u2291:
  3533  04B1  2CCF               	goto	l3570
  3534  04B2                     u2290:
  3535  04B2                     l3556:
  3536  04B2  3033               	movlw	51
  3537  04B3  062D               	xorwf	(_DadosLora^(0+256)+13),w	;volatile
  3538  04B4  1D03               	btfss	3,2
  3539  04B5  2CB7               	goto	u2301
  3540  04B6  2CB8               	goto	u2300
  3541  04B7                     u2301:
  3542  04B7  2CCF               	goto	l3570
  3543  04B8                     u2300:
  3544  04B8                     l3558:
  3545                           
  3546                           ;main.c: 510:                 {;main.c: 511:                     __nop();
  3547  04B8  0000               	nop
  3548                           
  3549                           ;main.c: 512:                     __nop();
  3550  04B9  0000               	nop
  3551  04BA                     l3560:
  3552                           
  3553                           ;main.c: 513:                     fLigado = 1;
  3554  04BA  3001               	movlw	1
  3555  04BB  0024               	movlb	4	; select bank4
  3556  04BC  00B5               	movwf	??_main^(0+512)
  3557  04BD  0835               	movf	??_main^(0+512),w
  3558  04BE  0021               	movlb	1	; select bank1
  3559  04BF  00E2               	movwf	_fLigado^(0+128)	;volatile
  3560                           
  3561                           ;main.c: 514:                     fRTX=1;
  3562  04C0  3001               	movlw	1
  3563  04C1  0024               	movlb	4	; select bank4
  3564  04C2  00B5               	movwf	??_main^(0+512)
  3565  04C3  0835               	movf	??_main^(0+512),w
  3566  04C4  0021               	movlb	1	; select bank1
  3567  04C5  00E1               	movwf	_fRTX^(0+128)	;volatile
  3568  04C6                     l3562:
  3569  04C6  0022               	movlb	2	; select bank2
  3570  04C7  170C               	bsf	12,6	;volatile
  3571  04C8                     l3564:
  3572                           
  3573                           ;main.c: 516:                     cicloLED=0;
  3574  04C8  01E2               	clrf	_cicloLED^(0+256)
  3575  04C9  01E3               	clrf	(_cicloLED+1)^(0+256)
  3576  04CA                     l3566:
  3577                           
  3578                           ;main.c: 517:                     tempoRTX=0;
  3579  04CA  0023               	movlb	3	; select bank3
  3580  04CB  01E8               	clrf	_tempoRTX^(0+384)
  3581  04CC  01E9               	clrf	(_tempoRTX+1)^(0+384)
  3582  04CD                     l3568:
  3583  04CD  0022               	movlb	2	; select bank2
  3584  04CE  140C               	bsf	12,0	;volatile
  3585  04CF                     l3570:
  3586                           
  3587                           ;main.c: 522:                 if ( (DadosLora[ 8] == '4')&&
  3588  04CF  3034               	movlw	52
  3589  04D0  0628               	xorwf	(_DadosLora^(0+256)+8),w	;volatile
  3590  04D1  1D03               	btfss	3,2
  3591  04D2  2CD4               	goto	u2311
  3592  04D3  2CD5               	goto	u2310
  3593  04D4                     u2311:
  3594  04D4  2D06               	goto	l3596
  3595  04D5                     u2310:
  3596  04D5                     l3572:
  3597  04D5  3034               	movlw	52
  3598  04D6  0629               	xorwf	(_DadosLora^(0+256)+9),w	;volatile
  3599  04D7  1D03               	btfss	3,2
  3600  04D8  2CDA               	goto	u2321
  3601  04D9  2CDB               	goto	u2320
  3602  04DA                     u2321:
  3603  04DA  2D06               	goto	l3596
  3604  04DB                     u2320:
  3605  04DB                     l3574:
  3606  04DB  3035               	movlw	53
  3607  04DC  062A               	xorwf	(_DadosLora^(0+256)+10),w	;volatile
  3608  04DD  1D03               	btfss	3,2
  3609  04DE  2CE0               	goto	u2331
  3610  04DF  2CE1               	goto	u2330
  3611  04E0                     u2331:
  3612  04E0  2D06               	goto	l3596
  3613  04E1                     u2330:
  3614  04E1                     l3576:
  3615  04E1  3035               	movlw	53
  3616  04E2  062B               	xorwf	(_DadosLora^(0+256)+11),w	;volatile
  3617  04E3  1D03               	btfss	3,2
  3618  04E4  2CE6               	goto	u2341
  3619  04E5  2CE7               	goto	u2340
  3620  04E6                     u2341:
  3621  04E6  2D06               	goto	l3596
  3622  04E7                     u2340:
  3623  04E7                     l3578:
  3624  04E7  3036               	movlw	54
  3625  04E8  062C               	xorwf	(_DadosLora^(0+256)+12),w	;volatile
  3626  04E9  1D03               	btfss	3,2
  3627  04EA  2CEC               	goto	u2351
  3628  04EB  2CED               	goto	u2350
  3629  04EC                     u2351:
  3630  04EC  2D06               	goto	l3596
  3631  04ED                     u2350:
  3632  04ED                     l3580:
  3633  04ED  3036               	movlw	54
  3634  04EE  062D               	xorwf	(_DadosLora^(0+256)+13),w	;volatile
  3635  04EF  1D03               	btfss	3,2
  3636  04F0  2CF2               	goto	u2361
  3637  04F1  2CF3               	goto	u2360
  3638  04F2                     u2361:
  3639  04F2  2D06               	goto	l3596
  3640  04F3                     u2360:
  3641  04F3                     l3582:
  3642                           
  3643                           ;main.c: 528:                 {;main.c: 529:                     __nop();
  3644  04F3  0000               	nop
  3645                           
  3646                           ;main.c: 530:                     __nop();
  3647  04F4  0000               	nop
  3648  04F5                     l3584:
  3649                           
  3650                           ;main.c: 531:                     fLigado=0;
  3651  04F5  0021               	movlb	1	; select bank1
  3652  04F6  01E2               	clrf	_fLigado^(0+128)	;volatile
  3653  04F7                     l3586:
  3654                           
  3655                           ;main.c: 532:                     fRTX=1;
  3656  04F7  3001               	movlw	1
  3657  04F8  0024               	movlb	4	; select bank4
  3658  04F9  00B5               	movwf	??_main^(0+512)
  3659  04FA  0835               	movf	??_main^(0+512),w
  3660  04FB  0021               	movlb	1	; select bank1
  3661  04FC  00E1               	movwf	_fRTX^(0+128)	;volatile
  3662  04FD                     l3588:
  3663  04FD  0022               	movlb	2	; select bank2
  3664  04FE  170C               	bsf	12,6	;volatile
  3665  04FF                     l3590:
  3666                           
  3667                           ;main.c: 534:                     cicloLED=0;
  3668  04FF  01E2               	clrf	_cicloLED^(0+256)
  3669  0500  01E3               	clrf	(_cicloLED+1)^(0+256)
  3670  0501                     l3592:
  3671                           
  3672                           ;main.c: 535:                     tempoRTX=0;
  3673  0501  0023               	movlb	3	; select bank3
  3674  0502  01E8               	clrf	_tempoRTX^(0+384)
  3675  0503  01E9               	clrf	(_tempoRTX+1)^(0+384)
  3676  0504                     l3594:
  3677  0504  0022               	movlb	2	; select bank2
  3678  0505  100C               	bcf	12,0	;volatile
  3679  0506                     l3596:
  3680                           
  3681                           ;main.c: 541:             SM_CFOFF();
  3682  0506  318E  26B5  3180   	fcall	_SM_CFOFF
  3683  0509                     l3598:
  3684                           
  3685                           ;main.c: 542:             __nop();
  3686  0509  0000               	nop
  3687  050A                     l3600:
  3688                           
  3689                           ;main.c: 543:             SM_CONFIGRADIO(22);
  3690  050A  3016               	movlw	22
  3691  050B  318E  26E4  3180   	fcall	_SM_CONFIGRADIO
  3692  050E                     l3602:
  3693                           
  3694                           ;main.c: 544:             __nop();
  3695  050E  0000               	nop
  3696  050F                     l3604:
  3697                           
  3698                           ;main.c: 545:             SM_MODORX(22);
  3699  050F  3016               	movlw	22
  3700  0510  318E  2657  3180   	fcall	_SM_MODORX
  3701  0513  28FE               	goto	l3328
  3702  0514  3180  282C         	ljmp	start
  3703  0516                     __end_of_main:
  3704                           
  3705                           	psect	text1
  3706  0DCB                     __ptext1:	
  3707 ;; *************** function ___wmul *****************
  3708 ;; Defined at:
  3709 ;;		line 15 in file "C:\Program Files\Microchip\xc8\v2.36\pic\sources\c99\common\Umul16.c"
  3710 ;; Parameters:    Size  Location     Type
  3711 ;;  multiplier      2    1[COMMON] unsigned int 
  3712 ;;  multiplicand    2    3[COMMON] unsigned int 
  3713 ;; Auto vars:     Size  Location     Type
  3714 ;;  product         2    5[COMMON] unsigned int 
  3715 ;; Return value:  Size  Location     Type
  3716 ;;                  2    1[COMMON] unsigned int 
  3717 ;; Registers used:
  3718 ;;		wreg, status,2, status,0
  3719 ;; Tracked objects:
  3720 ;;		On entry : 0/0
  3721 ;;		On exit  : 0/0
  3722 ;;		Unchanged: 0/0
  3723 ;; Data sizes:     COMMON   BANK0   BANK1   BANK2   BANK3   BANK4
  3724 ;;      Params:         4       0       0       0       0       0
  3725 ;;      Locals:         2       0       0       0       0       0
  3726 ;;      Temps:          0       0       0       0       0       0
  3727 ;;      Totals:         6       0       0       0       0       0
  3728 ;;Total ram usage:        6 bytes
  3729 ;; Hardware stack levels used: 1
  3730 ;; Hardware stack levels required when called: 4
  3731 ;; This function calls:
  3732 ;;		Nothing
  3733 ;; This function is called by:
  3734 ;;		_main
  3735 ;; This function uses a non-reentrant model
  3736 ;;
  3737                           
  3738  0DCB                     ___wmul:	
  3739                           ;psect for function ___wmul
  3740                           
  3741  0DCB                     l2762:	
  3742                           ;incstack = 0
  3743                           ; Regs used in ___wmul: [wreg+status,2+status,0]
  3744                           
  3745  0DCB  01F5               	clrf	___wmul@product
  3746  0DCC  01F6               	clrf	___wmul@product+1
  3747  0DCD                     l2764:
  3748  0DCD  1C71               	btfss	___wmul@multiplier,0
  3749  0DCE  2DD0               	goto	u1491
  3750  0DCF  2DD1               	goto	u1490
  3751  0DD0                     u1491:
  3752  0DD0  2DD5               	goto	l810
  3753  0DD1                     u1490:
  3754  0DD1                     l2766:
  3755  0DD1  0873               	movf	___wmul@multiplicand,w
  3756  0DD2  07F5               	addwf	___wmul@product,f
  3757  0DD3  0874               	movf	___wmul@multiplicand+1,w
  3758  0DD4  3DF6               	addwfc	___wmul@product+1,f
  3759  0DD5                     l810:
  3760  0DD5  3001               	movlw	1
  3761  0DD6                     u1505:
  3762  0DD6  35F3               	lslf	___wmul@multiplicand,f
  3763  0DD7  0DF4               	rlf	___wmul@multiplicand+1,f
  3764  0DD8  0B89               	decfsz	9,f
  3765  0DD9  2DD6               	goto	u1505
  3766  0DDA                     l2768:
  3767  0DDA  3001               	movlw	1
  3768  0DDB                     u1515:
  3769  0DDB  36F2               	lsrf	___wmul@multiplier+1,f
  3770  0DDC  0CF1               	rrf	___wmul@multiplier,f
  3771  0DDD  0B89               	decfsz	9,f
  3772  0DDE  2DDB               	goto	u1515
  3773  0DDF                     l2770:
  3774  0DDF  0871               	movf	___wmul@multiplier,w
  3775  0DE0  0472               	iorwf	___wmul@multiplier+1,w
  3776  0DE1  1D03               	btfss	3,2
  3777  0DE2  2DE4               	goto	u1521
  3778  0DE3  2DE5               	goto	u1520
  3779  0DE4                     u1521:
  3780  0DE4  2DCD               	goto	l2764
  3781  0DE5                     u1520:
  3782  0DE5                     l2772:
  3783  0DE5  0876               	movf	___wmul@product+1,w
  3784  0DE6  00F2               	movwf	?___wmul+1
  3785  0DE7  0875               	movf	___wmul@product,w
  3786  0DE8  00F1               	movwf	?___wmul
  3787  0DE9                     l812:
  3788  0DE9  0008               	return
  3789  0DEA                     __end_of___wmul:
  3790                           
  3791                           	psect	text2
  3792  07C5                     __ptext2:	
  3793 ;; *************** function ___lwmod *****************
  3794 ;; Defined at:
  3795 ;;		line 5 in file "C:\Program Files\Microchip\xc8\v2.36\pic\sources\c99\common\lwmod.c"
  3796 ;; Parameters:    Size  Location     Type
  3797 ;;  divisor         2    1[COMMON] unsigned int 
  3798 ;;  dividend        2    3[COMMON] unsigned int 
  3799 ;; Auto vars:     Size  Location     Type
  3800 ;;  counter         1    6[COMMON] unsigned char 
  3801 ;; Return value:  Size  Location     Type
  3802 ;;                  2    1[COMMON] unsigned int 
  3803 ;; Registers used:
  3804 ;;		wreg, status,2, status,0
  3805 ;; Tracked objects:
  3806 ;;		On entry : 0/0
  3807 ;;		On exit  : 0/0
  3808 ;;		Unchanged: 0/0
  3809 ;; Data sizes:     COMMON   BANK0   BANK1   BANK2   BANK3   BANK4
  3810 ;;      Params:         4       0       0       0       0       0
  3811 ;;      Locals:         1       0       0       0       0       0
  3812 ;;      Temps:          1       0       0       0       0       0
  3813 ;;      Totals:         6       0       0       0       0       0
  3814 ;;Total ram usage:        6 bytes
  3815 ;; Hardware stack levels used: 1
  3816 ;; Hardware stack levels required when called: 4
  3817 ;; This function calls:
  3818 ;;		Nothing
  3819 ;; This function is called by:
  3820 ;;		_main
  3821 ;; This function uses a non-reentrant model
  3822 ;;
  3823                           
  3824  07C5                     ___lwmod:	
  3825                           ;psect for function ___lwmod
  3826                           
  3827  07C5                     l2802:	
  3828                           ;incstack = 0
  3829                           ; Regs used in ___lwmod: [wreg+status,2+status,0]
  3830                           
  3831  07C5  0871               	movf	___lwmod@divisor,w
  3832  07C6  0472               	iorwf	___lwmod@divisor+1,w
  3833  07C7  1903               	btfsc	3,2
  3834  07C8  2FCA               	goto	u1601
  3835  07C9  2FCB               	goto	u1600
  3836  07CA                     u1601:
  3837  07CA  2FF4               	goto	l2820
  3838  07CB                     u1600:
  3839  07CB                     l2804:
  3840  07CB  01F6               	clrf	___lwmod@counter
  3841  07CC  0AF6               	incf	___lwmod@counter,f
  3842  07CD  2FD7               	goto	l2810
  3843  07CE                     l2806:
  3844  07CE  3001               	movlw	1
  3845  07CF                     u1615:
  3846  07CF  35F1               	lslf	___lwmod@divisor,f
  3847  07D0  0DF2               	rlf	___lwmod@divisor+1,f
  3848  07D1  0B89               	decfsz	9,f
  3849  07D2  2FCF               	goto	u1615
  3850  07D3                     l2808:
  3851  07D3  3001               	movlw	1
  3852  07D4  00F5               	movwf	??___lwmod
  3853  07D5  0875               	movf	??___lwmod,w
  3854  07D6  07F6               	addwf	___lwmod@counter,f
  3855  07D7                     l2810:
  3856  07D7  1FF2               	btfss	___lwmod@divisor+1,7
  3857  07D8  2FDA               	goto	u1621
  3858  07D9  2FDB               	goto	u1620
  3859  07DA                     u1621:
  3860  07DA  2FCE               	goto	l2806
  3861  07DB                     u1620:
  3862  07DB                     l2812:
  3863  07DB  0872               	movf	___lwmod@divisor+1,w
  3864  07DC  0274               	subwf	___lwmod@dividend+1,w
  3865  07DD  1D03               	skipz
  3866  07DE  2FE1               	goto	u1635
  3867  07DF  0871               	movf	___lwmod@divisor,w
  3868  07E0  0273               	subwf	___lwmod@dividend,w
  3869  07E1                     u1635:
  3870  07E1  1C03               	skipc
  3871  07E2  2FE4               	goto	u1631
  3872  07E3  2FE5               	goto	u1630
  3873  07E4                     u1631:
  3874  07E4  2FE9               	goto	l2816
  3875  07E5                     u1630:
  3876  07E5                     l2814:
  3877  07E5  0871               	movf	___lwmod@divisor,w
  3878  07E6  02F3               	subwf	___lwmod@dividend,f
  3879  07E7  0872               	movf	___lwmod@divisor+1,w
  3880  07E8  3BF4               	subwfb	___lwmod@dividend+1,f
  3881  07E9                     l2816:
  3882  07E9  3001               	movlw	1
  3883  07EA                     u1645:
  3884  07EA  36F2               	lsrf	___lwmod@divisor+1,f
  3885  07EB  0CF1               	rrf	___lwmod@divisor,f
  3886  07EC  0B89               	decfsz	9,f
  3887  07ED  2FEA               	goto	u1645
  3888  07EE                     l2818:
  3889  07EE  3001               	movlw	1
  3890  07EF  02F6               	subwf	___lwmod@counter,f
  3891  07F0  1D03               	btfss	3,2
  3892  07F1  2FF3               	goto	u1651
  3893  07F2  2FF4               	goto	u1650
  3894  07F3                     u1651:
  3895  07F3  2FDB               	goto	l2812
  3896  07F4                     u1650:
  3897  07F4                     l2820:
  3898  07F4  0874               	movf	___lwmod@dividend+1,w
  3899  07F5  00F2               	movwf	?___lwmod+1
  3900  07F6  0873               	movf	___lwmod@dividend,w
  3901  07F7  00F1               	movwf	?___lwmod
  3902  07F8                     l1100:
  3903  07F8  0008               	return
  3904  07F9                     __end_of___lwmod:
  3905                           
  3906                           	psect	text3
  3907  0F47                     __ptext3:	
  3908 ;; *************** function ___lwdiv *****************
  3909 ;; Defined at:
  3910 ;;		line 5 in file "C:\Program Files\Microchip\xc8\v2.36\pic\sources\c99\common\lwdiv.c"
  3911 ;; Parameters:    Size  Location     Type
  3912 ;;  divisor         2    1[COMMON] unsigned int 
  3913 ;;  dividend        2    3[COMMON] unsigned int 
  3914 ;; Auto vars:     Size  Location     Type
  3915 ;;  quotient        2    6[COMMON] unsigned int 
  3916 ;;  counter         1    8[COMMON] unsigned char 
  3917 ;; Return value:  Size  Location     Type
  3918 ;;                  2    1[COMMON] unsigned int 
  3919 ;; Registers used:
  3920 ;;		wreg, status,2, status,0
  3921 ;; Tracked objects:
  3922 ;;		On entry : 0/0
  3923 ;;		On exit  : 0/0
  3924 ;;		Unchanged: 0/0
  3925 ;; Data sizes:     COMMON   BANK0   BANK1   BANK2   BANK3   BANK4
  3926 ;;      Params:         4       0       0       0       0       0
  3927 ;;      Locals:         3       0       0       0       0       0
  3928 ;;      Temps:          1       0       0       0       0       0
  3929 ;;      Totals:         8       0       0       0       0       0
  3930 ;;Total ram usage:        8 bytes
  3931 ;; Hardware stack levels used: 1
  3932 ;; Hardware stack levels required when called: 4
  3933 ;; This function calls:
  3934 ;;		Nothing
  3935 ;; This function is called by:
  3936 ;;		_main
  3937 ;; This function uses a non-reentrant model
  3938 ;;
  3939                           
  3940  0F47                     ___lwdiv:	
  3941                           ;psect for function ___lwdiv
  3942                           
  3943  0F47                     l2776:	
  3944                           ;incstack = 0
  3945                           ; Regs used in ___lwdiv: [wreg+status,2+status,0]
  3946                           
  3947  0F47  01F6               	clrf	___lwdiv@quotient
  3948  0F48  01F7               	clrf	___lwdiv@quotient+1
  3949  0F49                     l2778:
  3950  0F49  0871               	movf	___lwdiv@divisor,w
  3951  0F4A  0472               	iorwf	___lwdiv@divisor+1,w
  3952  0F4B  1903               	btfsc	3,2
  3953  0F4C  2F4E               	goto	u1531
  3954  0F4D  2F4F               	goto	u1530
  3955  0F4E                     u1531:
  3956  0F4E  2F7E               	goto	l2798
  3957  0F4F                     u1530:
  3958  0F4F                     l2780:
  3959  0F4F  01F8               	clrf	___lwdiv@counter
  3960  0F50  0AF8               	incf	___lwdiv@counter,f
  3961  0F51  2F5B               	goto	l2786
  3962  0F52                     l2782:
  3963  0F52  3001               	movlw	1
  3964  0F53                     u1545:
  3965  0F53  35F1               	lslf	___lwdiv@divisor,f
  3966  0F54  0DF2               	rlf	___lwdiv@divisor+1,f
  3967  0F55  0B89               	decfsz	9,f
  3968  0F56  2F53               	goto	u1545
  3969  0F57                     l2784:
  3970  0F57  3001               	movlw	1
  3971  0F58  00F5               	movwf	??___lwdiv
  3972  0F59  0875               	movf	??___lwdiv,w
  3973  0F5A  07F8               	addwf	___lwdiv@counter,f
  3974  0F5B                     l2786:
  3975  0F5B  1FF2               	btfss	___lwdiv@divisor+1,7
  3976  0F5C  2F5E               	goto	u1551
  3977  0F5D  2F5F               	goto	u1550
  3978  0F5E                     u1551:
  3979  0F5E  2F52               	goto	l2782
  3980  0F5F                     u1550:
  3981  0F5F                     l2788:
  3982  0F5F  3001               	movlw	1
  3983  0F60                     u1565:
  3984  0F60  35F6               	lslf	___lwdiv@quotient,f
  3985  0F61  0DF7               	rlf	___lwdiv@quotient+1,f
  3986  0F62  0B89               	decfsz	9,f
  3987  0F63  2F60               	goto	u1565
  3988  0F64  0872               	movf	___lwdiv@divisor+1,w
  3989  0F65  0274               	subwf	___lwdiv@dividend+1,w
  3990  0F66  1D03               	skipz
  3991  0F67  2F6A               	goto	u1575
  3992  0F68  0871               	movf	___lwdiv@divisor,w
  3993  0F69  0273               	subwf	___lwdiv@dividend,w
  3994  0F6A                     u1575:
  3995  0F6A  1C03               	skipc
  3996  0F6B  2F6D               	goto	u1571
  3997  0F6C  2F6E               	goto	u1570
  3998  0F6D                     u1571:
  3999  0F6D  2F73               	goto	l2794
  4000  0F6E                     u1570:
  4001  0F6E                     l2790:
  4002  0F6E  0871               	movf	___lwdiv@divisor,w
  4003  0F6F  02F3               	subwf	___lwdiv@dividend,f
  4004  0F70  0872               	movf	___lwdiv@divisor+1,w
  4005  0F71  3BF4               	subwfb	___lwdiv@dividend+1,f
  4006  0F72                     l2792:
  4007  0F72  1476               	bsf	___lwdiv@quotient,0
  4008  0F73                     l2794:
  4009  0F73  3001               	movlw	1
  4010  0F74                     u1585:
  4011  0F74  36F2               	lsrf	___lwdiv@divisor+1,f
  4012  0F75  0CF1               	rrf	___lwdiv@divisor,f
  4013  0F76  0B89               	decfsz	9,f
  4014  0F77  2F74               	goto	u1585
  4015  0F78                     l2796:
  4016  0F78  3001               	movlw	1
  4017  0F79  02F8               	subwf	___lwdiv@counter,f
  4018  0F7A  1D03               	btfss	3,2
  4019  0F7B  2F7D               	goto	u1591
  4020  0F7C  2F7E               	goto	u1590
  4021  0F7D                     u1591:
  4022  0F7D  2F5F               	goto	l2788
  4023  0F7E                     u1590:
  4024  0F7E                     l2798:
  4025  0F7E  0877               	movf	___lwdiv@quotient+1,w
  4026  0F7F  00F2               	movwf	?___lwdiv+1
  4027  0F80  0876               	movf	___lwdiv@quotient,w
  4028  0F81  00F1               	movwf	?___lwdiv
  4029  0F82                     l1090:
  4030  0F82  0008               	return
  4031  0F83                     __end_of___lwdiv:
  4032                           
  4033                           	psect	text4
  4034  0D70                     __ptext4:	
  4035 ;; *************** function _WDT_Initialize *****************
  4036 ;; Defined at:
  4037 ;;		line 70 in file "mcc_generated_files/mcc.c"
  4038 ;; Parameters:    Size  Location     Type
  4039 ;;		None
  4040 ;; Auto vars:     Size  Location     Type
  4041 ;;		None
  4042 ;; Return value:  Size  Location     Type
  4043 ;;                  1    wreg      void 
  4044 ;; Registers used:
  4045 ;;		wreg
  4046 ;; Tracked objects:
  4047 ;;		On entry : 0/0
  4048 ;;		On exit  : 0/0
  4049 ;;		Unchanged: 0/0
  4050 ;; Data sizes:     COMMON   BANK0   BANK1   BANK2   BANK3   BANK4
  4051 ;;      Params:         0       0       0       0       0       0
  4052 ;;      Locals:         0       0       0       0       0       0
  4053 ;;      Temps:          0       0       0       0       0       0
  4054 ;;      Totals:         0       0       0       0       0       0
  4055 ;;Total ram usage:        0 bytes
  4056 ;; Hardware stack levels used: 1
  4057 ;; Hardware stack levels required when called: 4
  4058 ;; This function calls:
  4059 ;;		Nothing
  4060 ;; This function is called by:
  4061 ;;		_main
  4062 ;; This function uses a non-reentrant model
  4063 ;;
  4064                           
  4065  0D70                     _WDT_Initialize:	
  4066                           ;psect for function _WDT_Initialize
  4067                           
  4068  0D70                     l2564:	
  4069                           ;incstack = 0
  4070                           ; Regs used in _WDT_Initialize: [wreg]
  4071                           
  4072                           
  4073                           ;mcc_generated_files/mcc.c: 73:     WDTCON = 0x24;
  4074  0D70  3024               	movlw	36
  4075  0D71  0021               	movlb	1	; select bank1
  4076  0D72  0097               	movwf	23	;volatile
  4077  0D73                     l17:
  4078  0D73  0008               	return
  4079  0D74                     __end_of_WDT_Initialize:
  4080                           
  4081                           	psect	text5
  4082  0634                     __ptext5:	
  4083 ;; *************** function _TX_Lora *****************
  4084 ;; Defined at:
  4085 ;;		line 212 in file "main.c"
  4086 ;; Parameters:    Size  Location     Type
  4087 ;;		None
  4088 ;; Auto vars:     Size  Location     Type
  4089 ;;		None
  4090 ;; Return value:  Size  Location     Type
  4091 ;;                  1    wreg      void 
  4092 ;; Registers used:
  4093 ;;		wreg, fsr0l, fsr0h, fsr1l, fsr1h, status,2, status,0, pclath, cstack
  4094 ;; Tracked objects:
  4095 ;;		On entry : 0/0
  4096 ;;		On exit  : 0/0
  4097 ;;		Unchanged: 0/0
  4098 ;; Data sizes:     COMMON   BANK0   BANK1   BANK2   BANK3   BANK4
  4099 ;;      Params:         0       0       0       0       0       0
  4100 ;;      Locals:         0       0       0       0       0       0
  4101 ;;      Temps:          1       0       0       0       0       0
  4102 ;;      Totals:         1       0       0       0       0       0
  4103 ;;Total ram usage:        1 bytes
  4104 ;; Hardware stack levels used: 1
  4105 ;; Hardware stack levels required when called: 6
  4106 ;; This function calls:
  4107 ;;		_EUSART_Reset
  4108 ;;		_EUSART_Write
  4109 ;;		_Espera_TxOk
  4110 ;;		_ModuloOn
  4111 ;;		_SM_CFOFF
  4112 ;;		_SM_CONFIGRADIO
  4113 ;; This function is called by:
  4114 ;;		_main
  4115 ;; This function uses a non-reentrant model
  4116 ;;
  4117                           
  4118  0634                     _TX_Lora:	
  4119                           ;psect for function _TX_Lora
  4120                           
  4121  0634                     l2732:	
  4122                           ;incstack = 0
  4123                           ; Regs used in _TX_Lora: [wreg-fsr1h+status,2+status,0+pclath+cstack]
  4124                           
  4125                           
  4126                           ;main.c: 214:     __nop();
  4127  0634  0000               	nop
  4128  0635                     l568:	
  4129                           ;main.c: 216:     do { LATAbits.LATA7 = 1; } while(0);
  4130                           
  4131  0635  0022               	movlb	2	; select bank2
  4132  0636  178C               	bsf	12,7	;volatile
  4133  0637                     l2734:
  4134                           
  4135                           ;main.c: 219:     ModuloOn();
  4136  0637  318F  2713  3186   	fcall	_ModuloOn
  4137  063A                     l2736:
  4138                           
  4139                           ;main.c: 221:     SM_CFOFF();
  4140  063A  318E  26B5  3186   	fcall	_SM_CFOFF
  4141  063D                     l2738:
  4142                           
  4143                           ;main.c: 222:     __nop();
  4144  063D  0000               	nop
  4145  063E                     l2740:
  4146                           
  4147                           ;main.c: 223:     SM_CONFIGRADIO(22);
  4148  063E  3016               	movlw	22
  4149  063F  318E  26E4  3186   	fcall	_SM_CONFIGRADIO
  4150  0642                     l2742:
  4151                           
  4152                           ;main.c: 224:     __nop();
  4153  0642  0000               	nop
  4154  0643                     l2744:
  4155                           
  4156                           ;main.c: 227:     EUSART_Reset();
  4157  0643  3187  277C  3186   	fcall	_EUSART_Reset
  4158  0646                     l2746:
  4159                           
  4160                           ;main.c: 228:     for (loop=0; _TXSTART22[loop]!=0; loop++) EUSART_Write (_TXSTART22[loo
      +                          p]);
  4161  0646  0024               	movlb	4	; select bank4
  4162  0647  01A8               	clrf	_loop^(0+512)
  4163  0648  2E59               	goto	l2752
  4164  0649                     l2748:
  4165  0649  0828               	movf	_loop^(0+512),w
  4166  064A  3E47               	addlw	low (__TXSTART22| (0+32768))
  4167  064B  0084               	movwf	4
  4168  064C  3088               	movlw	high (__TXSTART22| (0+32768))
  4169  064D  1803               	skipnc
  4170  064E  3E01               	addlw	1
  4171  064F  0085               	movwf	5
  4172  0650  0800               	movf	0,w	;code access
  4173  0651  318E  262D  3186   	fcall	_EUSART_Write
  4174  0654                     l2750:
  4175  0654  3001               	movlw	1
  4176  0655  00F5               	movwf	??_TX_Lora
  4177  0656  0875               	movf	??_TX_Lora,w
  4178  0657  0024               	movlb	4	; select bank4
  4179  0658  07A8               	addwf	_loop^(0+512),f
  4180  0659                     l2752:
  4181  0659  0828               	movf	_loop^(0+512),w
  4182  065A  3E47               	addlw	low (__TXSTART22| (0+32768))
  4183  065B  0084               	movwf	4
  4184  065C  3088               	movlw	high (__TXSTART22| (0+32768))
  4185  065D  1803               	skipnc
  4186  065E  3E01               	addlw	1
  4187  065F  0085               	movwf	5
  4188  0660  0012               	moviw fsr0++
  4189  0661  1D03               	btfss	3,2
  4190  0662  2E64               	goto	u1481
  4191  0663  2E65               	goto	u1480
  4192  0664                     u1481:
  4193  0664  2E49               	goto	l2748
  4194  0665                     u1480:
  4195  0665                     l2754:
  4196                           
  4197                           ;main.c: 230:     EUSART_Write(pacoteTRX[ 0]);
  4198  0665  0021               	movlb	1	; select bank1
  4199  0666  0840               	movf	_pacoteTRX^(0+128),w	;volatile
  4200  0667  318E  262D  3186   	fcall	_EUSART_Write
  4201                           
  4202                           ;main.c: 231:     EUSART_Write(pacoteTRX[ 1]);
  4203  066A  0021               	movlb	1	; select bank1
  4204  066B  0841               	movf	(_pacoteTRX^(0+128)+1),w	;volatile
  4205  066C  318E  262D  3186   	fcall	_EUSART_Write
  4206                           
  4207                           ;main.c: 232:     EUSART_Write(pacoteTRX[ 2]);
  4208  066F  0021               	movlb	1	; select bank1
  4209  0670  0842               	movf	(_pacoteTRX^(0+128)+2),w	;volatile
  4210  0671  318E  262D  3186   	fcall	_EUSART_Write
  4211                           
  4212                           ;main.c: 233:     EUSART_Write(pacoteTRX[ 3]);
  4213  0674  0021               	movlb	1	; select bank1
  4214  0675  0843               	movf	(_pacoteTRX^(0+128)+3),w	;volatile
  4215  0676  318E  262D  3186   	fcall	_EUSART_Write
  4216                           
  4217                           ;main.c: 234:     EUSART_Write(pacoteTRX[ 4]);
  4218  0679  0021               	movlb	1	; select bank1
  4219  067A  0844               	movf	(_pacoteTRX^(0+128)+4),w	;volatile
  4220  067B  318E  262D  3186   	fcall	_EUSART_Write
  4221                           
  4222                           ;main.c: 235:     EUSART_Write(pacoteTRX[ 5]);
  4223  067E  0021               	movlb	1	; select bank1
  4224  067F  0845               	movf	(_pacoteTRX^(0+128)+5),w	;volatile
  4225  0680  318E  262D  3186   	fcall	_EUSART_Write
  4226                           
  4227                           ;main.c: 236:     EUSART_Write(pacoteTRX[ 6]);
  4228  0683  0021               	movlb	1	; select bank1
  4229  0684  0846               	movf	(_pacoteTRX^(0+128)+6),w	;volatile
  4230  0685  318E  262D  3186   	fcall	_EUSART_Write
  4231                           
  4232                           ;main.c: 237:     EUSART_Write(pacoteTRX[ 7]);
  4233  0688  0021               	movlb	1	; select bank1
  4234  0689  0847               	movf	(_pacoteTRX^(0+128)+7),w	;volatile
  4235  068A  318E  262D  3186   	fcall	_EUSART_Write
  4236                           
  4237                           ;main.c: 238:     EUSART_Write(pacoteTRX[ 8]);
  4238  068D  0021               	movlb	1	; select bank1
  4239  068E  0848               	movf	(_pacoteTRX^(0+128)+8),w	;volatile
  4240  068F  318E  262D  3186   	fcall	_EUSART_Write
  4241                           
  4242                           ;main.c: 239:     EUSART_Write(pacoteTRX[ 9]);
  4243  0692  0021               	movlb	1	; select bank1
  4244  0693  0849               	movf	(_pacoteTRX^(0+128)+9),w	;volatile
  4245  0694  318E  262D  3186   	fcall	_EUSART_Write
  4246                           
  4247                           ;main.c: 240:     EUSART_Write(pacoteTRX[10]);
  4248  0697  0021               	movlb	1	; select bank1
  4249  0698  084A               	movf	(_pacoteTRX^(0+128)+10),w	;volatile
  4250  0699  318E  262D  3186   	fcall	_EUSART_Write
  4251                           
  4252                           ;main.c: 241:     EUSART_Write(pacoteTRX[11]);
  4253  069C  0021               	movlb	1	; select bank1
  4254  069D  084B               	movf	(_pacoteTRX^(0+128)+11),w	;volatile
  4255  069E  318E  262D  3186   	fcall	_EUSART_Write
  4256                           
  4257                           ;main.c: 242:     EUSART_Write(pacoteTRX[12]);
  4258  06A1  0021               	movlb	1	; select bank1
  4259  06A2  084C               	movf	(_pacoteTRX^(0+128)+12),w	;volatile
  4260  06A3  318E  262D  3186   	fcall	_EUSART_Write
  4261                           
  4262                           ;main.c: 243:     EUSART_Write(pacoteTRX[13]);
  4263  06A6  0021               	movlb	1	; select bank1
  4264  06A7  084D               	movf	(_pacoteTRX^(0+128)+13),w	;volatile
  4265  06A8  318E  262D  3186   	fcall	_EUSART_Write
  4266                           
  4267                           ;main.c: 245:     EUSART_Write (0x0D);
  4268  06AB  300D               	movlw	13
  4269  06AC  318E  262D  3186   	fcall	_EUSART_Write
  4270  06AF                     l2756:
  4271                           
  4272                           ;main.c: 246:     Espera_TxOk();
  4273  06AF  318E  260B  3186   	fcall	_Espera_TxOk
  4274  06B2                     l2758:
  4275                           
  4276                           ;main.c: 247:     __nop();
  4277  06B2  0000               	nop
  4278  06B3                     l2760:
  4279  06B3  0022               	movlb	2	; select bank2
  4280  06B4  138C               	bcf	12,7	;volatile
  4281  06B5                     l575:
  4282  06B5  0008               	return
  4283  06B6                     __end_of_TX_Lora:
  4284                           
  4285                           	psect	text6
  4286  0EE4                     __ptext6:	
  4287 ;; *************** function _SM_CONFIGRADIO *****************
  4288 ;; Defined at:
  4289 ;;		line 163 in file "main.c"
  4290 ;; Parameters:    Size  Location     Type
  4291 ;;  ch              1    wreg     unsigned char 
  4292 ;; Auto vars:     Size  Location     Type
  4293 ;;  ch              1    0[COMMON] unsigned char 
  4294 ;; Return value:  Size  Location     Type
  4295 ;;                  1    wreg      void 
  4296 ;; Registers used:
  4297 ;;		wreg, fsr0l, fsr0h, fsr1l, fsr1h, status,2, status,0, pclath, cstack
  4298 ;; Tracked objects:
  4299 ;;		On entry : 0/0
  4300 ;;		On exit  : 0/0
  4301 ;;		Unchanged: 0/0
  4302 ;; Data sizes:     COMMON   BANK0   BANK1   BANK2   BANK3   BANK4
  4303 ;;      Params:         0       0       0       0       0       0
  4304 ;;      Locals:         0       0       0       0       0       0
  4305 ;;      Temps:          2       0       0       0       0       0
  4306 ;;      Totals:         2       0       0       0       0       0
  4307 ;;Total ram usage:        2 bytes
  4308 ;; Hardware stack levels used: 1
  4309 ;; Hardware stack levels required when called: 5
  4310 ;; This function calls:
  4311 ;;		_EUSART_Reset
  4312 ;;		_EUSART_Write
  4313 ;; This function is called by:
  4314 ;;		_TX_Lora
  4315 ;;		_main
  4316 ;; This function uses a non-reentrant model
  4317 ;;
  4318                           
  4319  0EE4                     _SM_CONFIGRADIO:	
  4320                           ;psect for function _SM_CONFIGRADIO
  4321                           
  4322  0EE4                     l2534:	
  4323                           ;incstack = 0
  4324                           ; Regs used in _SM_CONFIGRADIO: [wreg-fsr1h+status,2+status,0+pclath+cstack]
  4325                           
  4326                           
  4327                           ;main.c: 163: void SM_CONFIGRADIO(uint8_t ch);main.c: 164: {;main.c: 165:     EUSART_Res
      +                          et();
  4328  0EE4  3187  277C  318E   	fcall	_EUSART_Reset
  4329  0EE7                     l2536:
  4330                           
  4331                           ;main.c: 166:     for (loop=0; _CFC22[loop]!=0; loop++) EUSART_Write (_CFC22[loop]);
  4332  0EE7  0024               	movlb	4	; select bank4
  4333  0EE8  01A8               	clrf	_loop^(0+512)
  4334  0EE9  2EFA               	goto	l2542
  4335  0EEA                     l2538:
  4336  0EEA  0828               	movf	_loop^(0+512),w
  4337  0EEB  3EF9               	addlw	low (__CFC22| (0+32768))
  4338  0EEC  0084               	movwf	4
  4339  0EED  3087               	movlw	high (__CFC22| (0+32768))
  4340  0EEE  1803               	skipnc
  4341  0EEF  3E01               	addlw	1
  4342  0EF0  0085               	movwf	5
  4343  0EF1  0800               	movf	0,w	;code access
  4344  0EF2  318E  262D  318E   	fcall	_EUSART_Write
  4345  0EF5                     l2540:
  4346  0EF5  3001               	movlw	1
  4347  0EF6  00F3               	movwf	??_SM_CONFIGRADIO
  4348  0EF7  0873               	movf	??_SM_CONFIGRADIO,w
  4349  0EF8  0024               	movlb	4	; select bank4
  4350  0EF9  07A8               	addwf	_loop^(0+512),f
  4351  0EFA                     l2542:
  4352  0EFA  0828               	movf	_loop^(0+512),w
  4353  0EFB  3EF9               	addlw	low (__CFC22| (0+32768))
  4354  0EFC  0084               	movwf	4
  4355  0EFD  3087               	movlw	high (__CFC22| (0+32768))
  4356  0EFE  1803               	skipnc
  4357  0EFF  3E01               	addlw	1
  4358  0F00  0085               	movwf	5
  4359  0F01  0012               	moviw fsr0++
  4360  0F02  1D03               	btfss	3,2
  4361  0F03  2F05               	goto	u1361
  4362  0F04  2F06               	goto	u1360
  4363  0F05                     u1361:
  4364  0F05  2EEA               	goto	l2538
  4365  0F06                     u1360:
  4366  0F06                     l2544:
  4367                           
  4368                           ;main.c: 167:     _delay((unsigned long)((100)*(16000000/4000.0)));
  4369  0F06  3003               	movlw	3
  4370  0F07  00F4               	movwf	??_SM_CONFIGRADIO+1
  4371  0F08  3008               	movlw	8
  4372  0F09  00F3               	movwf	??_SM_CONFIGRADIO
  4373  0F0A  3077               	movlw	119
  4374  0F0B                     u2467:
  4375  0F0B  0B89               	decfsz	9,f
  4376  0F0C  2F0B               	goto	u2467
  4377  0F0D  0BF3               	decfsz	??_SM_CONFIGRADIO,f
  4378  0F0E  2F0B               	goto	u2467
  4379  0F0F  0BF4               	decfsz	??_SM_CONFIGRADIO+1,f
  4380  0F10  2F0B               	goto	u2467
  4381  0F11  0000               	nop
  4382  0F12                     l535:
  4383  0F12  0008               	return
  4384  0F13                     __end_of_SM_CONFIGRADIO:
  4385                           
  4386                           	psect	text7
  4387  0EB5                     __ptext7:	
  4388 ;; *************** function _SM_CFOFF *****************
  4389 ;; Defined at:
  4390 ;;		line 175 in file "main.c"
  4391 ;; Parameters:    Size  Location     Type
  4392 ;;		None
  4393 ;; Auto vars:     Size  Location     Type
  4394 ;;		None
  4395 ;; Return value:  Size  Location     Type
  4396 ;;                  1    wreg      void 
  4397 ;; Registers used:
  4398 ;;		wreg, fsr0l, fsr0h, fsr1l, fsr1h, status,2, status,0, pclath, cstack
  4399 ;; Tracked objects:
  4400 ;;		On entry : 0/0
  4401 ;;		On exit  : 0/0
  4402 ;;		Unchanged: 0/0
  4403 ;; Data sizes:     COMMON   BANK0   BANK1   BANK2   BANK3   BANK4
  4404 ;;      Params:         0       0       0       0       0       0
  4405 ;;      Locals:         0       0       0       0       0       0
  4406 ;;      Temps:          2       0       0       0       0       0
  4407 ;;      Totals:         2       0       0       0       0       0
  4408 ;;Total ram usage:        2 bytes
  4409 ;; Hardware stack levels used: 1
  4410 ;; Hardware stack levels required when called: 5
  4411 ;; This function calls:
  4412 ;;		_EUSART_Reset
  4413 ;;		_EUSART_Write
  4414 ;; This function is called by:
  4415 ;;		_TX_Lora
  4416 ;;		_main
  4417 ;; This function uses a non-reentrant model
  4418 ;;
  4419                           
  4420  0EB5                     _SM_CFOFF:	
  4421                           ;psect for function _SM_CFOFF
  4422                           
  4423  0EB5                     l2546:	
  4424                           ;incstack = 0
  4425                           ; Regs used in _SM_CFOFF: [wreg-fsr1h+status,2+status,0+pclath+cstack]
  4426                           
  4427                           
  4428                           ;main.c: 177:     EUSART_Reset();
  4429  0EB5  3187  277C  318E   	fcall	_EUSART_Reset
  4430  0EB8                     l2548:
  4431                           
  4432                           ;main.c: 178:     for (loop=0; _CFOFF[loop]!=0; loop++) EUSART_Write (_CFOFF[loop]);
  4433  0EB8  0024               	movlb	4	; select bank4
  4434  0EB9  01A8               	clrf	_loop^(0+512)
  4435  0EBA  2ECB               	goto	l2554
  4436  0EBB                     l2550:
  4437  0EBB  0828               	movf	_loop^(0+512),w
  4438  0EBC  3E5A               	addlw	low (__CFOFF| (0+32768))
  4439  0EBD  0084               	movwf	4
  4440  0EBE  3088               	movlw	high (__CFOFF| (0+32768))
  4441  0EBF  1803               	skipnc
  4442  0EC0  3E01               	addlw	1
  4443  0EC1  0085               	movwf	5
  4444  0EC2  0800               	movf	0,w	;code access
  4445  0EC3  318E  262D  318E   	fcall	_EUSART_Write
  4446  0EC6                     l2552:
  4447  0EC6  3001               	movlw	1
  4448  0EC7  00F3               	movwf	??_SM_CFOFF
  4449  0EC8  0873               	movf	??_SM_CFOFF,w
  4450  0EC9  0024               	movlb	4	; select bank4
  4451  0ECA  07A8               	addwf	_loop^(0+512),f
  4452  0ECB                     l2554:
  4453  0ECB  0828               	movf	_loop^(0+512),w
  4454  0ECC  3E5A               	addlw	low (__CFOFF| (0+32768))
  4455  0ECD  0084               	movwf	4
  4456  0ECE  3088               	movlw	high (__CFOFF| (0+32768))
  4457  0ECF  1803               	skipnc
  4458  0ED0  3E01               	addlw	1
  4459  0ED1  0085               	movwf	5
  4460  0ED2  0012               	moviw fsr0++
  4461  0ED3  1D03               	btfss	3,2
  4462  0ED4  2ED6               	goto	u1371
  4463  0ED5  2ED7               	goto	u1370
  4464  0ED6                     u1371:
  4465  0ED6  2EBB               	goto	l2550
  4466  0ED7                     u1370:
  4467  0ED7                     l2556:
  4468                           
  4469                           ;main.c: 179:     _delay((unsigned long)((100)*(16000000/4000.0)));
  4470  0ED7  3003               	movlw	3
  4471  0ED8  00F4               	movwf	??_SM_CFOFF+1
  4472  0ED9  3008               	movlw	8
  4473  0EDA  00F3               	movwf	??_SM_CFOFF
  4474  0EDB  3077               	movlw	119
  4475  0EDC                     u2477:
  4476  0EDC  0B89               	decfsz	9,f
  4477  0EDD  2EDC               	goto	u2477
  4478  0EDE  0BF3               	decfsz	??_SM_CFOFF,f
  4479  0EDF  2EDC               	goto	u2477
  4480  0EE0  0BF4               	decfsz	??_SM_CFOFF+1,f
  4481  0EE1  2EDC               	goto	u2477
  4482  0EE2  0000               	nop
  4483  0EE3                     l547:
  4484  0EE3  0008               	return
  4485  0EE4                     __end_of_SM_CFOFF:
  4486                           
  4487                           	psect	text8
  4488  0E0B                     __ptext8:	
  4489 ;; *************** function _Espera_TxOk *****************
  4490 ;; Defined at:
  4491 ;;		line 142 in file "main.c"
  4492 ;; Parameters:    Size  Location     Type
  4493 ;;		None
  4494 ;; Auto vars:     Size  Location     Type
  4495 ;;		None
  4496 ;; Return value:  Size  Location     Type
  4497 ;;                  1    wreg      unsigned char 
  4498 ;; Registers used:
  4499 ;;		wreg, status,2
  4500 ;; Tracked objects:
  4501 ;;		On entry : 0/0
  4502 ;;		On exit  : 0/0
  4503 ;;		Unchanged: 0/0
  4504 ;; Data sizes:     COMMON   BANK0   BANK1   BANK2   BANK3   BANK4
  4505 ;;      Params:         0       0       0       0       0       0
  4506 ;;      Locals:         0       0       0       0       0       0
  4507 ;;      Temps:          1       0       0       0       0       0
  4508 ;;      Totals:         1       0       0       0       0       0
  4509 ;;Total ram usage:        1 bytes
  4510 ;; Hardware stack levels used: 1
  4511 ;; Hardware stack levels required when called: 4
  4512 ;; This function calls:
  4513 ;;		Nothing
  4514 ;; This function is called by:
  4515 ;;		_TX_Lora
  4516 ;; This function uses a non-reentrant model
  4517 ;;
  4518                           
  4519  0E0B                     _Espera_TxOk:	
  4520                           ;psect for function _Espera_TxOk
  4521                           
  4522  0E0B                     l2514:	
  4523                           ;incstack = 0
  4524                           ; Regs used in _Espera_TxOk: [wreg+status,2]
  4525                           
  4526                           
  4527                           ;main.c: 144:     temp16=0;
  4528  0E0B  0023               	movlb	3	; select bank3
  4529  0E0C  01E6               	clrf	_temp16^(0+384)
  4530  0E0D  01E7               	clrf	(_temp16+1)^(0+384)
  4531                           
  4532                           ;main.c: 145:     while (indice<36)
  4533  0E0E  2E26               	goto	l2520
  4534  0E0F                     l2516:
  4535                           
  4536                           ;main.c: 146:     {;main.c: 147:         _delay((unsigned long)((1)*(16000000/4000.0)));
  4537  0E0F  3006               	movlw	6
  4538  0E10  00F1               	movwf	??_Espera_TxOk
  4539  0E11  3030               	movlw	48
  4540  0E12                     u2487:
  4541  0E12  0B89               	decfsz	9,f
  4542  0E13  2E12               	goto	u2487
  4543  0E14  0BF1               	decfsz	??_Espera_TxOk,f
  4544  0E15  2E12               	goto	u2487
  4545  0E16  3200               	nop2
  4546                           
  4547                           ;main.c: 148:         if (++temp16>5000)
  4548  0E17  3001               	movlw	1
  4549  0E18  0023               	movlb	3	; select bank3
  4550  0E19  07E6               	addwf	_temp16^(0+384),f
  4551  0E1A  3000               	movlw	0
  4552  0E1B  3DE7               	addwfc	(_temp16+1)^(0+384),f
  4553  0E1C  3013               	movlw	19
  4554  0E1D  0267               	subwf	(_temp16+1)^(0+384),w
  4555  0E1E  3089               	movlw	137
  4556  0E1F  1903               	skipnz
  4557  0E20  0266               	subwf	_temp16^(0+384),w
  4558  0E21  1C03               	skipc
  4559  0E22  2E24               	goto	u1331
  4560  0E23  2E25               	goto	u1330
  4561  0E24                     u1331:
  4562  0E24  2E26               	goto	l2520
  4563  0E25                     u1330:
  4564  0E25  2E2C               	goto	l522
  4565  0E26                     l2520:
  4566                           
  4567                           ;main.c: 145:     while (indice<36)
  4568  0E26  3024               	movlw	36
  4569  0E27  027B               	subwf	_indice,w	;volatile
  4570  0E28  1C03               	skipc
  4571  0E29  2E2B               	goto	u1341
  4572  0E2A  2E2C               	goto	u1340
  4573  0E2B                     u1341:
  4574  0E2B  2E0F               	goto	l2516
  4575  0E2C                     u1340:
  4576  0E2C                     l522:
  4577  0E2C  0008               	return
  4578  0E2D                     __end_of_Espera_TxOk:
  4579                           
  4580                           	psect	text9
  4581  0731                     __ptext9:	
  4582 ;; *************** function _SM_START *****************
  4583 ;; Defined at:
  4584 ;;		line 188 in file "main.c"
  4585 ;; Parameters:    Size  Location     Type
  4586 ;;		None
  4587 ;; Auto vars:     Size  Location     Type
  4588 ;;		None
  4589 ;; Return value:  Size  Location     Type
  4590 ;;                  1    wreg      unsigned char 
  4591 ;; Registers used:
  4592 ;;		wreg, fsr0l, fsr0h, fsr1l, fsr1h, status,2, status,0, pclath, cstack
  4593 ;; Tracked objects:
  4594 ;;		On entry : 0/0
  4595 ;;		On exit  : 0/0
  4596 ;;		Unchanged: 0/0
  4597 ;; Data sizes:     COMMON   BANK0   BANK1   BANK2   BANK3   BANK4
  4598 ;;      Params:         0       0       0       0       0       0
  4599 ;;      Locals:         0       0       0       0       0       0
  4600 ;;      Temps:          1       0       0       0       0       0
  4601 ;;      Totals:         1       0       0       0       0       0
  4602 ;;Total ram usage:        1 bytes
  4603 ;; Hardware stack levels used: 1
  4604 ;; Hardware stack levels required when called: 6
  4605 ;; This function calls:
  4606 ;;		_EUSART_Reset
  4607 ;;		_ModuloOn
  4608 ;;		_SM_RESET
  4609 ;; This function is called by:
  4610 ;;		_main
  4611 ;; This function uses a non-reentrant model
  4612 ;;
  4613                           
  4614  0731                     _SM_START:	
  4615                           ;psect for function _SM_START
  4616                           
  4617  0731                     l2698:	
  4618                           ;incstack = 0
  4619                           ; Regs used in _SM_START: [wreg-fsr1h+status,2+status,0+pclath+cstack]
  4620                           
  4621                           
  4622                           ;main.c: 190:     EUSART_Reset();
  4623  0731  3187  277C  3187   	fcall	_EUSART_Reset
  4624  0734                     l2700:
  4625                           
  4626                           ;main.c: 191:     ModuloOn();
  4627  0734  318F  2713  3187   	fcall	_ModuloOn
  4628  0737                     l2702:
  4629                           
  4630                           ;main.c: 192:     __nop();
  4631  0737  0000               	nop
  4632  0738                     l2704:
  4633                           
  4634                           ;main.c: 193:     temp8=0;
  4635  0738  0024               	movlb	4	; select bank4
  4636  0739  01A3               	clrf	_temp8^(0+512)
  4637                           
  4638                           ;main.c: 194:     while (temp8<3)
  4639  073A  2F74               	goto	l2726
  4640  073B                     l2706:
  4641                           
  4642                           ;main.c: 195:     {;main.c: 196:         SM_RESET();
  4643  073B  318E  2686  3187   	fcall	_SM_RESET
  4644  073E                     l2708:
  4645                           
  4646                           ;main.c: 197:         temp16=0;
  4647  073E  0023               	movlb	3	; select bank3
  4648  073F  01E6               	clrf	_temp16^(0+384)
  4649  0740  01E7               	clrf	(_temp16+1)^(0+384)
  4650                           
  4651                           ;main.c: 198:         while (TotalSerial<185)
  4652  0741  2F59               	goto	l2714
  4653  0742                     l2710:
  4654                           
  4655                           ;main.c: 199:         {;main.c: 200:             _delay((unsigned long)((1)*(16000000/40
      +                          00.0)));
  4656  0742  3006               	movlw	6
  4657  0743  00F5               	movwf	??_SM_START
  4658  0744  3030               	movlw	48
  4659  0745                     u2497:
  4660  0745  0B89               	decfsz	9,f
  4661  0746  2F45               	goto	u2497
  4662  0747  0BF5               	decfsz	??_SM_START,f
  4663  0748  2F45               	goto	u2497
  4664  0749  3200               	nop2
  4665                           
  4666                           ;main.c: 201:             if (++temp16>5000)
  4667  074A  3001               	movlw	1
  4668  074B  0023               	movlb	3	; select bank3
  4669  074C  07E6               	addwf	_temp16^(0+384),f
  4670  074D  3000               	movlw	0
  4671  074E  3DE7               	addwfc	(_temp16+1)^(0+384),f
  4672  074F  3013               	movlw	19
  4673  0750  0267               	subwf	(_temp16+1)^(0+384),w
  4674  0751  3089               	movlw	137
  4675  0752  1903               	skipnz
  4676  0753  0266               	subwf	_temp16^(0+384),w
  4677  0754  1C03               	skipc
  4678  0755  2F57               	goto	u1441
  4679  0756  2F58               	goto	u1440
  4680  0757                     u1441:
  4681  0757  2F59               	goto	l2714
  4682  0758                     u1440:
  4683  0758  2F63               	goto	l2716
  4684  0759                     l2714:
  4685                           
  4686                           ;main.c: 198:         while (TotalSerial<185)
  4687  0759  3000               	movlw	0
  4688  075A  0020               	movlb	0	; select bank0
  4689  075B  0267               	subwf	_TotalSerial+1,w	;volatile
  4690  075C  30B9               	movlw	185
  4691  075D  1903               	skipnz
  4692  075E  0266               	subwf	_TotalSerial,w	;volatile
  4693  075F  1C03               	skipc
  4694  0760  2F62               	goto	u1451
  4695  0761  2F63               	goto	u1450
  4696  0762                     u1451:
  4697  0762  2F42               	goto	l2710
  4698  0763                     u1450:
  4699  0763                     l2716:
  4700                           
  4701                           ;main.c: 204:         if (TotalSerial>184)
  4702  0763  3000               	movlw	0
  4703  0764  0020               	movlb	0	; select bank0
  4704  0765  0267               	subwf	_TotalSerial+1,w	;volatile
  4705  0766  30B9               	movlw	185
  4706  0767  1903               	skipnz
  4707  0768  0266               	subwf	_TotalSerial,w	;volatile
  4708  0769  1C03               	skipc
  4709  076A  2F6C               	goto	u1461
  4710  076B  2F6D               	goto	u1460
  4711  076C                     u1461:
  4712  076C  2F6F               	goto	l2724
  4713  076D                     u1460:
  4714  076D                     l2718:
  4715                           
  4716                           ;main.c: 205:             return fSM_OK;
  4717  076D  3001               	movlw	1
  4718  076E  2F7B               	goto	l563
  4719  076F                     l2724:
  4720                           
  4721                           ;main.c: 207:             temp8++;
  4722  076F  3001               	movlw	1
  4723  0770  00F5               	movwf	??_SM_START
  4724  0771  0875               	movf	??_SM_START,w
  4725  0772  0024               	movlb	4	; select bank4
  4726  0773  07A3               	addwf	_temp8^(0+512),f
  4727  0774                     l2726:
  4728                           
  4729                           ;main.c: 194:     while (temp8<3)
  4730  0774  3003               	movlw	3
  4731  0775  0223               	subwf	_temp8^(0+512),w
  4732  0776  1C03               	skipc
  4733  0777  2F79               	goto	u1471
  4734  0778  2F7A               	goto	u1470
  4735  0779                     u1471:
  4736  0779  2F3B               	goto	l2706
  4737  077A                     u1470:
  4738  077A                     l2728:
  4739                           
  4740                           ;main.c: 209:     return fSM_TOUT;
  4741  077A  3003               	movlw	3
  4742  077B                     l563:
  4743  077B  0008               	return
  4744  077C                     __end_of_SM_START:
  4745                           
  4746                           	psect	text10
  4747  0E86                     __ptext10:	
  4748 ;; *************** function _SM_RESET *****************
  4749 ;; Defined at:
  4750 ;;		line 157 in file "main.c"
  4751 ;; Parameters:    Size  Location     Type
  4752 ;;		None
  4753 ;; Auto vars:     Size  Location     Type
  4754 ;;		None
  4755 ;; Return value:  Size  Location     Type
  4756 ;;                  1    wreg      void 
  4757 ;; Registers used:
  4758 ;;		wreg, fsr0l, fsr0h, fsr1l, fsr1h, status,2, status,0, pclath, cstack
  4759 ;; Tracked objects:
  4760 ;;		On entry : 0/0
  4761 ;;		On exit  : 0/0
  4762 ;;		Unchanged: 0/0
  4763 ;; Data sizes:     COMMON   BANK0   BANK1   BANK2   BANK3   BANK4
  4764 ;;      Params:         0       0       0       0       0       0
  4765 ;;      Locals:         0       0       0       0       0       0
  4766 ;;      Temps:          2       0       0       0       0       0
  4767 ;;      Totals:         2       0       0       0       0       0
  4768 ;;Total ram usage:        2 bytes
  4769 ;; Hardware stack levels used: 1
  4770 ;; Hardware stack levels required when called: 5
  4771 ;; This function calls:
  4772 ;;		_EUSART_Reset
  4773 ;;		_EUSART_Write
  4774 ;; This function is called by:
  4775 ;;		_SM_START
  4776 ;; This function uses a non-reentrant model
  4777 ;;
  4778                           
  4779  0E86                     _SM_RESET:	
  4780                           ;psect for function _SM_RESET
  4781                           
  4782  0E86                     l2522:	
  4783                           ;incstack = 0
  4784                           ; Regs used in _SM_RESET: [wreg-fsr1h+status,2+status,0+pclath+cstack]
  4785                           
  4786                           
  4787                           ;main.c: 159:     EUSART_Reset();
  4788  0E86  3187  277C  318E   	fcall	_EUSART_Reset
  4789  0E89                     l2524:
  4790                           
  4791                           ;main.c: 160:     for (loop=0; _RESET[loop]!=0; loop++) EUSART_Write (_RESET[loop]);
  4792  0E89  0024               	movlb	4	; select bank4
  4793  0E8A  01A8               	clrf	_loop^(0+512)
  4794  0E8B  2E9C               	goto	l2530
  4795  0E8C                     l2526:
  4796  0E8C  0828               	movf	_loop^(0+512),w
  4797  0E8D  3E63               	addlw	low (__RESET| (0+32768))
  4798  0E8E  0084               	movwf	4
  4799  0E8F  3088               	movlw	high (__RESET| (0+32768))
  4800  0E90  1803               	skipnc
  4801  0E91  3E01               	addlw	1
  4802  0E92  0085               	movwf	5
  4803  0E93  0800               	movf	0,w	;code access
  4804  0E94  318E  262D  318E   	fcall	_EUSART_Write
  4805  0E97                     l2528:
  4806  0E97  3001               	movlw	1
  4807  0E98  00F3               	movwf	??_SM_RESET
  4808  0E99  0873               	movf	??_SM_RESET,w
  4809  0E9A  0024               	movlb	4	; select bank4
  4810  0E9B  07A8               	addwf	_loop^(0+512),f
  4811  0E9C                     l2530:
  4812  0E9C  0828               	movf	_loop^(0+512),w
  4813  0E9D  3E63               	addlw	low (__RESET| (0+32768))
  4814  0E9E  0084               	movwf	4
  4815  0E9F  3088               	movlw	high (__RESET| (0+32768))
  4816  0EA0  1803               	skipnc
  4817  0EA1  3E01               	addlw	1
  4818  0EA2  0085               	movwf	5
  4819  0EA3  0012               	moviw fsr0++
  4820  0EA4  1D03               	btfss	3,2
  4821  0EA5  2EA7               	goto	u1351
  4822  0EA6  2EA8               	goto	u1350
  4823  0EA7                     u1351:
  4824  0EA7  2E8C               	goto	l2526
  4825  0EA8                     u1350:
  4826  0EA8                     l2532:
  4827                           
  4828                           ;main.c: 161:     _delay((unsigned long)((100)*(16000000/4000.0)));
  4829  0EA8  3003               	movlw	3
  4830  0EA9  00F4               	movwf	??_SM_RESET+1
  4831  0EAA  3008               	movlw	8
  4832  0EAB  00F3               	movwf	??_SM_RESET
  4833  0EAC  3077               	movlw	119
  4834  0EAD                     u2507:
  4835  0EAD  0B89               	decfsz	9,f
  4836  0EAE  2EAD               	goto	u2507
  4837  0EAF  0BF3               	decfsz	??_SM_RESET,f
  4838  0EB0  2EAD               	goto	u2507
  4839  0EB1  0BF4               	decfsz	??_SM_RESET+1,f
  4840  0EB2  2EAD               	goto	u2507
  4841  0EB3  0000               	nop
  4842  0EB4                     l529:
  4843  0EB4  0008               	return
  4844  0EB5                     __end_of_SM_RESET:
  4845                           
  4846                           	psect	text11
  4847  0F13                     __ptext11:	
  4848 ;; *************** function _ModuloOn *****************
  4849 ;; Defined at:
  4850 ;;		line 96 in file "main.c"
  4851 ;; Parameters:    Size  Location     Type
  4852 ;;		None
  4853 ;; Auto vars:     Size  Location     Type
  4854 ;;		None
  4855 ;; Return value:  Size  Location     Type
  4856 ;;                  1    wreg      void 
  4857 ;; Registers used:
  4858 ;;		wreg
  4859 ;; Tracked objects:
  4860 ;;		On entry : 0/0
  4861 ;;		On exit  : 0/0
  4862 ;;		Unchanged: 0/0
  4863 ;; Data sizes:     COMMON   BANK0   BANK1   BANK2   BANK3   BANK4
  4864 ;;      Params:         0       0       0       0       0       0
  4865 ;;      Locals:         0       0       0       0       0       0
  4866 ;;      Temps:          2       0       0       0       0       0
  4867 ;;      Totals:         2       0       0       0       0       0
  4868 ;;Total ram usage:        2 bytes
  4869 ;; Hardware stack levels used: 1
  4870 ;; Hardware stack levels required when called: 4
  4871 ;; This function calls:
  4872 ;;		Nothing
  4873 ;; This function is called by:
  4874 ;;		_SM_START
  4875 ;;		_TX_Lora
  4876 ;; This function uses a non-reentrant model
  4877 ;;
  4878                           
  4879  0F13                     _ModuloOn:	
  4880                           ;psect for function _ModuloOn
  4881                           
  4882  0F13                     l474:	
  4883                           ;incstack = 0
  4884                           ; Regs used in _ModuloOn: [wreg]
  4885                           ;main.c: 98:     do { LATBbits.LATB1 = 0; } while(0); _delay((unsigned long)((10)*(16000
      +                          000/4000.0)));
  4886                           
  4887  0F13  0022               	movlb	2	; select bank2
  4888  0F14  108D               	bcf	13,1	;volatile
  4889  0F15                     l2488:
  4890  0F15  3034               	movlw	52
  4891  0F16  00F1               	movwf	??_ModuloOn
  4892  0F17  30F2               	movlw	242
  4893  0F18                     u2517:
  4894  0F18  0B89               	decfsz	9,f
  4895  0F19  2F18               	goto	u2517
  4896  0F1A  0BF1               	decfsz	??_ModuloOn,f
  4897  0F1B  2F18               	goto	u2517
  4898  0F1C                     l2490:
  4899  0F1C  0021               	movlb	1	; select bank1
  4900  0F1D  108D               	bcf	13,1	;volatile
  4901  0F1E                     l477:
  4902  0F1E  3034               	movlw	52
  4903  0F1F  00F1               	movwf	??_ModuloOn
  4904  0F20  30F2               	movlw	242
  4905  0F21                     u2527:
  4906  0F21  0B89               	decfsz	9,f
  4907  0F22  2F21               	goto	u2527
  4908  0F23  0BF1               	decfsz	??_ModuloOn,f
  4909  0F24  2F21               	goto	u2527
  4910                           
  4911                           ;main.c: 100:     _delay((unsigned long)((500)*(16000000/4000.0)));
  4912  0F25  300B               	movlw	11
  4913  0F26  00F2               	movwf	??_ModuloOn+1
  4914  0F27  3026               	movlw	38
  4915  0F28  00F1               	movwf	??_ModuloOn
  4916  0F29  305E               	movlw	94
  4917  0F2A                     u2537:
  4918  0F2A  0B89               	decfsz	9,f
  4919  0F2B  2F2A               	goto	u2537
  4920  0F2C  0BF1               	decfsz	??_ModuloOn,f
  4921  0F2D  2F2A               	goto	u2537
  4922  0F2E  0BF2               	decfsz	??_ModuloOn+1,f
  4923  0F2F  2F2A               	goto	u2537
  4924  0F30                     l2492:
  4925                           
  4926                           ;main.c: 101:     __nop(); __nop(); __nop(); __nop();
  4927  0F30  0000               	nop
  4928  0F31                     l2494:
  4929  0F31  0000               	nop
  4930  0F32                     l2496:
  4931  0F32  0000               	nop
  4932  0F33                     l2498:
  4933  0F33  0000               	nop
  4934  0F34                     l2500:
  4935  0F34  0022               	movlb	2	; select bank2
  4936  0F35  148D               	bsf	13,1	;volatile
  4937  0F36                     l2502:
  4938                           
  4939                           ;main.c: 103:     __nop(); __nop(); __nop(); __nop();
  4940  0F36  0000               	nop
  4941  0F37                     l2504:
  4942  0F37  0000               	nop
  4943  0F38                     l2506:
  4944  0F38  0000               	nop
  4945  0F39                     l2508:
  4946  0F39  0000               	nop
  4947                           
  4948                           ;main.c: 104:     _delay((unsigned long)((1000)*(16000000/4000.0)));
  4949  0F3A  3015               	movlw	21
  4950  0F3B  00F2               	movwf	??_ModuloOn+1
  4951  0F3C  304B               	movlw	75
  4952  0F3D  00F1               	movwf	??_ModuloOn
  4953  0F3E  30BE               	movlw	190
  4954  0F3F                     u2547:
  4955  0F3F  0B89               	decfsz	9,f
  4956  0F40  2F3F               	goto	u2547
  4957  0F41  0BF1               	decfsz	??_ModuloOn,f
  4958  0F42  2F3F               	goto	u2547
  4959  0F43  0BF2               	decfsz	??_ModuloOn+1,f
  4960  0F44  2F3F               	goto	u2547
  4961  0F45  3200               	nop2
  4962  0F46                     l480:
  4963  0F46  0008               	return
  4964  0F47                     __end_of_ModuloOn:
  4965                           
  4966                           	psect	text12
  4967  0E57                     __ptext12:	
  4968 ;; *************** function _SM_MODORX *****************
  4969 ;; Defined at:
  4970 ;;		line 169 in file "main.c"
  4971 ;; Parameters:    Size  Location     Type
  4972 ;;  ch              1    wreg     unsigned char 
  4973 ;; Auto vars:     Size  Location     Type
  4974 ;;  ch              1    0[COMMON] unsigned char 
  4975 ;; Return value:  Size  Location     Type
  4976 ;;                  1    wreg      void 
  4977 ;; Registers used:
  4978 ;;		wreg, fsr0l, fsr0h, fsr1l, fsr1h, status,2, status,0, pclath, cstack
  4979 ;; Tracked objects:
  4980 ;;		On entry : 0/0
  4981 ;;		On exit  : 0/0
  4982 ;;		Unchanged: 0/0
  4983 ;; Data sizes:     COMMON   BANK0   BANK1   BANK2   BANK3   BANK4
  4984 ;;      Params:         0       0       0       0       0       0
  4985 ;;      Locals:         0       0       0       0       0       0
  4986 ;;      Temps:          2       0       0       0       0       0
  4987 ;;      Totals:         2       0       0       0       0       0
  4988 ;;Total ram usage:        2 bytes
  4989 ;; Hardware stack levels used: 1
  4990 ;; Hardware stack levels required when called: 5
  4991 ;; This function calls:
  4992 ;;		_EUSART_Reset
  4993 ;;		_EUSART_Write
  4994 ;; This function is called by:
  4995 ;;		_main
  4996 ;; This function uses a non-reentrant model
  4997 ;;
  4998                           
  4999  0E57                     _SM_MODORX:	
  5000                           ;psect for function _SM_MODORX
  5001                           
  5002  0E57                     l2686:	
  5003                           ;incstack = 0
  5004                           ; Regs used in _SM_MODORX: [wreg-fsr1h+status,2+status,0+pclath+cstack]
  5005                           
  5006                           
  5007                           ;main.c: 169: void SM_MODORX(uint8_t ch);main.c: 170: {;main.c: 171:     EUSART_Reset();
  5008  0E57  3187  277C  318E   	fcall	_EUSART_Reset
  5009  0E5A                     l2688:
  5010                           
  5011                           ;main.c: 172:     for (loop=0; _RXC22[loop]!=0; loop++) EUSART_Write (_RXC22[loop]);
  5012  0E5A  0024               	movlb	4	; select bank4
  5013  0E5B  01A8               	clrf	_loop^(0+512)
  5014  0E5C  2E6D               	goto	l2694
  5015  0E5D                     l2690:
  5016  0E5D  0828               	movf	_loop^(0+512),w
  5017  0E5E  3E34               	addlw	low (__RXC22| (0+32768))
  5018  0E5F  0084               	movwf	4
  5019  0E60  3088               	movlw	high (__RXC22| (0+32768))
  5020  0E61  1803               	skipnc
  5021  0E62  3E01               	addlw	1
  5022  0E63  0085               	movwf	5
  5023  0E64  0800               	movf	0,w	;code access
  5024  0E65  318E  262D  318E   	fcall	_EUSART_Write
  5025  0E68                     l2692:
  5026  0E68  3001               	movlw	1
  5027  0E69  00F3               	movwf	??_SM_MODORX
  5028  0E6A  0873               	movf	??_SM_MODORX,w
  5029  0E6B  0024               	movlb	4	; select bank4
  5030  0E6C  07A8               	addwf	_loop^(0+512),f
  5031  0E6D                     l2694:
  5032  0E6D  0828               	movf	_loop^(0+512),w
  5033  0E6E  3E34               	addlw	low (__RXC22| (0+32768))
  5034  0E6F  0084               	movwf	4
  5035  0E70  3088               	movlw	high (__RXC22| (0+32768))
  5036  0E71  1803               	skipnc
  5037  0E72  3E01               	addlw	1
  5038  0E73  0085               	movwf	5
  5039  0E74  0012               	moviw fsr0++
  5040  0E75  1D03               	btfss	3,2
  5041  0E76  2E78               	goto	u1431
  5042  0E77  2E79               	goto	u1430
  5043  0E78                     u1431:
  5044  0E78  2E5D               	goto	l2690
  5045  0E79                     u1430:
  5046  0E79                     l2696:
  5047                           
  5048                           ;main.c: 173:     _delay((unsigned long)((100)*(16000000/4000.0)));
  5049  0E79  3003               	movlw	3
  5050  0E7A  00F4               	movwf	??_SM_MODORX+1
  5051  0E7B  3008               	movlw	8
  5052  0E7C  00F3               	movwf	??_SM_MODORX
  5053  0E7D  3077               	movlw	119
  5054  0E7E                     u2557:
  5055  0E7E  0B89               	decfsz	9,f
  5056  0E7F  2E7E               	goto	u2557
  5057  0E80  0BF3               	decfsz	??_SM_MODORX,f
  5058  0E81  2E7E               	goto	u2557
  5059  0E82  0BF4               	decfsz	??_SM_MODORX+1,f
  5060  0E83  2E7E               	goto	u2557
  5061  0E84  0000               	nop
  5062  0E85                     l541:
  5063  0E85  0008               	return
  5064  0E86                     __end_of_SM_MODORX:
  5065                           
  5066                           	psect	text13
  5067  0E2D                     __ptext13:	
  5068 ;; *************** function _EUSART_Write *****************
  5069 ;; Defined at:
  5070 ;;		line 161 in file "mcc_generated_files/eusart.c"
  5071 ;; Parameters:    Size  Location     Type
  5072 ;;  txData          1    wreg     unsigned char 
  5073 ;; Auto vars:     Size  Location     Type
  5074 ;;  txData          1    2[COMMON] unsigned char 
  5075 ;; Return value:  Size  Location     Type
  5076 ;;                  1    wreg      void 
  5077 ;; Registers used:
  5078 ;;		wreg, fsr1l, fsr1h, status,2, status,0
  5079 ;; Tracked objects:
  5080 ;;		On entry : 0/0
  5081 ;;		On exit  : 0/0
  5082 ;;		Unchanged: 0/0
  5083 ;; Data sizes:     COMMON   BANK0   BANK1   BANK2   BANK3   BANK4
  5084 ;;      Params:         0       0       0       0       0       0
  5085 ;;      Locals:         1       0       0       0       0       0
  5086 ;;      Temps:          1       0       0       0       0       0
  5087 ;;      Totals:         2       0       0       0       0       0
  5088 ;;Total ram usage:        2 bytes
  5089 ;; Hardware stack levels used: 1
  5090 ;; Hardware stack levels required when called: 4
  5091 ;; This function calls:
  5092 ;;		Nothing
  5093 ;; This function is called by:
  5094 ;;		_SM_RESET
  5095 ;;		_SM_CONFIGRADIO
  5096 ;;		_SM_MODORX
  5097 ;;		_SM_CFOFF
  5098 ;;		_TX_Lora
  5099 ;;		_main
  5100 ;;		_SM_PING
  5101 ;; This function uses a non-reentrant model
  5102 ;;
  5103                           
  5104  0E2D                     _EUSART_Write:	
  5105                           ;psect for function _EUSART_Write
  5106                           
  5107                           
  5108                           ;incstack = 0
  5109                           ; Regs used in _EUSART_Write: [wreg+fsr1l+fsr1h+status,2+status,0]
  5110                           ;EUSART_Write@txData stored from wreg
  5111  0E2D  00F2               	movwf	EUSART_Write@txData
  5112  0E2E                     l2354:
  5113                           
  5114                           ;mcc_generated_files/eusart.c: 161: void EUSART_Write(uint8_t txData);mcc_generated_file
      +                          s/eusart.c: 162: {;mcc_generated_files/eusart.c: 163:     while(0 == eusartTxBufferRemai
      +                          ning)
  5115  0E2E  2E30               	goto	l2356
  5116  0E2F                     l169:
  5117  0E2F  0064               	clrwdt	;# 
  5118  0E30                     l2356:
  5119                           
  5120                           ;mcc_generated_files/eusart.c: 163:     while(0 == eusartTxBufferRemaining)
  5121  0E30  0021               	movlb	1	; select bank1
  5122  0E31  086B               	movf	_eusartTxBufferRemaining^(0+128),w	;volatile
  5123  0E32  1903               	btfsc	3,2
  5124  0E33  2E35               	goto	u1031
  5125  0E34  2E36               	goto	u1030
  5126  0E35                     u1031:
  5127  0E35  2E2F               	goto	l169
  5128  0E36                     u1030:
  5129  0E36                     l170:
  5130                           
  5131                           ;mcc_generated_files/eusart.c: 168:     if(0 == PIE1bits.TXIE)
  5132  0E36  1A11               	btfsc	17,4	;volatile
  5133  0E37  2E39               	goto	u1041
  5134  0E38  2E3A               	goto	u1040
  5135  0E39                     u1041:
  5136  0E39  2E3E               	goto	l171
  5137  0E3A                     u1040:
  5138  0E3A                     l2358:
  5139                           
  5140                           ;mcc_generated_files/eusart.c: 169:     {;mcc_generated_files/eusart.c: 170:         TXR
      +                          EG = txData;
  5141  0E3A  0872               	movf	EUSART_Write@txData,w
  5142  0E3B  0023               	movlb	3	; select bank3
  5143  0E3C  009A               	movwf	26	;volatile
  5144                           
  5145                           ;mcc_generated_files/eusart.c: 171:     }
  5146  0E3D  2E54               	goto	l2370
  5147  0E3E                     l171:	
  5148                           ;mcc_generated_files/eusart.c: 172:     else
  5149                           
  5150                           
  5151                           ;mcc_generated_files/eusart.c: 173:     {;mcc_generated_files/eusart.c: 174:         PIE
      +                          1bits.TXIE = 0;
  5152  0E3E  1211               	bcf	17,4	;volatile
  5153  0E3F                     l2360:
  5154                           
  5155                           ;mcc_generated_files/eusart.c: 175:         eusartTxBuffer[eusartTxHead++] = txData;
  5156  0E3F  0872               	movf	EUSART_Write@txData,w
  5157  0E40  00F1               	movwf	??_EUSART_Write
  5158  0E41  086D               	movf	_eusartTxHead^(0+128),w
  5159  0E42  3EA0               	addlw	(low (_eusartTxBuffer| 0))& (0+255)
  5160  0E43  0086               	movwf	6
  5161  0E44  0187               	clrf	7
  5162  0E45  0871               	movf	??_EUSART_Write,w
  5163  0E46  0081               	movwf	1
  5164  0E47                     l2362:
  5165  0E47  3001               	movlw	1
  5166  0E48  00F1               	movwf	??_EUSART_Write
  5167  0E49  0871               	movf	??_EUSART_Write,w
  5168  0E4A  07ED               	addwf	_eusartTxHead^(0+128),f	;volatile
  5169  0E4B                     l2364:
  5170                           
  5171                           ;mcc_generated_files/eusart.c: 176:         if(sizeof(eusartTxBuffer) <= eusartTxHead)
  5172  0E4B  3020               	movlw	32
  5173  0E4C  026D               	subwf	_eusartTxHead^(0+128),w	;volatile
  5174  0E4D  1C03               	skipc
  5175  0E4E  2E50               	goto	u1051
  5176  0E4F  2E51               	goto	u1050
  5177  0E50                     u1051:
  5178  0E50  2E52               	goto	l2368
  5179  0E51                     u1050:
  5180  0E51                     l2366:
  5181                           
  5182                           ;mcc_generated_files/eusart.c: 177:         {;mcc_generated_files/eusart.c: 178:        
      +                               eusartTxHead = 0;
  5183  0E51  01ED               	clrf	_eusartTxHead^(0+128)	;volatile
  5184  0E52                     l2368:
  5185                           
  5186                           ;mcc_generated_files/eusart.c: 180:         eusartTxBufferRemaining--;
  5187  0E52  3001               	movlw	1
  5188  0E53  02EB               	subwf	_eusartTxBufferRemaining^(0+128),f	;volatile
  5189  0E54                     l2370:
  5190                           
  5191                           ;mcc_generated_files/eusart.c: 182:     PIE1bits.TXIE = 1;
  5192  0E54  0021               	movlb	1	; select bank1
  5193  0E55  1611               	bsf	17,4	;volatile
  5194  0E56                     l174:
  5195  0E56  0008               	return
  5196  0E57                     __end_of_EUSART_Write:
  5197                           
  5198                           	psect	text14
  5199  077C                     __ptext14:	
  5200 ;; *************** function _EUSART_Reset *****************
  5201 ;; Defined at:
  5202 ;;		line 59 in file "mcc_generated_files/eusart.c"
  5203 ;; Parameters:    Size  Location     Type
  5204 ;;		None
  5205 ;; Auto vars:     Size  Location     Type
  5206 ;;		None
  5207 ;; Return value:  Size  Location     Type
  5208 ;;                  1    wreg      void 
  5209 ;; Registers used:
  5210 ;;		wreg, fsr1l, fsr1h, status,2, status,0
  5211 ;; Tracked objects:
  5212 ;;		On entry : 0/0
  5213 ;;		On exit  : 0/0
  5214 ;;		Unchanged: 0/0
  5215 ;; Data sizes:     COMMON   BANK0   BANK1   BANK2   BANK3   BANK4
  5216 ;;      Params:         0       0       0       0       0       0
  5217 ;;      Locals:         0       0       0       0       0       0
  5218 ;;      Temps:          1       0       0       0       0       0
  5219 ;;      Totals:         1       0       0       0       0       0
  5220 ;;Total ram usage:        1 bytes
  5221 ;; Hardware stack levels used: 1
  5222 ;; Hardware stack levels required when called: 4
  5223 ;; This function calls:
  5224 ;;		Nothing
  5225 ;; This function is called by:
  5226 ;;		_SM_RESET
  5227 ;;		_SM_CONFIGRADIO
  5228 ;;		_SM_MODORX
  5229 ;;		_SM_CFOFF
  5230 ;;		_SM_START
  5231 ;;		_TX_Lora
  5232 ;;		_main
  5233 ;;		_SM_PING
  5234 ;; This function uses a non-reentrant model
  5235 ;;
  5236                           
  5237  077C                     _EUSART_Reset:	
  5238                           ;psect for function _EUSART_Reset
  5239                           
  5240  077C                     l2326:	
  5241                           ;incstack = 0
  5242                           ; Regs used in _EUSART_Reset: [wreg+fsr1l+fsr1h+status,2+status,0]
  5243                           
  5244                           
  5245                           ;mcc_generated_files/eusart.c: 61:     for (indice=0;indice<64;indice++)
  5246  077C  01FB               	clrf	_indice	;volatile
  5247  077D                     l2328:
  5248  077D  3040               	movlw	64
  5249  077E  027B               	subwf	_indice,w	;volatile
  5250  077F  1C03               	skipc
  5251  0780  2F82               	goto	u1021
  5252  0781  2F83               	goto	u1020
  5253  0782                     u1021:
  5254  0782  2F84               	goto	l2332
  5255  0783                     u1020:
  5256  0783  2F9A               	goto	l2338
  5257  0784                     l2332:
  5258                           
  5259                           ;mcc_generated_files/eusart.c: 62:     {;mcc_generated_files/eusart.c: 63:         Dados
      +                          Lora[indice]=0x20;
  5260  0784  3020               	movlw	32
  5261  0785  00F1               	movwf	??_EUSART_Reset
  5262  0786  087B               	movf	_indice,w
  5263  0787  3E20               	addlw	(low (_DadosLora| (0+256)))& (0+255)
  5264  0788  0086               	movwf	6
  5265  0789  3001               	movlw	1	; select bank2/3
  5266  078A  0087               	movwf	7
  5267  078B  0871               	movf	??_EUSART_Reset,w
  5268  078C  0081               	movwf	1
  5269                           
  5270                           ;mcc_generated_files/eusart.c: 64:         eusartRxBuffer[indice]=0x20;
  5271  078D  3020               	movlw	32
  5272  078E  00F1               	movwf	??_EUSART_Reset
  5273  078F  087B               	movf	_indice,w
  5274  0790  3E20               	addlw	(low (_eusartRxBuffer| 0))& (0+255)
  5275  0791  0086               	movwf	6
  5276  0792  0187               	clrf	7
  5277  0793  0871               	movf	??_EUSART_Reset,w
  5278  0794  0081               	movwf	1
  5279  0795                     l2334:
  5280                           
  5281                           ;mcc_generated_files/eusart.c: 65:     }
  5282  0795  3001               	movlw	1
  5283  0796  00F1               	movwf	??_EUSART_Reset
  5284  0797  0871               	movf	??_EUSART_Reset,w
  5285  0798  07FB               	addwf	_indice,f	;volatile
  5286  0799  2F7D               	goto	l2328
  5287  079A                     l2338:
  5288                           
  5289                           ;mcc_generated_files/eusart.c: 66:     eusartTxBuffer[0]=0x20; eusartTxBuffer[1]=0x20; e
      +                          usartTxBuffer[2]=0x20;
  5290  079A  3020               	movlw	32
  5291  079B  00F1               	movwf	??_EUSART_Reset
  5292  079C  0871               	movf	??_EUSART_Reset,w
  5293  079D  0021               	movlb	1	; select bank1
  5294  079E  00A0               	movwf	_eusartTxBuffer^(0+128)	;volatile
  5295  079F  3020               	movlw	32
  5296  07A0  00F1               	movwf	??_EUSART_Reset
  5297  07A1  0871               	movf	??_EUSART_Reset,w
  5298  07A2  00A1               	movwf	(_eusartTxBuffer^(0+128)+1)	;volatile
  5299  07A3  3020               	movlw	32
  5300  07A4  00F1               	movwf	??_EUSART_Reset
  5301  07A5  0871               	movf	??_EUSART_Reset,w
  5302  07A6  00A2               	movwf	(_eusartTxBuffer^(0+128)+2)	;volatile
  5303                           
  5304                           ;mcc_generated_files/eusart.c: 67:     eusartTxBuffer[3]=0x20; eusartTxBuffer[4]=0x20; e
      +                          usartTxBuffer[5]=0x20;
  5305  07A7  3020               	movlw	32
  5306  07A8  00F1               	movwf	??_EUSART_Reset
  5307  07A9  0871               	movf	??_EUSART_Reset,w
  5308  07AA  00A3               	movwf	(_eusartTxBuffer^(0+128)+3)	;volatile
  5309  07AB  3020               	movlw	32
  5310  07AC  00F1               	movwf	??_EUSART_Reset
  5311  07AD  0871               	movf	??_EUSART_Reset,w
  5312  07AE  00A4               	movwf	(_eusartTxBuffer^(0+128)+4)	;volatile
  5313  07AF  3020               	movlw	32
  5314  07B0  00F1               	movwf	??_EUSART_Reset
  5315  07B1  0871               	movf	??_EUSART_Reset,w
  5316  07B2  00A5               	movwf	(_eusartTxBuffer^(0+128)+5)	;volatile
  5317                           
  5318                           ;mcc_generated_files/eusart.c: 68:     eusartTxBuffer[6]=0x20; eusartTxBuffer[7]=0x20;
  5319  07B3  3020               	movlw	32
  5320  07B4  00F1               	movwf	??_EUSART_Reset
  5321  07B5  0871               	movf	??_EUSART_Reset,w
  5322  07B6  00A6               	movwf	(_eusartTxBuffer^(0+128)+6)	;volatile
  5323  07B7  3020               	movlw	32
  5324  07B8  00F1               	movwf	??_EUSART_Reset
  5325  07B9  0871               	movf	??_EUSART_Reset,w
  5326  07BA  00A7               	movwf	(_eusartTxBuffer^(0+128)+7)	;volatile
  5327  07BB                     l2340:
  5328                           
  5329                           ;mcc_generated_files/eusart.c: 69:     indice=0;
  5330  07BB  01FB               	clrf	_indice	;volatile
  5331  07BC                     l2342:
  5332                           
  5333                           ;mcc_generated_files/eusart.c: 70:     TotalSerial=0;
  5334  07BC  0020               	movlb	0	; select bank0
  5335  07BD  01E6               	clrf	_TotalSerial	;volatile
  5336  07BE  01E7               	clrf	_TotalSerial+1	;volatile
  5337  07BF                     l2344:
  5338                           
  5339                           ;mcc_generated_files/eusart.c: 71:     fOK=0; fATerr=0;
  5340  07BF  01EF               	clrf	_fOK	;volatile
  5341  07C0                     l2346:
  5342  07C0  01EE               	clrf	_fATerr	;volatile
  5343  07C1                     l2348:
  5344                           
  5345                           ;mcc_generated_files/eusart.c: 72:     fBusy=0;fParm=0;fTxOk=0;
  5346  07C1  01ED               	clrf	_fBusy	;volatile
  5347  07C2                     l2350:
  5348  07C2  01EC               	clrf	_fParm	;volatile
  5349  07C3                     l2352:
  5350  07C3  01FA               	clrf	_fTxOk	;volatile
  5351  07C4                     l143:
  5352  07C4  0008               	return
  5353  07C5                     __end_of_EUSART_Reset:
  5354                           
  5355                           	psect	text15
  5356  0DB2                     __ptext15:	
  5357 ;; *************** function _PIN_MANAGER_Initialize *****************
  5358 ;; Defined at:
  5359 ;;		line 55 in file "mcc_generated_files/pin_manager.c"
  5360 ;; Parameters:    Size  Location     Type
  5361 ;;		None
  5362 ;; Auto vars:     Size  Location     Type
  5363 ;;		None
  5364 ;; Return value:  Size  Location     Type
  5365 ;;                  1    wreg      void 
  5366 ;; Registers used:
  5367 ;;		wreg, status,2
  5368 ;; Tracked objects:
  5369 ;;		On entry : 0/0
  5370 ;;		On exit  : 0/0
  5371 ;;		Unchanged: 0/0
  5372 ;; Data sizes:     COMMON   BANK0   BANK1   BANK2   BANK3   BANK4
  5373 ;;      Params:         0       0       0       0       0       0
  5374 ;;      Locals:         0       0       0       0       0       0
  5375 ;;      Temps:          0       0       0       0       0       0
  5376 ;;      Totals:         0       0       0       0       0       0
  5377 ;;Total ram usage:        0 bytes
  5378 ;; Hardware stack levels used: 1
  5379 ;; Hardware stack levels required when called: 4
  5380 ;; This function calls:
  5381 ;;		Nothing
  5382 ;; This function is called by:
  5383 ;;		_main
  5384 ;; This function uses a non-reentrant model
  5385 ;;
  5386                           
  5387  0DB2                     _PIN_MANAGER_Initialize:	
  5388                           ;psect for function _PIN_MANAGER_Initialize
  5389                           
  5390  0DB2                     l2630:	
  5391                           ;incstack = 0
  5392                           ; Regs used in _PIN_MANAGER_Initialize: [wreg+status,2]
  5393                           
  5394                           
  5395                           ;mcc_generated_files/pin_manager.c: 60:     LATA = 0x00;
  5396  0DB2  0022               	movlb	2	; select bank2
  5397  0DB3  018C               	clrf	12	;volatile
  5398  0DB4                     l2632:
  5399                           
  5400                           ;mcc_generated_files/pin_manager.c: 61:     LATB = 0x08;
  5401  0DB4  3008               	movlw	8
  5402  0DB5  008D               	movwf	13	;volatile
  5403  0DB6                     l2634:
  5404                           
  5405                           ;mcc_generated_files/pin_manager.c: 66:     TRISA = 0x3E;
  5406  0DB6  303E               	movlw	62
  5407  0DB7  0021               	movlb	1	; select bank1
  5408  0DB8  008C               	movwf	12	;volatile
  5409  0DB9                     l2636:
  5410                           
  5411                           ;mcc_generated_files/pin_manager.c: 67:     TRISB = 0xDD;
  5412  0DB9  30DD               	movlw	221
  5413  0DBA  008D               	movwf	13	;volatile
  5414  0DBB                     l2638:
  5415                           
  5416                           ;mcc_generated_files/pin_manager.c: 72:     ANSELB = 0xD0;
  5417  0DBB  30D0               	movlw	208
  5418  0DBC  0023               	movlb	3	; select bank3
  5419  0DBD  008D               	movwf	13	;volatile
  5420                           
  5421                           ;mcc_generated_files/pin_manager.c: 73:     ANSELA = 0x00;
  5422  0DBE  018C               	clrf	12	;volatile
  5423  0DBF                     l2640:
  5424                           
  5425                           ;mcc_generated_files/pin_manager.c: 78:     WPUB = 0x10;
  5426  0DBF  3010               	movlw	16
  5427  0DC0  0024               	movlb	4	; select bank4
  5428  0DC1  008D               	movwf	13	;volatile
  5429  0DC2                     l2642:
  5430                           
  5431                           ;mcc_generated_files/pin_manager.c: 79:     WPUA = 0x00;
  5432  0DC2  018C               	clrf	12	;volatile
  5433  0DC3                     l2644:
  5434                           
  5435                           ;mcc_generated_files/pin_manager.c: 80:     OPTION_REGbits.nWPUEN = 0;
  5436  0DC3  0021               	movlb	1	; select bank1
  5437  0DC4  1395               	bcf	21,7	;volatile
  5438                           
  5439                           ;mcc_generated_files/pin_manager.c: 86:     APFCON0 = 0x80;
  5440  0DC5  3080               	movlw	128
  5441  0DC6  0022               	movlb	2	; select bank2
  5442  0DC7  009D               	movwf	29	;volatile
  5443                           
  5444                           ;mcc_generated_files/pin_manager.c: 87:     APFCON1 = 0x01;
  5445  0DC8  3001               	movlw	1
  5446  0DC9  009E               	movwf	30	;volatile
  5447  0DCA                     l252:
  5448  0DCA  0008               	return
  5449  0DCB                     __end_of_PIN_MANAGER_Initialize:
  5450                           
  5451                           	psect	text16
  5452  0D98                     __ptext16:	
  5453 ;; *************** function _OSCILLATOR_Initialize *****************
  5454 ;; Defined at:
  5455 ;;		line 60 in file "mcc_generated_files/mcc.c"
  5456 ;; Parameters:    Size  Location     Type
  5457 ;;		None
  5458 ;; Auto vars:     Size  Location     Type
  5459 ;;		None
  5460 ;; Return value:  Size  Location     Type
  5461 ;;                  1    wreg      void 
  5462 ;; Registers used:
  5463 ;;		wreg, status,2
  5464 ;; Tracked objects:
  5465 ;;		On entry : 0/0
  5466 ;;		On exit  : 0/0
  5467 ;;		Unchanged: 0/0
  5468 ;; Data sizes:     COMMON   BANK0   BANK1   BANK2   BANK3   BANK4
  5469 ;;      Params:         0       0       0       0       0       0
  5470 ;;      Locals:         0       0       0       0       0       0
  5471 ;;      Temps:          0       0       0       0       0       0
  5472 ;;      Totals:         0       0       0       0       0       0
  5473 ;;Total ram usage:        0 bytes
  5474 ;; Hardware stack levels used: 1
  5475 ;; Hardware stack levels required when called: 4
  5476 ;; This function calls:
  5477 ;;		Nothing
  5478 ;; This function is called by:
  5479 ;;		_main
  5480 ;; This function uses a non-reentrant model
  5481 ;;
  5482                           
  5483  0D98                     _OSCILLATOR_Initialize:	
  5484                           ;psect for function _OSCILLATOR_Initialize
  5485                           
  5486  0D98                     l2558:	
  5487                           ;incstack = 0
  5488                           ; Regs used in _OSCILLATOR_Initialize: [wreg+status,2]
  5489                           
  5490                           
  5491                           ;mcc_generated_files/mcc.c: 63:     OSCCON = 0x7A;
  5492  0D98  307A               	movlw	122
  5493  0D99  0021               	movlb	1	; select bank1
  5494  0D9A  0099               	movwf	25	;volatile
  5495  0D9B                     l2560:
  5496                           
  5497                           ;mcc_generated_files/mcc.c: 65:     OSCTUNE = 0x00;
  5498  0D9B  0198               	clrf	24	;volatile
  5499  0D9C                     l2562:
  5500                           
  5501                           ;mcc_generated_files/mcc.c: 67:     BORCON = 0x00;
  5502  0D9C  0022               	movlb	2	; select bank2
  5503  0D9D  0196               	clrf	22	;volatile
  5504  0D9E                     l14:
  5505  0D9E  0008               	return
  5506  0D9F                     __end_of_OSCILLATOR_Initialize:
  5507                           
  5508                           	psect	text17
  5509  06B6                     __ptext17:	
  5510 ;; *************** function _ErrCode *****************
  5511 ;; Defined at:
  5512 ;;		line 115 in file "main.c"
  5513 ;; Parameters:    Size  Location     Type
  5514 ;;  code            1    wreg     unsigned char 
  5515 ;; Auto vars:     Size  Location     Type
  5516 ;;  code            1    4[COMMON] unsigned char 
  5517 ;;  qual            1    0        unsigned char 
  5518 ;; Return value:  Size  Location     Type
  5519 ;;                  1    wreg      void 
  5520 ;; Registers used:
  5521 ;;		wreg, status,2, status,0, pclath, cstack
  5522 ;; Tracked objects:
  5523 ;;		On entry : 0/0
  5524 ;;		On exit  : 0/0
  5525 ;;		Unchanged: 0/0
  5526 ;; Data sizes:     COMMON   BANK0   BANK1   BANK2   BANK3   BANK4
  5527 ;;      Params:         0       0       0       0       0       0
  5528 ;;      Locals:         1       0       0       0       0       0
  5529 ;;      Temps:          2       0       0       0       0       0
  5530 ;;      Totals:         3       0       0       0       0       0
  5531 ;;Total ram usage:        3 bytes
  5532 ;; Hardware stack levels used: 1
  5533 ;; Hardware stack levels required when called: 5
  5534 ;; This function calls:
  5535 ;;		_ModuloOff
  5536 ;; This function is called by:
  5537 ;;		_main
  5538 ;; This function uses a non-reentrant model
  5539 ;;
  5540                           
  5541  06B6                     _ErrCode:	
  5542                           ;psect for function _ErrCode
  5543                           
  5544                           
  5545                           ;incstack = 0
  5546                           ; Regs used in _ErrCode: [wreg+status,2+status,0+pclath+cstack]
  5547                           ;ErrCode@code stored from wreg
  5548  06B6  00F4               	movwf	ErrCode@code
  5549  06B7                     l2646:
  5550  06B7                     l2648:
  5551                           
  5552                           ;main.c: 118:     __nop();
  5553  06B7  0000               	nop
  5554  06B8                     l2650:
  5555                           
  5556                           ;main.c: 119:     ModuloOff();
  5557  06B8  318D  259F  3186   	fcall	_ModuloOff
  5558  06BB                     l2652:
  5559  06BB  0022               	movlb	2	; select bank2
  5560  06BC  178C               	bsf	12,7	;volatile
  5561  06BD                     l2654:
  5562  06BD  3006               	movlw	6
  5563  06BE  00F3               	movwf	??_ErrCode+1
  5564  06BF  3013               	movlw	19
  5565  06C0  00F2               	movwf	??_ErrCode
  5566  06C1  30AE               	movlw	174
  5567  06C2                     u2567:
  5568  06C2  0B89               	decfsz	9,f
  5569  06C3  2EC2               	goto	u2567
  5570  06C4  0BF2               	decfsz	??_ErrCode,f
  5571  06C5  2EC2               	goto	u2567
  5572  06C6  0BF3               	decfsz	??_ErrCode+1,f
  5573  06C7  2EC2               	goto	u2567
  5574  06C8                     l2656:
  5575  06C8  0022               	movlb	2	; select bank2
  5576  06C9  138C               	bcf	12,7	;volatile
  5577  06CA                     l2658:
  5578  06CA  3006               	movlw	6
  5579  06CB  00F3               	movwf	??_ErrCode+1
  5580  06CC  3013               	movlw	19
  5581  06CD  00F2               	movwf	??_ErrCode
  5582  06CE  30AE               	movlw	174
  5583  06CF                     u2577:
  5584  06CF  0B89               	decfsz	9,f
  5585  06D0  2ECF               	goto	u2577
  5586  06D1  0BF2               	decfsz	??_ErrCode,f
  5587  06D2  2ECF               	goto	u2577
  5588  06D3  0BF3               	decfsz	??_ErrCode+1,f
  5589  06D4  2ECF               	goto	u2577
  5590  06D5                     l2660:
  5591  06D5  0022               	movlb	2	; select bank2
  5592  06D6  178C               	bsf	12,7	;volatile
  5593  06D7                     l2662:
  5594  06D7  3006               	movlw	6
  5595  06D8  00F3               	movwf	??_ErrCode+1
  5596  06D9  3013               	movlw	19
  5597  06DA  00F2               	movwf	??_ErrCode
  5598  06DB  30AE               	movlw	174
  5599  06DC                     u2587:
  5600  06DC  0B89               	decfsz	9,f
  5601  06DD  2EDC               	goto	u2587
  5602  06DE  0BF2               	decfsz	??_ErrCode,f
  5603  06DF  2EDC               	goto	u2587
  5604  06E0  0BF3               	decfsz	??_ErrCode+1,f
  5605  06E1  2EDC               	goto	u2587
  5606  06E2                     l2664:
  5607  06E2  0022               	movlb	2	; select bank2
  5608  06E3  138C               	bcf	12,7	;volatile
  5609  06E4                     l2666:
  5610  06E4  3006               	movlw	6
  5611  06E5  00F3               	movwf	??_ErrCode+1
  5612  06E6  3013               	movlw	19
  5613  06E7  00F2               	movwf	??_ErrCode
  5614  06E8  30AE               	movlw	174
  5615  06E9                     u2597:
  5616  06E9  0B89               	decfsz	9,f
  5617  06EA  2EE9               	goto	u2597
  5618  06EB  0BF2               	decfsz	??_ErrCode,f
  5619  06EC  2EE9               	goto	u2597
  5620  06ED  0BF3               	decfsz	??_ErrCode+1,f
  5621  06EE  2EE9               	goto	u2597
  5622  06EF                     l2668:
  5623  06EF  0022               	movlb	2	; select bank2
  5624  06F0  170C               	bsf	12,6	;volatile
  5625  06F1                     l2670:
  5626  06F1  3006               	movlw	6
  5627  06F2  00F3               	movwf	??_ErrCode+1
  5628  06F3  3013               	movlw	19
  5629  06F4  00F2               	movwf	??_ErrCode
  5630  06F5  30AE               	movlw	174
  5631  06F6                     u2607:
  5632  06F6  0B89               	decfsz	9,f
  5633  06F7  2EF6               	goto	u2607
  5634  06F8  0BF2               	decfsz	??_ErrCode,f
  5635  06F9  2EF6               	goto	u2607
  5636  06FA  0BF3               	decfsz	??_ErrCode+1,f
  5637  06FB  2EF6               	goto	u2607
  5638  06FC                     l2672:
  5639  06FC  0022               	movlb	2	; select bank2
  5640  06FD  130C               	bcf	12,6	;volatile
  5641  06FE                     l2674:
  5642  06FE  3006               	movlw	6
  5643  06FF  00F3               	movwf	??_ErrCode+1
  5644  0700  3013               	movlw	19
  5645  0701  00F2               	movwf	??_ErrCode
  5646  0702  30AE               	movlw	174
  5647  0703                     u2617:
  5648  0703  0B89               	decfsz	9,f
  5649  0704  2F03               	goto	u2617
  5650  0705  0BF2               	decfsz	??_ErrCode,f
  5651  0706  2F03               	goto	u2617
  5652  0707  0BF3               	decfsz	??_ErrCode+1,f
  5653  0708  2F03               	goto	u2617
  5654  0709                     l2676:
  5655  0709  0022               	movlb	2	; select bank2
  5656  070A  170C               	bsf	12,6	;volatile
  5657  070B                     l2678:
  5658  070B  3006               	movlw	6
  5659  070C  00F3               	movwf	??_ErrCode+1
  5660  070D  3013               	movlw	19
  5661  070E  00F2               	movwf	??_ErrCode
  5662  070F  30AE               	movlw	174
  5663  0710                     u2627:
  5664  0710  0B89               	decfsz	9,f
  5665  0711  2F10               	goto	u2627
  5666  0712  0BF2               	decfsz	??_ErrCode,f
  5667  0713  2F10               	goto	u2627
  5668  0714  0BF3               	decfsz	??_ErrCode+1,f
  5669  0715  2F10               	goto	u2627
  5670  0716                     l2680:
  5671  0716  0022               	movlb	2	; select bank2
  5672  0717  130C               	bcf	12,6	;volatile
  5673  0718                     l2682:
  5674  0718  3006               	movlw	6
  5675  0719  00F3               	movwf	??_ErrCode+1
  5676  071A  3013               	movlw	19
  5677  071B  00F2               	movwf	??_ErrCode
  5678  071C  30AE               	movlw	174
  5679  071D                     u2637:
  5680  071D  0B89               	decfsz	9,f
  5681  071E  2F1D               	goto	u2637
  5682  071F  0BF2               	decfsz	??_ErrCode,f
  5683  0720  2F1D               	goto	u2637
  5684  0721  0BF3               	decfsz	??_ErrCode+1,f
  5685  0722  2F1D               	goto	u2637
  5686  0723                     l2684:
  5687                           
  5688                           ;main.c: 126:         _delay((unsigned long)((1000)*(16000000/4000.0)));
  5689  0723  3015               	movlw	21
  5690  0724  00F3               	movwf	??_ErrCode+1
  5691  0725  304B               	movlw	75
  5692  0726  00F2               	movwf	??_ErrCode
  5693  0727  30BE               	movlw	190
  5694  0728                     u2647:
  5695  0728  0B89               	decfsz	9,f
  5696  0729  2F28               	goto	u2647
  5697  072A  0BF2               	decfsz	??_ErrCode,f
  5698  072B  2F28               	goto	u2647
  5699  072C  0BF3               	decfsz	??_ErrCode+1,f
  5700  072D  2F28               	goto	u2647
  5701  072E  3200               	nop2
  5702                           
  5703                           ;main.c: 127:     }
  5704  072F  2EBB               	goto	l2652
  5705  0730  0008               	return
  5706  0731                     __end_of_ErrCode:
  5707                           
  5708                           	psect	text18
  5709  0D9F                     __ptext18:	
  5710 ;; *************** function _ModuloOff *****************
  5711 ;; Defined at:
  5712 ;;		line 106 in file "main.c"
  5713 ;; Parameters:    Size  Location     Type
  5714 ;;		None
  5715 ;; Auto vars:     Size  Location     Type
  5716 ;;		None
  5717 ;; Return value:  Size  Location     Type
  5718 ;;                  1    wreg      void 
  5719 ;; Registers used:
  5720 ;;		wreg
  5721 ;; Tracked objects:
  5722 ;;		On entry : 0/0
  5723 ;;		On exit  : 0/0
  5724 ;;		Unchanged: 0/0
  5725 ;; Data sizes:     COMMON   BANK0   BANK1   BANK2   BANK3   BANK4
  5726 ;;      Params:         0       0       0       0       0       0
  5727 ;;      Locals:         0       0       0       0       0       0
  5728 ;;      Temps:          1       0       0       0       0       0
  5729 ;;      Totals:         1       0       0       0       0       0
  5730 ;;Total ram usage:        1 bytes
  5731 ;; Hardware stack levels used: 1
  5732 ;; Hardware stack levels required when called: 4
  5733 ;; This function calls:
  5734 ;;		Nothing
  5735 ;; This function is called by:
  5736 ;;		_ErrCode
  5737 ;;		_main
  5738 ;; This function uses a non-reentrant model
  5739 ;;
  5740                           
  5741  0D9F                     _ModuloOff:	
  5742                           ;psect for function _ModuloOff
  5743                           
  5744  0D9F                     l483:	
  5745                           ;incstack = 0
  5746                           ; Regs used in _ModuloOff: [wreg]
  5747                           ;main.c: 108:     do { LATBbits.LATB1 = 0; } while(0); _delay((unsigned long)((10)*(1600
      +                          0000/4000.0)));
  5748                           
  5749  0D9F  0022               	movlb	2	; select bank2
  5750  0DA0  108D               	bcf	13,1	;volatile
  5751  0DA1                     l2510:
  5752  0DA1  3034               	movlw	52
  5753  0DA2  00F1               	movwf	??_ModuloOff
  5754  0DA3  30F2               	movlw	242
  5755  0DA4                     u2657:
  5756  0DA4  0B89               	decfsz	9,f
  5757  0DA5  2DA4               	goto	u2657
  5758  0DA6  0BF1               	decfsz	??_ModuloOff,f
  5759  0DA7  2DA4               	goto	u2657
  5760  0DA8                     l2512:
  5761  0DA8  0021               	movlb	1	; select bank1
  5762  0DA9  108D               	bcf	13,1	;volatile
  5763  0DAA                     l486:
  5764  0DAA  3034               	movlw	52
  5765  0DAB  00F1               	movwf	??_ModuloOff
  5766  0DAC  30F2               	movlw	242
  5767  0DAD                     u2667:
  5768  0DAD  0B89               	decfsz	9,f
  5769  0DAE  2DAD               	goto	u2667
  5770  0DAF  0BF1               	decfsz	??_ModuloOff,f
  5771  0DB0  2DAD               	goto	u2667
  5772  0DB1                     l487:
  5773  0DB1  0008               	return
  5774  0DB2                     __end_of_ModuloOff:
  5775                           
  5776                           	psect	text19
  5777  0FC1                     __ptext19:	
  5778 ;; *************** function _EUSART_Initialize *****************
  5779 ;; Defined at:
  5780 ;;		line 75 in file "mcc_generated_files/eusart.c"
  5781 ;; Parameters:    Size  Location     Type
  5782 ;;		None
  5783 ;; Auto vars:     Size  Location     Type
  5784 ;;		None
  5785 ;; Return value:  Size  Location     Type
  5786 ;;                  1    wreg      void 
  5787 ;; Registers used:
  5788 ;;		wreg, status,2, status,0, pclath, cstack
  5789 ;; Tracked objects:
  5790 ;;		On entry : 0/0
  5791 ;;		On exit  : 0/0
  5792 ;;		Unchanged: 0/0
  5793 ;; Data sizes:     COMMON   BANK0   BANK1   BANK2   BANK3   BANK4
  5794 ;;      Params:         0       0       0       0       0       0
  5795 ;;      Locals:         0       0       0       0       0       0
  5796 ;;      Temps:          1       0       0       0       0       0
  5797 ;;      Totals:         1       0       0       0       0       0
  5798 ;;Total ram usage:        1 bytes
  5799 ;; Hardware stack levels used: 1
  5800 ;; Hardware stack levels required when called: 5
  5801 ;; This function calls:
  5802 ;;		_EUSART_SetErrorHandler
  5803 ;;		_EUSART_SetFramingErrorHandler
  5804 ;;		_EUSART_SetOverrunErrorHandler
  5805 ;;		_EUSART_SetRxInterruptHandler
  5806 ;;		_EUSART_SetTxInterruptHandler
  5807 ;; This function is called by:
  5808 ;;		_main
  5809 ;; This function uses a non-reentrant model
  5810 ;;
  5811                           
  5812  0FC1                     _EUSART_Initialize:	
  5813                           ;psect for function _EUSART_Initialize
  5814                           
  5815  0FC1                     l2566:	
  5816                           ;incstack = 0
  5817                           ; Regs used in _EUSART_Initialize: [wreg+status,2+status,0+pclath+cstack]
  5818                           
  5819                           
  5820                           ;mcc_generated_files/eusart.c: 78:     PIE1bits.RCIE = 0;
  5821  0FC1  0021               	movlb	1	; select bank1
  5822  0FC2  1291               	bcf	17,5	;volatile
  5823  0FC3                     l2568:
  5824                           
  5825                           ;mcc_generated_files/eusart.c: 79:     EUSART_SetRxInterruptHandler(EUSART_Receive_ISR);
  5826  0FC3  3083               	movlw	low _EUSART_Receive_ISR
  5827  0FC4  00F1               	movwf	EUSART_SetRxInterruptHandler@interruptHandler
  5828  0FC5  300F               	movlw	high _EUSART_Receive_ISR
  5829  0FC6  00F2               	movwf	EUSART_SetRxInterruptHandler@interruptHandler+1
  5830  0FC7  318D  2586  318F   	fcall	_EUSART_SetRxInterruptHandler
  5831  0FCA                     l2570:
  5832                           
  5833                           ;mcc_generated_files/eusart.c: 80:     PIE1bits.TXIE = 0;
  5834  0FCA  0021               	movlb	1	; select bank1
  5835  0FCB  1211               	bcf	17,4	;volatile
  5836                           
  5837                           ;mcc_generated_files/eusart.c: 81:     EUSART_SetTxInterruptHandler(EUSART_Transmit_ISR)
      +                          ;
  5838  0FCC  30EA               	movlw	low _EUSART_Transmit_ISR
  5839  0FCD  00F1               	movwf	EUSART_SetTxInterruptHandler@interruptHandler
  5840  0FCE  300D               	movlw	high _EUSART_Transmit_ISR
  5841  0FCF  00F2               	movwf	EUSART_SetTxInterruptHandler@interruptHandler+1
  5842  0FD0  318D  258C  318F   	fcall	_EUSART_SetTxInterruptHandler
  5843  0FD3                     l2572:
  5844                           
  5845                           ;mcc_generated_files/eusart.c: 85:     BAUDCON = 0x08;
  5846  0FD3  3008               	movlw	8
  5847  0FD4  0023               	movlb	3	; select bank3
  5848  0FD5  009F               	movwf	31	;volatile
  5849  0FD6                     l2574:
  5850                           
  5851                           ;mcc_generated_files/eusart.c: 88:     RCSTA = 0x90;
  5852  0FD6  3090               	movlw	144
  5853  0FD7  009D               	movwf	29	;volatile
  5854  0FD8                     l2576:
  5855                           
  5856                           ;mcc_generated_files/eusart.c: 91:     TXSTA = 0x24;
  5857  0FD8  3024               	movlw	36
  5858  0FD9  009E               	movwf	30	;volatile
  5859  0FDA                     l2578:
  5860                           
  5861                           ;mcc_generated_files/eusart.c: 94:     SPBRGL = 0xA0;
  5862  0FDA  30A0               	movlw	160
  5863  0FDB  009B               	movwf	27	;volatile
  5864  0FDC                     l2580:
  5865                           
  5866                           ;mcc_generated_files/eusart.c: 97:     SPBRGH = 0x01;
  5867  0FDC  3001               	movlw	1
  5868  0FDD  009C               	movwf	28	;volatile
  5869  0FDE                     l2582:
  5870                           
  5871                           ;mcc_generated_files/eusart.c: 100:     EUSART_SetFramingErrorHandler(EUSART_DefaultFram
      +                          ingErrorHandler);
  5872  0FDE  3003               	movlw	low _EUSART_DefaultFramingErrorHandler
  5873  0FDF  00F1               	movwf	EUSART_SetFramingErrorHandler@interruptHandler
  5874  0FE0  3000               	movlw	high _EUSART_DefaultFramingErrorHandler
  5875  0FE1  00F2               	movwf	EUSART_SetFramingErrorHandler@interruptHandler+1
  5876  0FE2  318D  257A  318F   	fcall	_EUSART_SetFramingErrorHandler
  5877  0FE5                     l2584:
  5878                           
  5879                           ;mcc_generated_files/eusart.c: 101:     EUSART_SetOverrunErrorHandler(EUSART_DefaultOver
      +                          runErrorHandler);
  5880  0FE5  306C               	movlw	low _EUSART_DefaultOverrunErrorHandler
  5881  0FE6  00F1               	movwf	EUSART_SetOverrunErrorHandler@interruptHandler
  5882  0FE7  300D               	movlw	high _EUSART_DefaultOverrunErrorHandler
  5883  0FE8  00F2               	movwf	EUSART_SetOverrunErrorHandler@interruptHandler+1
  5884  0FE9  318D  2580  318F   	fcall	_EUSART_SetOverrunErrorHandler
  5885  0FEC                     l2586:
  5886                           
  5887                           ;mcc_generated_files/eusart.c: 102:     EUSART_SetErrorHandler(EUSART_DefaultErrorHandle
      +                          r);
  5888  0FEC  3068               	movlw	low _EUSART_DefaultErrorHandler
  5889  0FED  00F1               	movwf	EUSART_SetErrorHandler@interruptHandler
  5890  0FEE  300D               	movlw	high _EUSART_DefaultErrorHandler
  5891  0FEF  00F2               	movwf	EUSART_SetErrorHandler@interruptHandler+1
  5892  0FF0  318D  2574  318F   	fcall	_EUSART_SetErrorHandler
  5893  0FF3                     l2588:
  5894                           
  5895                           ;mcc_generated_files/eusart.c: 104:     eusartRxLastError.status = 0;
  5896  0FF3  0021               	movlb	1	; select bank1
  5897  0FF4  01E7               	clrf	_eusartRxLastError^(0+128)	;volatile
  5898  0FF5                     l2590:
  5899                           
  5900                           ;mcc_generated_files/eusart.c: 107:     eusartTxHead = 0;
  5901  0FF5  01ED               	clrf	_eusartTxHead^(0+128)	;volatile
  5902  0FF6                     l2592:
  5903                           
  5904                           ;mcc_generated_files/eusart.c: 108:     eusartTxTail = 0;
  5905  0FF6  01EC               	clrf	_eusartTxTail^(0+128)	;volatile
  5906  0FF7                     l2594:
  5907                           
  5908                           ;mcc_generated_files/eusart.c: 109:     eusartTxBufferRemaining = sizeof(eusartTxBuffer)
      +                          ;
  5909  0FF7  3020               	movlw	32
  5910  0FF8  00F3               	movwf	??_EUSART_Initialize
  5911  0FF9  0873               	movf	??_EUSART_Initialize,w
  5912  0FFA  00EB               	movwf	_eusartTxBufferRemaining^(0+128)	;volatile
  5913                           
  5914                           ;mcc_generated_files/eusart.c: 111:     eusartRxHead = 0;
  5915  0FFB  01EA               	clrf	_eusartRxHead^(0+128)	;volatile
  5916                           
  5917                           ;mcc_generated_files/eusart.c: 112:     eusartRxTail = 0;
  5918  0FFC  01E9               	clrf	_eusartRxTail^(0+128)	;volatile
  5919                           
  5920                           ;mcc_generated_files/eusart.c: 113:     eusartRxCount = 0;
  5921  0FFD  01E8               	clrf	_eusartRxCount^(0+128)	;volatile
  5922  0FFE                     l2596:
  5923                           
  5924                           ;mcc_generated_files/eusart.c: 116:     PIE1bits.RCIE = 1;
  5925  0FFE  1691               	bsf	17,5	;volatile
  5926  0FFF                     l146:
  5927  0FFF  0008               	return
  5928  1000                     __end_of_EUSART_Initialize:
  5929                           
  5930                           	psect	text20
  5931  0D8C                     __ptext20:	
  5932 ;; *************** function _EUSART_SetTxInterruptHandler *****************
  5933 ;; Defined at:
  5934 ;;		line 255 in file "mcc_generated_files/eusart.c"
  5935 ;; Parameters:    Size  Location     Type
  5936 ;;  interruptHan    2    1[COMMON] PTR FTN()void 
  5937 ;;		 -> EUSART_Transmit_ISR(1), 
  5938 ;; Auto vars:     Size  Location     Type
  5939 ;;		None
  5940 ;; Return value:  Size  Location     Type
  5941 ;;                  1    wreg      void 
  5942 ;; Registers used:
  5943 ;;		wreg
  5944 ;; Tracked objects:
  5945 ;;		On entry : 0/0
  5946 ;;		On exit  : 0/0
  5947 ;;		Unchanged: 0/0
  5948 ;; Data sizes:     COMMON   BANK0   BANK1   BANK2   BANK3   BANK4
  5949 ;;      Params:         2       0       0       0       0       0
  5950 ;;      Locals:         0       0       0       0       0       0
  5951 ;;      Temps:          0       0       0       0       0       0
  5952 ;;      Totals:         2       0       0       0       0       0
  5953 ;;Total ram usage:        2 bytes
  5954 ;; Hardware stack levels used: 1
  5955 ;; Hardware stack levels required when called: 4
  5956 ;; This function calls:
  5957 ;;		Nothing
  5958 ;; This function is called by:
  5959 ;;		_EUSART_Initialize
  5960 ;; This function uses a non-reentrant model
  5961 ;;
  5962                           
  5963  0D8C                     _EUSART_SetTxInterruptHandler:	
  5964                           ;psect for function _EUSART_SetTxInterruptHandler
  5965                           
  5966  0D8C                     l2476:	
  5967                           ;incstack = 0
  5968                           ; Regs used in _EUSART_SetTxInterruptHandler: [wreg]
  5969                           
  5970                           
  5971                           ;mcc_generated_files/eusart.c: 256:     EUSART_TxDefaultInterruptHandler = interruptHand
      +                          ler;
  5972  0D8C  0872               	movf	EUSART_SetTxInterruptHandler@interruptHandler+1,w
  5973  0D8D  0020               	movlb	0	; select bank0
  5974  0D8E  00EB               	movwf	_EUSART_TxDefaultInterruptHandler+1
  5975  0D8F  0871               	movf	EUSART_SetTxInterruptHandler@interruptHandler,w
  5976  0D90  00EA               	movwf	_EUSART_TxDefaultInterruptHandler
  5977  0D91                     l208:
  5978  0D91  0008               	return
  5979  0D92                     __end_of_EUSART_SetTxInterruptHandler:
  5980                           
  5981                           	psect	text21
  5982  0D86                     __ptext21:	
  5983 ;; *************** function _EUSART_SetRxInterruptHandler *****************
  5984 ;; Defined at:
  5985 ;;		line 259 in file "mcc_generated_files/eusart.c"
  5986 ;; Parameters:    Size  Location     Type
  5987 ;;  interruptHan    2    1[COMMON] PTR FTN()void 
  5988 ;;		 -> EUSART_Receive_ISR(1), 
  5989 ;; Auto vars:     Size  Location     Type
  5990 ;;		None
  5991 ;; Return value:  Size  Location     Type
  5992 ;;                  1    wreg      void 
  5993 ;; Registers used:
  5994 ;;		wreg
  5995 ;; Tracked objects:
  5996 ;;		On entry : 0/0
  5997 ;;		On exit  : 0/0
  5998 ;;		Unchanged: 0/0
  5999 ;; Data sizes:     COMMON   BANK0   BANK1   BANK2   BANK3   BANK4
  6000 ;;      Params:         2       0       0       0       0       0
  6001 ;;      Locals:         0       0       0       0       0       0
  6002 ;;      Temps:          0       0       0       0       0       0
  6003 ;;      Totals:         2       0       0       0       0       0
  6004 ;;Total ram usage:        2 bytes
  6005 ;; Hardware stack levels used: 1
  6006 ;; Hardware stack levels required when called: 4
  6007 ;; This function calls:
  6008 ;;		Nothing
  6009 ;; This function is called by:
  6010 ;;		_EUSART_Initialize
  6011 ;; This function uses a non-reentrant model
  6012 ;;
  6013                           
  6014  0D86                     _EUSART_SetRxInterruptHandler:	
  6015                           ;psect for function _EUSART_SetRxInterruptHandler
  6016                           
  6017  0D86                     l2474:	
  6018                           ;incstack = 0
  6019                           ; Regs used in _EUSART_SetRxInterruptHandler: [wreg]
  6020                           
  6021                           
  6022                           ;mcc_generated_files/eusart.c: 260:     EUSART_RxDefaultInterruptHandler = interruptHand
      +                          ler;
  6023  0D86  0872               	movf	EUSART_SetRxInterruptHandler@interruptHandler+1,w
  6024  0D87  0020               	movlb	0	; select bank0
  6025  0D88  00E9               	movwf	_EUSART_RxDefaultInterruptHandler+1
  6026  0D89  0871               	movf	EUSART_SetRxInterruptHandler@interruptHandler,w
  6027  0D8A  00E8               	movwf	_EUSART_RxDefaultInterruptHandler
  6028  0D8B                     l211:
  6029  0D8B  0008               	return
  6030  0D8C                     __end_of_EUSART_SetRxInterruptHandler:
  6031                           
  6032                           	psect	text22
  6033  0D80                     __ptext22:	
  6034 ;; *************** function _EUSART_SetOverrunErrorHandler *****************
  6035 ;; Defined at:
  6036 ;;		line 247 in file "mcc_generated_files/eusart.c"
  6037 ;; Parameters:    Size  Location     Type
  6038 ;;  interruptHan    2    1[COMMON] PTR FTN()void 
  6039 ;;		 -> EUSART_DefaultOverrunErrorHandler(1), 
  6040 ;; Auto vars:     Size  Location     Type
  6041 ;;		None
  6042 ;; Return value:  Size  Location     Type
  6043 ;;                  1    wreg      void 
  6044 ;; Registers used:
  6045 ;;		wreg
  6046 ;; Tracked objects:
  6047 ;;		On entry : 0/0
  6048 ;;		On exit  : 0/0
  6049 ;;		Unchanged: 0/0
  6050 ;; Data sizes:     COMMON   BANK0   BANK1   BANK2   BANK3   BANK4
  6051 ;;      Params:         2       0       0       0       0       0
  6052 ;;      Locals:         0       0       0       0       0       0
  6053 ;;      Temps:          0       0       0       0       0       0
  6054 ;;      Totals:         2       0       0       0       0       0
  6055 ;;Total ram usage:        2 bytes
  6056 ;; Hardware stack levels used: 1
  6057 ;; Hardware stack levels required when called: 4
  6058 ;; This function calls:
  6059 ;;		Nothing
  6060 ;; This function is called by:
  6061 ;;		_EUSART_Initialize
  6062 ;; This function uses a non-reentrant model
  6063 ;;
  6064                           
  6065  0D80                     _EUSART_SetOverrunErrorHandler:	
  6066                           ;psect for function _EUSART_SetOverrunErrorHandler
  6067                           
  6068  0D80                     l2480:	
  6069                           ;incstack = 0
  6070                           ; Regs used in _EUSART_SetOverrunErrorHandler: [wreg]
  6071                           
  6072                           
  6073                           ;mcc_generated_files/eusart.c: 248:     EUSART_OverrunErrorHandler = interruptHandler;
  6074  0D80  0872               	movf	EUSART_SetOverrunErrorHandler@interruptHandler+1,w
  6075  0D81  0021               	movlb	1	; select bank1
  6076  0D82  00DD               	movwf	(_EUSART_OverrunErrorHandler+1)^(0+128)
  6077  0D83  0871               	movf	EUSART_SetOverrunErrorHandler@interruptHandler,w
  6078  0D84  00DC               	movwf	_EUSART_OverrunErrorHandler^(0+128)
  6079  0D85                     l202:
  6080  0D85  0008               	return
  6081  0D86                     __end_of_EUSART_SetOverrunErrorHandler:
  6082                           
  6083                           	psect	text23
  6084  0D7A                     __ptext23:	
  6085 ;; *************** function _EUSART_SetFramingErrorHandler *****************
  6086 ;; Defined at:
  6087 ;;		line 243 in file "mcc_generated_files/eusart.c"
  6088 ;; Parameters:    Size  Location     Type
  6089 ;;  interruptHan    2    1[COMMON] PTR FTN()void 
  6090 ;;		 -> EUSART_DefaultFramingErrorHandler(1), 
  6091 ;; Auto vars:     Size  Location     Type
  6092 ;;		None
  6093 ;; Return value:  Size  Location     Type
  6094 ;;                  1    wreg      void 
  6095 ;; Registers used:
  6096 ;;		wreg
  6097 ;; Tracked objects:
  6098 ;;		On entry : 0/0
  6099 ;;		On exit  : 0/0
  6100 ;;		Unchanged: 0/0
  6101 ;; Data sizes:     COMMON   BANK0   BANK1   BANK2   BANK3   BANK4
  6102 ;;      Params:         2       0       0       0       0       0
  6103 ;;      Locals:         0       0       0       0       0       0
  6104 ;;      Temps:          0       0       0       0       0       0
  6105 ;;      Totals:         2       0       0       0       0       0
  6106 ;;Total ram usage:        2 bytes
  6107 ;; Hardware stack levels used: 1
  6108 ;; Hardware stack levels required when called: 4
  6109 ;; This function calls:
  6110 ;;		Nothing
  6111 ;; This function is called by:
  6112 ;;		_EUSART_Initialize
  6113 ;; This function uses a non-reentrant model
  6114 ;;
  6115                           
  6116  0D7A                     _EUSART_SetFramingErrorHandler:	
  6117                           ;psect for function _EUSART_SetFramingErrorHandler
  6118                           
  6119  0D7A                     l2478:	
  6120                           ;incstack = 0
  6121                           ; Regs used in _EUSART_SetFramingErrorHandler: [wreg]
  6122                           
  6123                           
  6124                           ;mcc_generated_files/eusart.c: 244:     EUSART_FramingErrorHandler = interruptHandler;
  6125  0D7A  0872               	movf	EUSART_SetFramingErrorHandler@interruptHandler+1,w
  6126  0D7B  0021               	movlb	1	; select bank1
  6127  0D7C  00DF               	movwf	(_EUSART_FramingErrorHandler+1)^(0+128)
  6128  0D7D  0871               	movf	EUSART_SetFramingErrorHandler@interruptHandler,w
  6129  0D7E  00DE               	movwf	_EUSART_FramingErrorHandler^(0+128)
  6130  0D7F                     l199:
  6131  0D7F  0008               	return
  6132  0D80                     __end_of_EUSART_SetFramingErrorHandler:
  6133                           
  6134                           	psect	text24
  6135  0D74                     __ptext24:	
  6136 ;; *************** function _EUSART_SetErrorHandler *****************
  6137 ;; Defined at:
  6138 ;;		line 251 in file "mcc_generated_files/eusart.c"
  6139 ;; Parameters:    Size  Location     Type
  6140 ;;  interruptHan    2    1[COMMON] PTR FTN()void 
  6141 ;;		 -> EUSART_DefaultErrorHandler(1), 
  6142 ;; Auto vars:     Size  Location     Type
  6143 ;;		None
  6144 ;; Return value:  Size  Location     Type
  6145 ;;                  1    wreg      void 
  6146 ;; Registers used:
  6147 ;;		wreg
  6148 ;; Tracked objects:
  6149 ;;		On entry : 0/0
  6150 ;;		On exit  : 0/0
  6151 ;;		Unchanged: 0/0
  6152 ;; Data sizes:     COMMON   BANK0   BANK1   BANK2   BANK3   BANK4
  6153 ;;      Params:         2       0       0       0       0       0
  6154 ;;      Locals:         0       0       0       0       0       0
  6155 ;;      Temps:          0       0       0       0       0       0
  6156 ;;      Totals:         2       0       0       0       0       0
  6157 ;;Total ram usage:        2 bytes
  6158 ;; Hardware stack levels used: 1
  6159 ;; Hardware stack levels required when called: 4
  6160 ;; This function calls:
  6161 ;;		Nothing
  6162 ;; This function is called by:
  6163 ;;		_EUSART_Initialize
  6164 ;; This function uses a non-reentrant model
  6165 ;;
  6166                           
  6167  0D74                     _EUSART_SetErrorHandler:	
  6168                           ;psect for function _EUSART_SetErrorHandler
  6169                           
  6170  0D74                     l2482:	
  6171                           ;incstack = 0
  6172                           ; Regs used in _EUSART_SetErrorHandler: [wreg]
  6173                           
  6174                           
  6175                           ;mcc_generated_files/eusart.c: 252:     EUSART_ErrorHandler = interruptHandler;
  6176  0D74  0872               	movf	EUSART_SetErrorHandler@interruptHandler+1,w
  6177  0D75  0021               	movlb	1	; select bank1
  6178  0D76  00DB               	movwf	(_EUSART_ErrorHandler+1)^(0+128)
  6179  0D77  0871               	movf	EUSART_SetErrorHandler@interruptHandler,w
  6180  0D78  00DA               	movwf	_EUSART_ErrorHandler^(0+128)
  6181  0D79                     l205:
  6182  0D79  0008               	return
  6183  0D7A                     __end_of_EUSART_SetErrorHandler:
  6184                           
  6185                           	psect	intentry
  6186  0004                     __pintentry:	
  6187 ;; *************** function _INTERRUPT_InterruptManager *****************
  6188 ;; Defined at:
  6189 ;;		line 52 in file "mcc_generated_files/interrupt_manager.c"
  6190 ;; Parameters:    Size  Location     Type
  6191 ;;		None
  6192 ;; Auto vars:     Size  Location     Type
  6193 ;;		None
  6194 ;; Return value:  Size  Location     Type
  6195 ;;                  1    wreg      void 
  6196 ;; Registers used:
  6197 ;;		wreg, fsr1l, fsr1h, status,2, status,0, pclath, cstack
  6198 ;; Tracked objects:
  6199 ;;		On entry : 0/0
  6200 ;;		On exit  : 0/0
  6201 ;;		Unchanged: 0/0
  6202 ;; Data sizes:     COMMON   BANK0   BANK1   BANK2   BANK3   BANK4
  6203 ;;      Params:         0       0       0       0       0       0
  6204 ;;      Locals:         0       0       0       0       0       0
  6205 ;;      Temps:          0       0       0       0       0       0
  6206 ;;      Totals:         0       0       0       0       0       0
  6207 ;;Total ram usage:        0 bytes
  6208 ;; Hardware stack levels used: 1
  6209 ;; Hardware stack levels required when called: 3
  6210 ;; This function calls:
  6211 ;;		Absolute function
  6212 ;;		_EUSART_Receive_ISR
  6213 ;;		_EUSART_Transmit_ISR
  6214 ;; This function is called by:
  6215 ;;		Interrupt level 1
  6216 ;; This function uses a non-reentrant model
  6217 ;;
  6218                           
  6219  0004                     _INTERRUPT_InterruptManager:
  6220                           
  6221                           ;incstack = 0
  6222  0004  147E               	bsf	int$flags,0	;set compiler interrupt flag (level 1)
  6223                           
  6224                           ; Regs used in _INTERRUPT_InterruptManager: [wreg+fsr1l+fsr1h+status,2+status,0+pclath+c
      +                          stack]
  6225  0005  3180               	pagesel	$
  6226  0006                     i1l2824:
  6227                           
  6228                           ;mcc_generated_files/interrupt_manager.c: 55:     if(INTCONbits.PEIE == 1)
  6229  0006  1F0B               	btfss	11,6	;volatile
  6230  0007  2809               	goto	u166_21
  6231  0008  280A               	goto	u166_20
  6232  0009                     u166_21:
  6233  0009  282A               	goto	i1l38
  6234  000A                     u166_20:
  6235  000A                     i1l2826:
  6236                           
  6237                           ;mcc_generated_files/interrupt_manager.c: 56:     {;mcc_generated_files/interrupt_manage
      +                          r.c: 57:         if(PIE1bits.TXIE == 1 && PIR1bits.TXIF == 1)
  6238  000A  0021               	movlb	1	; select bank1
  6239  000B  1E11               	btfss	17,4	;volatile
  6240  000C  280E               	goto	u167_21
  6241  000D  280F               	goto	u167_20
  6242  000E                     u167_21:
  6243  000E  281A               	goto	i1l33
  6244  000F                     u167_20:
  6245  000F                     i1l2828:
  6246  000F  0020               	movlb	0	; select bank0
  6247  0010  1E11               	btfss	17,4	;volatile
  6248  0011  2813               	goto	u168_21
  6249  0012  2814               	goto	u168_20
  6250  0013                     u168_21:
  6251  0013  281A               	goto	i1l33
  6252  0014                     u168_20:
  6253  0014                     i1l2830:
  6254                           
  6255                           ;mcc_generated_files/interrupt_manager.c: 58:         {;mcc_generated_files/interrupt_ma
      +                          nager.c: 59:             EUSART_TxDefaultInterruptHandler();
  6256  0014  086B               	movf	_EUSART_TxDefaultInterruptHandler+1,w
  6257  0015  008A               	movwf	10
  6258  0016  086A               	movf	_EUSART_TxDefaultInterruptHandler,w
  6259  0017  000A               	callw
  6260  0018  3180               	pagesel	$
  6261                           
  6262                           ;mcc_generated_files/interrupt_manager.c: 60:         }
  6263  0019  282A               	goto	i1l38
  6264  001A                     i1l33:	
  6265                           ;mcc_generated_files/interrupt_manager.c: 61:         else if(PIE1bits.RCIE == 1 && PIR1
      +                          bits.RCIF == 1)
  6266                           
  6267  001A  0021               	movlb	1	; select bank1
  6268  001B  1E91               	btfss	17,5	;volatile
  6269  001C  281E               	goto	u169_21
  6270  001D  281F               	goto	u169_20
  6271  001E                     u169_21:
  6272  001E  282A               	goto	i1l34
  6273  001F                     u169_20:
  6274  001F                     i1l2832:
  6275  001F  0020               	movlb	0	; select bank0
  6276  0020  1E91               	btfss	17,5	;volatile
  6277  0021  2823               	goto	u170_21
  6278  0022  2824               	goto	u170_20
  6279  0023                     u170_21:
  6280  0023  282A               	goto	i1l34
  6281  0024                     u170_20:
  6282  0024                     i1l2834:
  6283                           
  6284                           ;mcc_generated_files/interrupt_manager.c: 62:         {;mcc_generated_files/interrupt_ma
      +                          nager.c: 63:             EUSART_RxDefaultInterruptHandler();
  6285  0024  0869               	movf	_EUSART_RxDefaultInterruptHandler+1,w
  6286  0025  008A               	movwf	10
  6287  0026  0868               	movf	_EUSART_RxDefaultInterruptHandler,w
  6288  0027  000A               	callw
  6289  0028  3180               	pagesel	$
  6290                           
  6291                           ;mcc_generated_files/interrupt_manager.c: 64:         }
  6292  0029  282A               	goto	i1l38
  6293  002A                     i1l34:
  6294  002A                     i1l38:	
  6295                           ;mcc_generated_files/interrupt_manager.c: 69:     }
  6296                           
  6297  002A  107E               	bcf	int$flags,0	;clear compiler interrupt flag (level 1)
  6298  002B  0009               	retfie
  6299  002C                     __end_of_INTERRUPT_InterruptManager:
  6300                           
  6301                           	psect	text26
  6302  0DEA                     __ptext26:	
  6303 ;; *************** function _EUSART_Transmit_ISR *****************
  6304 ;; Defined at:
  6305 ;;		line 186 in file "mcc_generated_files/eusart.c"
  6306 ;; Parameters:    Size  Location     Type
  6307 ;;		None
  6308 ;; Auto vars:     Size  Location     Type
  6309 ;;		None
  6310 ;; Return value:  Size  Location     Type
  6311 ;;                  1    wreg      void 
  6312 ;; Registers used:
  6313 ;;		wreg, fsr1l, fsr1h, status,2, status,0
  6314 ;; Tracked objects:
  6315 ;;		On entry : 0/0
  6316 ;;		On exit  : 0/0
  6317 ;;		Unchanged: 0/0
  6318 ;; Data sizes:     COMMON   BANK0   BANK1   BANK2   BANK3   BANK4
  6319 ;;      Params:         0       0       0       0       0       0
  6320 ;;      Locals:         0       0       0       0       0       0
  6321 ;;      Temps:          1       0       0       0       0       0
  6322 ;;      Totals:         1       0       0       0       0       0
  6323 ;;Total ram usage:        1 bytes
  6324 ;; Hardware stack levels used: 1
  6325 ;; This function calls:
  6326 ;;		Nothing
  6327 ;; This function is called by:
  6328 ;;		_EUSART_Initialize
  6329 ;;		_INTERRUPT_InterruptManager
  6330 ;; This function uses a non-reentrant model
  6331 ;;
  6332                           
  6333  0DEA                     _EUSART_Transmit_ISR:	
  6334                           ;psect for function _EUSART_Transmit_ISR
  6335                           
  6336  0DEA                     i1l2598:	
  6337                           ;incstack = 0
  6338                           ; Regs used in _EUSART_Transmit_ISR: [wreg+fsr1l+fsr1h+status,2+status,0]
  6339                           
  6340                           
  6341                           ;mcc_generated_files/eusart.c: 190:     if(sizeof(eusartTxBuffer) > eusartTxBufferRemain
      +                          ing)
  6342  0DEA  3020               	movlw	32
  6343  0DEB  0021               	movlb	1	; select bank1
  6344  0DEC  026B               	subwf	_eusartTxBufferRemaining^(0+128),w	;volatile
  6345  0DED  1803               	skipnc
  6346  0DEE  2DF0               	goto	u138_21
  6347  0DEF  2DF1               	goto	u138_20
  6348  0DF0                     u138_21:
  6349  0DF0  2E09               	goto	i1l177
  6350  0DF1                     u138_20:
  6351  0DF1                     i1l2600:
  6352                           
  6353                           ;mcc_generated_files/eusart.c: 191:     {;mcc_generated_files/eusart.c: 192:         TXR
      +                          EG = eusartTxBuffer[eusartTxTail++];
  6354  0DF1  086C               	movf	_eusartTxTail^(0+128),w
  6355  0DF2  3EA0               	addlw	(low (_eusartTxBuffer| 0))& (0+255)
  6356  0DF3  0086               	movwf	6
  6357  0DF4  0187               	clrf	7
  6358  0DF5  0801               	movf	1,w
  6359  0DF6  0023               	movlb	3	; select bank3
  6360  0DF7  009A               	movwf	26	;volatile
  6361  0DF8                     i1l2602:
  6362  0DF8  3001               	movlw	1
  6363  0DF9  00F0               	movwf	??_EUSART_Transmit_ISR
  6364  0DFA  0870               	movf	??_EUSART_Transmit_ISR,w
  6365  0DFB  0021               	movlb	1	; select bank1
  6366  0DFC  07EC               	addwf	_eusartTxTail^(0+128),f	;volatile
  6367  0DFD                     i1l2604:
  6368                           
  6369                           ;mcc_generated_files/eusart.c: 193:         if(sizeof(eusartTxBuffer) <= eusartTxTail)
  6370  0DFD  3020               	movlw	32
  6371  0DFE  026C               	subwf	_eusartTxTail^(0+128),w	;volatile
  6372  0DFF  1C03               	skipc
  6373  0E00  2E02               	goto	u139_21
  6374  0E01  2E03               	goto	u139_20
  6375  0E02                     u139_21:
  6376  0E02  2E04               	goto	i1l2608
  6377  0E03                     u139_20:
  6378  0E03                     i1l2606:
  6379                           
  6380                           ;mcc_generated_files/eusart.c: 194:         {;mcc_generated_files/eusart.c: 195:        
      +                               eusartTxTail = 0;
  6381  0E03  01EC               	clrf	_eusartTxTail^(0+128)	;volatile
  6382  0E04                     i1l2608:
  6383                           
  6384                           ;mcc_generated_files/eusart.c: 197:         eusartTxBufferRemaining++;
  6385  0E04  3001               	movlw	1
  6386  0E05  00F0               	movwf	??_EUSART_Transmit_ISR
  6387  0E06  0870               	movf	??_EUSART_Transmit_ISR,w
  6388  0E07  07EB               	addwf	_eusartTxBufferRemaining^(0+128),f	;volatile
  6389                           
  6390                           ;mcc_generated_files/eusart.c: 198:     }
  6391  0E08  2E0A               	goto	i1l180
  6392  0E09                     i1l177:	
  6393                           ;mcc_generated_files/eusart.c: 199:     else
  6394                           
  6395                           
  6396                           ;mcc_generated_files/eusart.c: 200:     {;mcc_generated_files/eusart.c: 201:         PIE
      +                          1bits.TXIE = 0;
  6397  0E09  1211               	bcf	17,4	;volatile
  6398  0E0A                     i1l180:
  6399  0E0A  0008               	return
  6400  0E0B                     __end_of_EUSART_Transmit_ISR:
  6401                           
  6402                           	psect	text27
  6403  0F83                     __ptext27:	
  6404 ;; *************** function _EUSART_Receive_ISR *****************
  6405 ;; Defined at:
  6406 ;;		line 205 in file "mcc_generated_files/eusart.c"
  6407 ;; Parameters:    Size  Location     Type
  6408 ;;		None
  6409 ;; Auto vars:     Size  Location     Type
  6410 ;;		None
  6411 ;; Return value:  Size  Location     Type
  6412 ;;                  1    wreg      void 
  6413 ;; Registers used:
  6414 ;;		wreg, fsr1l, fsr1h, status,2, status,0, pclath, cstack
  6415 ;; Tracked objects:
  6416 ;;		On entry : 0/0
  6417 ;;		On exit  : 0/0
  6418 ;;		Unchanged: 0/0
  6419 ;; Data sizes:     COMMON   BANK0   BANK1   BANK2   BANK3   BANK4
  6420 ;;      Params:         0       0       0       0       0       0
  6421 ;;      Locals:         0       0       0       0       0       0
  6422 ;;      Temps:          0       0       0       0       0       0
  6423 ;;      Totals:         0       0       0       0       0       0
  6424 ;;Total ram usage:        0 bytes
  6425 ;; Hardware stack levels used: 1
  6426 ;; Hardware stack levels required when called: 2
  6427 ;; This function calls:
  6428 ;;		Absolute function
  6429 ;;		_EUSART_DefaultErrorHandler
  6430 ;;		_EUSART_DefaultFramingErrorHandler
  6431 ;;		_EUSART_DefaultOverrunErrorHandler
  6432 ;;		_EUSART_RxDataHandler
  6433 ;; This function is called by:
  6434 ;;		_EUSART_Initialize
  6435 ;;		_INTERRUPT_InterruptManager
  6436 ;; This function uses a non-reentrant model
  6437 ;;
  6438                           
  6439  0F83                     _EUSART_Receive_ISR:	
  6440                           ;psect for function _EUSART_Receive_ISR
  6441                           
  6442  0F83                     i1l2610:	
  6443                           ;incstack = 0
  6444                           ; Regs used in _EUSART_Receive_ISR: [wreg+fsr1l+fsr1h+status,2+status,0+pclath+cstack]
  6445                           
  6446                           
  6447                           ;mcc_generated_files/eusart.c: 208:     eusartRxStatusBuffer[eusartRxHead].status = 0;
  6448  0F83  0021               	movlb	1	; select bank1
  6449  0F84  086A               	movf	_eusartRxHead^(0+128),w	;volatile
  6450  0F85  3EA0               	addlw	(low (_eusartRxStatusBuffer| (0+256)))& (0+255)
  6451  0F86  0086               	movwf	6
  6452  0F87  3001               	movlw	1	; select bank3/4
  6453  0F88  0087               	movwf	7
  6454  0F89  0181               	clrf	1
  6455  0F8A                     i1l2612:
  6456                           
  6457                           ;mcc_generated_files/eusart.c: 210:     if(RCSTAbits.FERR){
  6458  0F8A  0023               	movlb	3	; select bank3
  6459  0F8B  1D1D               	btfss	29,2	;volatile
  6460  0F8C  2F8E               	goto	u140_21
  6461  0F8D  2F8F               	goto	u140_20
  6462  0F8E                     u140_21:
  6463  0F8E  2F9B               	goto	i1l2618
  6464  0F8F                     u140_20:
  6465  0F8F                     i1l2614:
  6466                           
  6467                           ;mcc_generated_files/eusart.c: 211:         eusartRxStatusBuffer[eusartRxHead].ferr = 1;
  6468  0F8F  0021               	movlb	1	; select bank1
  6469  0F90  086A               	movf	_eusartRxHead^(0+128),w	;volatile
  6470  0F91  3EA0               	addlw	(low (_eusartRxStatusBuffer| (0+256)))& (0+255)
  6471  0F92  0086               	movwf	6
  6472  0F93  3001               	movlw	1	; select bank3/4
  6473  0F94  0087               	movwf	7
  6474  0F95  1481               	bsf	1,1
  6475  0F96                     i1l2616:
  6476                           
  6477                           ;mcc_generated_files/eusart.c: 212:         EUSART_FramingErrorHandler();
  6478  0F96  085F               	movf	(_EUSART_FramingErrorHandler+1)^(0+128),w
  6479  0F97  008A               	movwf	10
  6480  0F98  085E               	movf	_EUSART_FramingErrorHandler^(0+128),w
  6481  0F99  000A               	callw
  6482  0F9A  318F               	pagesel	$
  6483  0F9B                     i1l2618:
  6484                           
  6485                           ;mcc_generated_files/eusart.c: 215:     if(RCSTAbits.OERR){
  6486  0F9B  0023               	movlb	3	; select bank3
  6487  0F9C  1C9D               	btfss	29,1	;volatile
  6488  0F9D  2F9F               	goto	u141_21
  6489  0F9E  2FA0               	goto	u141_20
  6490  0F9F                     u141_21:
  6491  0F9F  2FAC               	goto	i1l2624
  6492  0FA0                     u141_20:
  6493  0FA0                     i1l2620:
  6494                           
  6495                           ;mcc_generated_files/eusart.c: 216:         eusartRxStatusBuffer[eusartRxHead].oerr = 1;
  6496  0FA0  0021               	movlb	1	; select bank1
  6497  0FA1  086A               	movf	_eusartRxHead^(0+128),w	;volatile
  6498  0FA2  3EA0               	addlw	(low (_eusartRxStatusBuffer| (0+256)))& (0+255)
  6499  0FA3  0086               	movwf	6
  6500  0FA4  3001               	movlw	1	; select bank3/4
  6501  0FA5  0087               	movwf	7
  6502  0FA6  1501               	bsf	1,2
  6503  0FA7                     i1l2622:
  6504                           
  6505                           ;mcc_generated_files/eusart.c: 217:         EUSART_OverrunErrorHandler();
  6506  0FA7  085D               	movf	(_EUSART_OverrunErrorHandler+1)^(0+128),w
  6507  0FA8  008A               	movwf	10
  6508  0FA9  085C               	movf	_EUSART_OverrunErrorHandler^(0+128),w
  6509  0FAA  000A               	callw
  6510  0FAB  318F               	pagesel	$
  6511  0FAC                     i1l2624:
  6512                           
  6513                           ;mcc_generated_files/eusart.c: 220:     if(eusartRxStatusBuffer[eusartRxHead].status){
  6514  0FAC  0021               	movlb	1	; select bank1
  6515  0FAD  086A               	movf	_eusartRxHead^(0+128),w	;volatile
  6516  0FAE  3EA0               	addlw	(low (_eusartRxStatusBuffer| (0+256)))& (0+255)
  6517  0FAF  0086               	movwf	6
  6518  0FB0  3001               	movlw	1	; select bank3/4
  6519  0FB1  0087               	movwf	7
  6520  0FB2  0801               	movf	1,w
  6521  0FB3  1903               	btfsc	3,2
  6522  0FB4  2FB6               	goto	u142_21
  6523  0FB5  2FB7               	goto	u142_20
  6524  0FB6                     u142_21:
  6525  0FB6  2FBD               	goto	i1l2628
  6526  0FB7                     u142_20:
  6527  0FB7                     i1l2626:
  6528                           
  6529                           ;mcc_generated_files/eusart.c: 221:         EUSART_ErrorHandler();
  6530  0FB7  085B               	movf	(_EUSART_ErrorHandler+1)^(0+128),w
  6531  0FB8  008A               	movwf	10
  6532  0FB9  085A               	movf	_EUSART_ErrorHandler^(0+128),w
  6533  0FBA  000A               	callw
  6534  0FBB  318F               	pagesel	$
  6535                           
  6536                           ;mcc_generated_files/eusart.c: 222:     } else {
  6537  0FBC  2FC0               	goto	i1l187
  6538  0FBD                     i1l2628:
  6539                           
  6540                           ;mcc_generated_files/eusart.c: 223:         EUSART_RxDataHandler();
  6541  0FBD  3185  2516  318F   	fcall	_EUSART_RxDataHandler
  6542  0FC0                     i1l187:
  6543  0FC0  0008               	return
  6544  0FC1                     __end_of_EUSART_Receive_ISR:
  6545                           
  6546                           	psect	text28
  6547  0D6C                     __ptext28:	
  6548 ;; *************** function _EUSART_DefaultOverrunErrorHandler *****************
  6549 ;; Defined at:
  6550 ;;		line 231 in file "mcc_generated_files/eusart.c"
  6551 ;; Parameters:    Size  Location     Type
  6552 ;;		None
  6553 ;; Auto vars:     Size  Location     Type
  6554 ;;		None
  6555 ;; Return value:  Size  Location     Type
  6556 ;;                  1    wreg      void 
  6557 ;; Registers used:
  6558 ;;		None
  6559 ;; Tracked objects:
  6560 ;;		On entry : 0/0
  6561 ;;		On exit  : 0/0
  6562 ;;		Unchanged: 0/0
  6563 ;; Data sizes:     COMMON   BANK0   BANK1   BANK2   BANK3   BANK4
  6564 ;;      Params:         0       0       0       0       0       0
  6565 ;;      Locals:         0       0       0       0       0       0
  6566 ;;      Temps:          0       0       0       0       0       0
  6567 ;;      Totals:         0       0       0       0       0       0
  6568 ;;Total ram usage:        0 bytes
  6569 ;; Hardware stack levels used: 1
  6570 ;; This function calls:
  6571 ;;		Nothing
  6572 ;; This function is called by:
  6573 ;;		_EUSART_Initialize
  6574 ;;		_EUSART_Receive_ISR
  6575 ;; This function uses a non-reentrant model
  6576 ;;
  6577                           
  6578  0D6C                     _EUSART_DefaultOverrunErrorHandler:	
  6579                           ;psect for function _EUSART_DefaultOverrunErrorHandler
  6580                           
  6581  0D6C                     i1l2484:	
  6582                           ;incstack = 0
  6583                           ; Regs used in _EUSART_DefaultOverrunErrorHandler: []
  6584                           
  6585                           
  6586                           ;mcc_generated_files/eusart.c: 234:     RCSTAbits.CREN = 0;
  6587  0D6C  0023               	movlb	3	; select bank3
  6588  0D6D  121D               	bcf	29,4	;volatile
  6589                           
  6590                           ;mcc_generated_files/eusart.c: 235:     RCSTAbits.CREN = 1;
  6591  0D6E  161D               	bsf	29,4	;volatile
  6592  0D6F                     i1l193:
  6593  0D6F  0008               	return
  6594  0D70                     __end_of_EUSART_DefaultOverrunErrorHandler:
  6595                           
  6596                           	psect	text29
  6597  0003                     __ptext29:	
  6598 ;; *************** function _EUSART_DefaultFramingErrorHandler *****************
  6599 ;; Defined at:
  6600 ;;		line 229 in file "mcc_generated_files/eusart.c"
  6601 ;; Parameters:    Size  Location     Type
  6602 ;;		None
  6603 ;; Auto vars:     Size  Location     Type
  6604 ;;		None
  6605 ;; Return value:  Size  Location     Type
  6606 ;;                  1    wreg      void 
  6607 ;; Registers used:
  6608 ;;		None
  6609 ;; Tracked objects:
  6610 ;;		On entry : 0/0
  6611 ;;		On exit  : 0/0
  6612 ;;		Unchanged: 0/0
  6613 ;; Data sizes:     COMMON   BANK0   BANK1   BANK2   BANK3   BANK4
  6614 ;;      Params:         0       0       0       0       0       0
  6615 ;;      Locals:         0       0       0       0       0       0
  6616 ;;      Temps:          0       0       0       0       0       0
  6617 ;;      Totals:         0       0       0       0       0       0
  6618 ;;Total ram usage:        0 bytes
  6619 ;; Hardware stack levels used: 1
  6620 ;; This function calls:
  6621 ;;		Nothing
  6622 ;; This function is called by:
  6623 ;;		_EUSART_Initialize
  6624 ;;		_EUSART_Receive_ISR
  6625 ;; This function uses a non-reentrant model
  6626 ;;
  6627                           
  6628  0003                     _EUSART_DefaultFramingErrorHandler:	
  6629                           ;psect for function _EUSART_DefaultFramingErrorHandler
  6630                           
  6631  0003                     i1l190:	
  6632                           ;incstack = 0
  6633                           ; Regs used in _EUSART_DefaultFramingErrorHandler: []
  6634                           
  6635  0003  0008               	return
  6636  0004                     __end_of_EUSART_DefaultFramingErrorHandler:
  6637                           
  6638                           	psect	text30
  6639  0D68                     __ptext30:	
  6640 ;; *************** function _EUSART_DefaultErrorHandler *****************
  6641 ;; Defined at:
  6642 ;;		line 239 in file "mcc_generated_files/eusart.c"
  6643 ;; Parameters:    Size  Location     Type
  6644 ;;		None
  6645 ;; Auto vars:     Size  Location     Type
  6646 ;;		None
  6647 ;; Return value:  Size  Location     Type
  6648 ;;                  1    wreg      void 
  6649 ;; Registers used:
  6650 ;;		wreg, fsr1l, fsr1h, status,2, status,0, pclath, cstack
  6651 ;; Tracked objects:
  6652 ;;		On entry : 0/0
  6653 ;;		On exit  : 0/0
  6654 ;;		Unchanged: 0/0
  6655 ;; Data sizes:     COMMON   BANK0   BANK1   BANK2   BANK3   BANK4
  6656 ;;      Params:         0       0       0       0       0       0
  6657 ;;      Locals:         0       0       0       0       0       0
  6658 ;;      Temps:          0       0       0       0       0       0
  6659 ;;      Totals:         0       0       0       0       0       0
  6660 ;;Total ram usage:        0 bytes
  6661 ;; Hardware stack levels used: 1
  6662 ;; Hardware stack levels required when called: 1
  6663 ;; This function calls:
  6664 ;;		_EUSART_RxDataHandler
  6665 ;; This function is called by:
  6666 ;;		_EUSART_Initialize
  6667 ;;		_EUSART_Receive_ISR
  6668 ;; This function uses a non-reentrant model
  6669 ;;
  6670                           
  6671  0D68                     _EUSART_DefaultErrorHandler:	
  6672                           ;psect for function _EUSART_DefaultErrorHandler
  6673                           
  6674  0D68                     i1l2486:	
  6675                           ;incstack = 0
  6676                           ; Regs used in _EUSART_DefaultErrorHandler: [wreg+fsr1l+fsr1h+status,2+status,0+pclath+c
      +                          stack]
  6677                           
  6678                           
  6679                           ;mcc_generated_files/eusart.c: 240:     EUSART_RxDataHandler();
  6680  0D68  3185  2516  318D   	fcall	_EUSART_RxDataHandler
  6681  0D6B                     i1l196:
  6682  0D6B  0008               	return
  6683  0D6C                     __end_of_EUSART_DefaultErrorHandler:
  6684                           
  6685                           	psect	text31
  6686  0516                     __ptext31:	
  6687 ;; *************** function _EUSART_RxDataHandler *****************
  6688 ;; Defined at:
  6689 ;;		line 264 in file "mcc_generated_files/eusart.c"
  6690 ;; Parameters:    Size  Location     Type
  6691 ;;		None
  6692 ;; Auto vars:     Size  Location     Type
  6693 ;;		None
  6694 ;; Return value:  Size  Location     Type
  6695 ;;                  1    wreg      void 
  6696 ;; Registers used:
  6697 ;;		wreg, fsr1l, fsr1h, status,2, status,0
  6698 ;; Tracked objects:
  6699 ;;		On entry : 0/0
  6700 ;;		On exit  : 0/0
  6701 ;;		Unchanged: 0/0
  6702 ;; Data sizes:     COMMON   BANK0   BANK1   BANK2   BANK3   BANK4
  6703 ;;      Params:         0       0       0       0       0       0
  6704 ;;      Locals:         0       0       0       0       0       0
  6705 ;;      Temps:          1       0       0       0       0       0
  6706 ;;      Totals:         1       0       0       0       0       0
  6707 ;;Total ram usage:        1 bytes
  6708 ;; Hardware stack levels used: 1
  6709 ;; This function calls:
  6710 ;;		Nothing
  6711 ;; This function is called by:
  6712 ;;		_EUSART_Receive_ISR
  6713 ;;		_EUSART_DefaultErrorHandler
  6714 ;; This function uses a non-reentrant model
  6715 ;;
  6716                           
  6717  0516                     _EUSART_RxDataHandler:	
  6718                           ;psect for function _EUSART_RxDataHandler
  6719                           
  6720  0516                     i1l2372:	
  6721                           ;incstack = 0
  6722                           ; Regs used in _EUSART_RxDataHandler: [wreg+fsr1l+fsr1h+status,2+status,0]
  6723                           
  6724                           
  6725                           ;mcc_generated_files/eusart.c: 266:     TotalSerial++;
  6726  0516  3001               	movlw	1
  6727  0517  0020               	movlb	0	; select bank0
  6728  0518  07E6               	addwf	_TotalSerial,f	;volatile
  6729  0519  3000               	movlw	0
  6730  051A  3DE7               	addwfc	_TotalSerial+1,f	;volatile
  6731                           
  6732                           ;mcc_generated_files/eusart.c: 267:     UltimoDadoRecebido = RCREG;
  6733  051B  0023               	movlb	3	; select bank3
  6734  051C  0819               	movf	25,w	;volatile
  6735  051D  00F0               	movwf	??_EUSART_RxDataHandler
  6736  051E  0870               	movf	??_EUSART_RxDataHandler,w
  6737  051F  00F9               	movwf	_UltimoDadoRecebido	;volatile
  6738  0520                     i1l2374:
  6739                           
  6740                           ;mcc_generated_files/eusart.c: 268:     if (UltimoDadoRecebido == '>')
  6741  0520  303E               	movlw	62
  6742  0521  0679               	xorwf	_UltimoDadoRecebido,w	;volatile
  6743  0522  1D03               	btfss	3,2
  6744  0523  2D25               	goto	u106_21
  6745  0524  2D26               	goto	u106_20
  6746  0525                     u106_21:
  6747  0525  2D27               	goto	i1l2378
  6748  0526                     u106_20:
  6749  0526                     i1l2376:
  6750                           
  6751                           ;mcc_generated_files/eusart.c: 269:         indice=0;
  6752  0526  01FB               	clrf	_indice	;volatile
  6753  0527                     i1l2378:
  6754                           
  6755                           ;mcc_generated_files/eusart.c: 270:     flags[0]=flags[1];
  6756  0527  0020               	movlb	0	; select bank0
  6757  0528  0861               	movf	_flags+1,w	;volatile
  6758  0529  00F0               	movwf	??_EUSART_RxDataHandler
  6759  052A  0870               	movf	??_EUSART_RxDataHandler,w
  6760  052B  00E0               	movwf	_flags	;volatile
  6761  052C                     i1l2380:
  6762                           
  6763                           ;mcc_generated_files/eusart.c: 271:     flags[1]=flags[2];
  6764  052C  0862               	movf	_flags+2,w	;volatile
  6765  052D  00F0               	movwf	??_EUSART_RxDataHandler
  6766  052E  0870               	movf	??_EUSART_RxDataHandler,w
  6767  052F  00E1               	movwf	_flags+1	;volatile
  6768  0530                     i1l2382:
  6769                           
  6770                           ;mcc_generated_files/eusart.c: 272:     flags[2]=flags[3];
  6771  0530  0863               	movf	_flags+3,w	;volatile
  6772  0531  00F0               	movwf	??_EUSART_RxDataHandler
  6773  0532  0870               	movf	??_EUSART_RxDataHandler,w
  6774  0533  00E2               	movwf	_flags+2	;volatile
  6775  0534                     i1l2384:
  6776                           
  6777                           ;mcc_generated_files/eusart.c: 273:     flags[3]=flags[4];
  6778  0534  0864               	movf	_flags+4,w	;volatile
  6779  0535  00F0               	movwf	??_EUSART_RxDataHandler
  6780  0536  0870               	movf	??_EUSART_RxDataHandler,w
  6781  0537  00E3               	movwf	_flags+3	;volatile
  6782  0538                     i1l2386:
  6783                           
  6784                           ;mcc_generated_files/eusart.c: 274:     flags[4]=flags[5];
  6785  0538  0865               	movf	_flags+5,w	;volatile
  6786  0539  00F0               	movwf	??_EUSART_RxDataHandler
  6787  053A  0870               	movf	??_EUSART_RxDataHandler,w
  6788  053B  00E4               	movwf	_flags+4	;volatile
  6789  053C                     i1l2388:
  6790                           
  6791                           ;mcc_generated_files/eusart.c: 275:     flags[5]=UltimoDadoRecebido;
  6792  053C  0879               	movf	_UltimoDadoRecebido,w	;volatile
  6793  053D  00F0               	movwf	??_EUSART_RxDataHandler
  6794  053E  0870               	movf	??_EUSART_RxDataHandler,w
  6795  053F  00E5               	movwf	_flags+5	;volatile
  6796  0540                     i1l2390:
  6797                           
  6798                           ;mcc_generated_files/eusart.c: 277:     if (indice<64)
  6799  0540  3040               	movlw	64
  6800  0541  027B               	subwf	_indice,w	;volatile
  6801  0542  1803               	skipnc
  6802  0543  2D45               	goto	u107_21
  6803  0544  2D46               	goto	u107_20
  6804  0545                     u107_21:
  6805  0545  2D53               	goto	i1l2396
  6806  0546                     u107_20:
  6807  0546                     i1l2392:
  6808                           
  6809                           ;mcc_generated_files/eusart.c: 278:     {;mcc_generated_files/eusart.c: 279:         Dad
      +                          osLora[indice]= UltimoDadoRecebido;
  6810  0546  0879               	movf	_UltimoDadoRecebido,w	;volatile
  6811  0547  00F0               	movwf	??_EUSART_RxDataHandler
  6812  0548  087B               	movf	_indice,w
  6813  0549  3E20               	addlw	(low (_DadosLora| (0+256)))& (0+255)
  6814  054A  0086               	movwf	6
  6815  054B  3001               	movlw	1	; select bank2/3
  6816  054C  0087               	movwf	7
  6817  054D  0870               	movf	??_EUSART_RxDataHandler,w
  6818  054E  0081               	movwf	1
  6819  054F                     i1l2394:
  6820                           
  6821                           ;mcc_generated_files/eusart.c: 280:         indice++;
  6822  054F  3001               	movlw	1
  6823  0550  00F0               	movwf	??_EUSART_RxDataHandler
  6824  0551  0870               	movf	??_EUSART_RxDataHandler,w
  6825  0552  07FB               	addwf	_indice,f	;volatile
  6826  0553                     i1l2396:
  6827                           
  6828                           ;mcc_generated_files/eusart.c: 283:     if ((flags[1]=='t')&&(flags[2]=='x')&&(flags[4]=
      +                          ='o')&&(flags[5]=='k'))
  6829  0553  3074               	movlw	116
  6830  0554  0661               	xorwf	_flags+1,w	;volatile
  6831  0555  1D03               	btfss	3,2
  6832  0556  2D58               	goto	u108_21
  6833  0557  2D59               	goto	u108_20
  6834  0558                     u108_21:
  6835  0558  2D70               	goto	i1l2406
  6836  0559                     u108_20:
  6837  0559                     i1l2398:
  6838  0559  3078               	movlw	120
  6839  055A  0662               	xorwf	_flags+2,w	;volatile
  6840  055B  1D03               	btfss	3,2
  6841  055C  2D5E               	goto	u109_21
  6842  055D  2D5F               	goto	u109_20
  6843  055E                     u109_21:
  6844  055E  2D70               	goto	i1l2406
  6845  055F                     u109_20:
  6846  055F                     i1l2400:
  6847  055F  306F               	movlw	111
  6848  0560  0664               	xorwf	_flags+4,w	;volatile
  6849  0561  1D03               	btfss	3,2
  6850  0562  2D64               	goto	u110_21
  6851  0563  2D65               	goto	u110_20
  6852  0564                     u110_21:
  6853  0564  2D70               	goto	i1l2406
  6854  0565                     u110_20:
  6855  0565                     i1l2402:
  6856  0565  306B               	movlw	107
  6857  0566  0665               	xorwf	_flags+5,w	;volatile
  6858  0567  1D03               	btfss	3,2
  6859  0568  2D6A               	goto	u111_21
  6860  0569  2D6B               	goto	u111_20
  6861  056A                     u111_21:
  6862  056A  2D70               	goto	i1l2406
  6863  056B                     u111_20:
  6864  056B                     i1l2404:
  6865                           
  6866                           ;mcc_generated_files/eusart.c: 284:         fTxOk=1;
  6867  056B  3001               	movlw	1
  6868  056C  00F0               	movwf	??_EUSART_RxDataHandler
  6869  056D  0870               	movf	??_EUSART_RxDataHandler,w
  6870  056E  00FA               	movwf	_fTxOk	;volatile
  6871  056F  2DC9               	goto	i1l2438
  6872  0570                     i1l2406:
  6873  0570  3074               	movlw	116
  6874  0571  0662               	xorwf	_flags+2,w	;volatile
  6875  0572  1D03               	btfss	3,2
  6876  0573  2D75               	goto	u112_21
  6877  0574  2D76               	goto	u112_20
  6878  0575                     u112_21:
  6879  0575  2D89               	goto	i1l2416
  6880  0576                     u112_20:
  6881  0576                     i1l2408:
  6882  0576  3065               	movlw	101
  6883  0577  0663               	xorwf	_flags+3,w	;volatile
  6884  0578  1D03               	btfss	3,2
  6885  0579  2D7B               	goto	u113_21
  6886  057A  2D7C               	goto	u113_20
  6887  057B                     u113_21:
  6888  057B  2D89               	goto	i1l2416
  6889  057C                     u113_20:
  6890  057C                     i1l2410:
  6891  057C  3072               	movlw	114
  6892  057D  0664               	xorwf	_flags+4,w	;volatile
  6893  057E  1D03               	btfss	3,2
  6894  057F  2D81               	goto	u114_21
  6895  0580  2D82               	goto	u114_20
  6896  0581                     u114_21:
  6897  0581  2D89               	goto	i1l2416
  6898  0582                     u114_20:
  6899  0582                     i1l2412:
  6900  0582  303D               	movlw	61
  6901  0583  0665               	xorwf	_flags+5,w	;volatile
  6902  0584  1D03               	btfss	3,2
  6903  0585  2D87               	goto	u115_21
  6904  0586  2D88               	goto	u115_20
  6905  0587                     u115_21:
  6906  0587  2D89               	goto	i1l2416
  6907  0588                     u115_20:
  6908  0588  2D6B               	goto	i1l2404
  6909  0589                     i1l2416:
  6910  0589  300D               	movlw	13
  6911  058A  0662               	xorwf	_flags+2,w	;volatile
  6912  058B  1D03               	btfss	3,2
  6913  058C  2D8E               	goto	u116_21
  6914  058D  2D8F               	goto	u116_20
  6915  058E                     u116_21:
  6916  058E  2DA6               	goto	i1l2426
  6917  058F                     u116_20:
  6918  058F                     i1l2418:
  6919  058F  300A               	movlw	10
  6920  0590  0663               	xorwf	_flags+3,w	;volatile
  6921  0591  1D03               	btfss	3,2
  6922  0592  2D94               	goto	u117_21
  6923  0593  2D95               	goto	u117_20
  6924  0594                     u117_21:
  6925  0594  2DA6               	goto	i1l2426
  6926  0595                     u117_20:
  6927  0595                     i1l2420:
  6928  0595  304F               	movlw	79
  6929  0596  0664               	xorwf	_flags+4,w	;volatile
  6930  0597  1D03               	btfss	3,2
  6931  0598  2D9A               	goto	u118_21
  6932  0599  2D9B               	goto	u118_20
  6933  059A                     u118_21:
  6934  059A  2DA6               	goto	i1l2426
  6935  059B                     u118_20:
  6936  059B                     i1l2422:
  6937  059B  304B               	movlw	75
  6938  059C  0665               	xorwf	_flags+5,w	;volatile
  6939  059D  1D03               	btfss	3,2
  6940  059E  2DA0               	goto	u119_21
  6941  059F  2DA1               	goto	u119_20
  6942  05A0                     u119_21:
  6943  05A0  2DA6               	goto	i1l2426
  6944  05A1                     u119_20:
  6945  05A1                     i1l2424:
  6946                           
  6947                           ;mcc_generated_files/eusart.c: 288:         fOK=1;
  6948  05A1  3001               	movlw	1
  6949  05A2  00F0               	movwf	??_EUSART_RxDataHandler
  6950  05A3  0870               	movf	??_EUSART_RxDataHandler,w
  6951  05A4  00EF               	movwf	_fOK	;volatile
  6952  05A5  2DC9               	goto	i1l2438
  6953  05A6                     i1l2426:
  6954  05A6  3041               	movlw	65
  6955  05A7  0661               	xorwf	_flags+1,w	;volatile
  6956  05A8  1D03               	btfss	3,2
  6957  05A9  2DAB               	goto	u120_21
  6958  05AA  2DAC               	goto	u120_20
  6959  05AB                     u120_21:
  6960  05AB  2DC9               	goto	i1l219
  6961  05AC                     u120_20:
  6962  05AC                     i1l2428:
  6963  05AC  3054               	movlw	84
  6964  05AD  0662               	xorwf	_flags+2,w	;volatile
  6965  05AE  1D03               	btfss	3,2
  6966  05AF  2DB1               	goto	u121_21
  6967  05B0  2DB2               	goto	u121_20
  6968  05B1                     u121_21:
  6969  05B1  2DC9               	goto	i1l219
  6970  05B2                     u121_20:
  6971  05B2                     i1l2430:
  6972  05B2  305F               	movlw	95
  6973  05B3  0663               	xorwf	_flags+3,w	;volatile
  6974  05B4  1D03               	btfss	3,2
  6975  05B5  2DB7               	goto	u122_21
  6976  05B6  2DB8               	goto	u122_20
  6977  05B7                     u122_21:
  6978  05B7  2DC9               	goto	i1l219
  6979  05B8                     u122_20:
  6980  05B8                     i1l2432:
  6981  05B8  3045               	movlw	69
  6982  05B9  0664               	xorwf	_flags+4,w	;volatile
  6983  05BA  1D03               	btfss	3,2
  6984  05BB  2DBD               	goto	u123_21
  6985  05BC  2DBE               	goto	u123_20
  6986  05BD                     u123_21:
  6987  05BD  2DC9               	goto	i1l219
  6988  05BE                     u123_20:
  6989  05BE                     i1l2434:
  6990  05BE  3052               	movlw	82
  6991  05BF  0665               	xorwf	_flags+5,w	;volatile
  6992  05C0  1D03               	btfss	3,2
  6993  05C1  2DC3               	goto	u124_21
  6994  05C2  2DC4               	goto	u124_20
  6995  05C3                     u124_21:
  6996  05C3  2DC9               	goto	i1l219
  6997  05C4                     u124_20:
  6998  05C4                     i1l2436:
  6999                           
  7000                           ;mcc_generated_files/eusart.c: 290:         fATerr=1;
  7001  05C4  3001               	movlw	1
  7002  05C5  00F0               	movwf	??_EUSART_RxDataHandler
  7003  05C6  0870               	movf	??_EUSART_RxDataHandler,w
  7004  05C7  00EE               	movwf	_fATerr	;volatile
  7005  05C8  2DC9               	goto	i1l2438
  7006  05C9                     i1l219:
  7007  05C9                     i1l2438:
  7008                           
  7009                           ;mcc_generated_files/eusart.c: 292:     if (indice==17)
  7010  05C9  3011               	movlw	17
  7011  05CA  067B               	xorwf	_indice,w	;volatile
  7012  05CB  1D03               	btfss	3,2
  7013  05CC  2DCE               	goto	u125_21
  7014  05CD  2DCF               	goto	u125_20
  7015  05CE                     u125_21:
  7016  05CE  2DEE               	goto	i1l2452
  7017  05CF                     u125_20:
  7018  05CF                     i1l2440:
  7019                           
  7020                           ;mcc_generated_files/eusart.c: 293:     {;mcc_generated_files/eusart.c: 294:         __n
      +                          op();
  7021  05CF  0000               	nop
  7022  05D0                     i1l2442:
  7023                           
  7024                           ;mcc_generated_files/eusart.c: 295:         if ( (DadosLora[ 2] == 'E')&&
  7025  05D0  3045               	movlw	69
  7026  05D1  0022               	movlb	2	; select bank2
  7027  05D2  0622               	xorwf	(_DadosLora^(0+256)+2),w	;volatile
  7028  05D3  1D03               	btfss	3,2
  7029  05D4  2DD6               	goto	u126_21
  7030  05D5  2DD7               	goto	u126_20
  7031  05D6                     u126_21:
  7032  05D6  2DEE               	goto	i1l2452
  7033  05D7                     u126_20:
  7034  05D7                     i1l2444:
  7035  05D7  3041               	movlw	65
  7036  05D8  0623               	xorwf	(_DadosLora^(0+256)+3),w	;volatile
  7037  05D9  1D03               	btfss	3,2
  7038  05DA  2DDC               	goto	u127_21
  7039  05DB  2DDD               	goto	u127_20
  7040  05DC                     u127_21:
  7041  05DC  2DEE               	goto	i1l2452
  7042  05DD                     u127_20:
  7043  05DD                     i1l2446:
  7044  05DD  3045               	movlw	69
  7045  05DE  062E               	xorwf	(_DadosLora^(0+256)+14),w	;volatile
  7046  05DF  1D03               	btfss	3,2
  7047  05E0  2DE2               	goto	u128_21
  7048  05E1  2DE3               	goto	u128_20
  7049  05E2                     u128_21:
  7050  05E2  2DEE               	goto	i1l2452
  7051  05E3                     u128_20:
  7052  05E3                     i1l2448:
  7053  05E3  3042               	movlw	66
  7054  05E4  062F               	xorwf	(_DadosLora^(0+256)+15),w	;volatile
  7055  05E5  1D03               	btfss	3,2
  7056  05E6  2DE8               	goto	u129_21
  7057  05E7  2DE9               	goto	u129_20
  7058  05E8                     u129_21:
  7059  05E8  2DEE               	goto	i1l2452
  7060  05E9                     u129_20:
  7061  05E9                     i1l2450:
  7062                           
  7063                           ;mcc_generated_files/eusart.c: 299:         {;mcc_generated_files/eusart.c: 300:        
      +                               fRetLora=1;
  7064  05E9  3001               	movlw	1
  7065  05EA  00F0               	movwf	??_EUSART_RxDataHandler
  7066  05EB  0870               	movf	??_EUSART_RxDataHandler,w
  7067  05EC  0021               	movlb	1	; select bank1
  7068  05ED  00EF               	movwf	_fRetLora^(0+128)	;volatile
  7069  05EE                     i1l2452:
  7070                           
  7071                           ;mcc_generated_files/eusart.c: 304:     if ( (DadosLora[2]=='I')&&(DadosLora[7]=='D') )
  7072  05EE  3049               	movlw	73
  7073  05EF  0022               	movlb	2	; select bank2
  7074  05F0  0622               	xorwf	(_DadosLora^(0+256)+2),w	;volatile
  7075  05F1  1D03               	btfss	3,2
  7076  05F2  2DF4               	goto	u130_21
  7077  05F3  2DF5               	goto	u130_20
  7078  05F4                     u130_21:
  7079  05F4  2E18               	goto	i1l2458
  7080  05F5                     u130_20:
  7081  05F5                     i1l2454:
  7082  05F5  3044               	movlw	68
  7083  05F6  0627               	xorwf	(_DadosLora^(0+256)+7),w	;volatile
  7084  05F7  1D03               	btfss	3,2
  7085  05F8  2DFA               	goto	u131_21
  7086  05F9  2DFB               	goto	u131_20
  7087  05FA                     u131_21:
  7088  05FA  2E18               	goto	i1l2458
  7089  05FB                     u131_20:
  7090  05FB                     i1l2456:
  7091                           
  7092                           ;mcc_generated_files/eusart.c: 305:     {;mcc_generated_files/eusart.c: 306:         fPr
      +                          ogID=1;
  7093  05FB  3001               	movlw	1
  7094  05FC  00F0               	movwf	??_EUSART_RxDataHandler
  7095  05FD  0870               	movf	??_EUSART_RxDataHandler,w
  7096  05FE  0021               	movlb	1	; select bank1
  7097  05FF  00EE               	movwf	_fProgID^(0+128)	;volatile
  7098                           
  7099                           ;mcc_generated_files/eusart.c: 307:         ID[0] = DadosLora[3]; ID[1] = DadosLora[4];
  7100  0600  0022               	movlb	2	; select bank2
  7101  0601  0823               	movf	(_DadosLora^(0+256)+3),w	;volatile
  7102  0602  00F0               	movwf	??_EUSART_RxDataHandler
  7103  0603  0870               	movf	??_EUSART_RxDataHandler,w
  7104  0604  0021               	movlb	1	; select bank1
  7105  0605  00D6               	movwf	_ID^(0+128)	;volatile
  7106  0606  0022               	movlb	2	; select bank2
  7107  0607  0824               	movf	(_DadosLora^(0+256)+4),w	;volatile
  7108  0608  00F0               	movwf	??_EUSART_RxDataHandler
  7109  0609  0870               	movf	??_EUSART_RxDataHandler,w
  7110  060A  0021               	movlb	1	; select bank1
  7111  060B  00D7               	movwf	(_ID^(0+128)+1)	;volatile
  7112                           
  7113                           ;mcc_generated_files/eusart.c: 308:         ID[2] = DadosLora[5]; ID[3] = DadosLora[6];
  7114  060C  0022               	movlb	2	; select bank2
  7115  060D  0825               	movf	(_DadosLora^(0+256)+5),w	;volatile
  7116  060E  00F0               	movwf	??_EUSART_RxDataHandler
  7117  060F  0870               	movf	??_EUSART_RxDataHandler,w
  7118  0610  0021               	movlb	1	; select bank1
  7119  0611  00D8               	movwf	(_ID^(0+128)+2)	;volatile
  7120  0612  0022               	movlb	2	; select bank2
  7121  0613  0826               	movf	(_DadosLora^(0+256)+6),w	;volatile
  7122  0614  00F0               	movwf	??_EUSART_RxDataHandler
  7123  0615  0870               	movf	??_EUSART_RxDataHandler,w
  7124  0616  0021               	movlb	1	; select bank1
  7125  0617  00D9               	movwf	(_ID^(0+128)+3)	;volatile
  7126  0618                     i1l2458:
  7127                           
  7128                           ;mcc_generated_files/eusart.c: 310:     __nop();
  7129  0618  0000               	nop
  7130  0619                     i1l2460:
  7131                           
  7132                           ;mcc_generated_files/eusart.c: 311:     __nop();
  7133  0619  0000               	nop
  7134  061A                     i1l2462:
  7135                           
  7136                           ;mcc_generated_files/eusart.c: 312:     __nop();
  7137  061A  0000               	nop
  7138  061B                     i1l2464:
  7139                           
  7140                           ;mcc_generated_files/eusart.c: 314:     eusartRxBuffer[eusartRxHead++] = UltimoDadoReceb
      +                          ido;
  7141  061B  0879               	movf	_UltimoDadoRecebido,w	;volatile
  7142  061C  00F0               	movwf	??_EUSART_RxDataHandler
  7143  061D  0021               	movlb	1	; select bank1
  7144  061E  086A               	movf	_eusartRxHead^(0+128),w
  7145  061F  3E20               	addlw	(low (_eusartRxBuffer| 0))& (0+255)
  7146  0620  0086               	movwf	6
  7147  0621  0187               	clrf	7
  7148  0622  0870               	movf	??_EUSART_RxDataHandler,w
  7149  0623  0081               	movwf	1
  7150  0624                     i1l2466:
  7151  0624  3001               	movlw	1
  7152  0625  00F0               	movwf	??_EUSART_RxDataHandler
  7153  0626  0870               	movf	??_EUSART_RxDataHandler,w
  7154  0627  07EA               	addwf	_eusartRxHead^(0+128),f	;volatile
  7155  0628                     i1l2468:
  7156                           
  7157                           ;mcc_generated_files/eusart.c: 315:     if(sizeof(eusartRxBuffer) <= eusartRxHead)
  7158  0628  3040               	movlw	64
  7159  0629  026A               	subwf	_eusartRxHead^(0+128),w	;volatile
  7160  062A  1C03               	skipc
  7161  062B  2E2D               	goto	u132_21
  7162  062C  2E2E               	goto	u132_20
  7163  062D                     u132_21:
  7164  062D  2E2F               	goto	i1l2472
  7165  062E                     u132_20:
  7166  062E                     i1l2470:
  7167                           
  7168                           ;mcc_generated_files/eusart.c: 316:     {;mcc_generated_files/eusart.c: 317:         eus
      +                          artRxHead = 0;
  7169  062E  01EA               	clrf	_eusartRxHead^(0+128)	;volatile
  7170  062F                     i1l2472:
  7171                           
  7172                           ;mcc_generated_files/eusart.c: 319:     eusartRxCount++;
  7173  062F  3001               	movlw	1
  7174  0630  00F0               	movwf	??_EUSART_RxDataHandler
  7175  0631  0870               	movf	??_EUSART_RxDataHandler,w
  7176  0632  07E8               	addwf	_eusartRxCount^(0+128),f	;volatile
  7177  0633                     i1l227:
  7178  0633  0008               	return
  7179  0634                     __end_of_EUSART_RxDataHandler:
  7180  007E                     btemp	set	126	;btemp
  7181  007E                     int$flags	set	126
  7182  007E                     wtemp0	set	126
  7183                           
  7184                           	psect	idloc
  7185                           
  7186                           ;Config register IDLOC0 @ 0x8000
  7187                           ;	unspecified, using default values
  7188  8000                     	org	32768
  7189  8000  3FFF               	dw	16383
  7190                           
  7191                           ;Config register IDLOC1 @ 0x8001
  7192                           ;	unspecified, using default values
  7193  8001                     	org	32769
  7194  8001  3FFF               	dw	16383
  7195                           
  7196                           ;Config register IDLOC2 @ 0x8002
  7197                           ;	unspecified, using default values
  7198  8002                     	org	32770
  7199  8002  3FFF               	dw	16383
  7200                           
  7201                           ;Config register IDLOC3 @ 0x8003
  7202                           ;	unspecified, using default values
  7203  8003                     	org	32771
  7204  8003  3FFF               	dw	16383
  7205                           
  7206                           	psect	config
  7207                           
  7208                           ;Config register CONFIG1 @ 0x8007
  7209                           ;	Oscillator Selection
  7210                           ;	FOSC = INTOSC, INTOSC oscillator: I/O function on CLKIN pin
  7211                           ;	Watchdog Timer Enable
  7212                           ;	WDTE = SWDTEN, WDT controlled by the SWDTEN bit in the WDTCON register
  7213                           ;	Power-up Timer Enable
  7214                           ;	PWRTE = OFF, PWRT disabled
  7215                           ;	MCLR Pin Function Select
  7216                           ;	MCLRE = ON, MCLR/VPP pin function is MCLR
  7217                           ;	Flash Program Memory Code Protection
  7218                           ;	CP = ON, Program memory code protection is enabled
  7219                           ;	Data Memory Code Protection
  7220                           ;	CPD = ON, Data memory code protection is enabled
  7221                           ;	Brown-out Reset Enable
  7222                           ;	BOREN = ON, Brown-out Reset enabled
  7223                           ;	Clock Out Enable
  7224                           ;	CLKOUTEN = OFF, CLKOUT function is disabled. I/O or oscillator function on the CLKOUT 
      +                          pin
  7225                           ;	Internal/External Switchover
  7226                           ;	IESO = ON, Internal/External Switchover mode is enabled
  7227                           ;	Fail-Safe Clock Monitor Enable
  7228                           ;	FCMEN = ON, Fail-Safe Clock Monitor is enabled
  7229  8007                     	org	32775
  7230  8007  3E6C               	dw	15980
  7231                           
  7232                           ;Config register CONFIG2 @ 0x8008
  7233                           ;	Flash Memory Self-Write Protection
  7234                           ;	WRT = OFF, Write protection off
  7235                           ;	PLL Enable
  7236                           ;	PLLEN = OFF, 4x PLL disabled
  7237                           ;	Stack Overflow/Underflow Reset Enable
  7238                           ;	STVREN = ON, Stack Overflow or Underflow will cause a Reset
  7239                           ;	Brown-out Reset Voltage Selection
  7240                           ;	BORV = LO, Brown-out Reset Voltage (Vbor), low trip point selected.
  7241                           ;	Low-Voltage Programming Enable
  7242                           ;	LVP = OFF, High-voltage on MCLR/VPP must be used for programming
  7243  8008                     	org	32776
  7244  8008  1EFF               	dw	7935

Data Sizes:
    Strings     0
    Constant    111
    Data        0
    BSS         342
    Persistent  34
    Stack       0

Auto Spaces:
    Space          Size  Autos    Used
    COMMON           14      9      12
    BANK0            80      0      80
    BANK1            80      0      80
    BANK2            80      0      80
    BANK3            80      0      80
    BANK4            48      2      23

Pointer List with Targets:

    EUSART_SetRxInterruptHandler@interruptHandler	PTR FTN()void  size(2) Largest target is 1
		 -> EUSART_Receive_ISR(), 

    EUSART_SetTxInterruptHandler@interruptHandler	PTR FTN()void  size(2) Largest target is 1
		 -> EUSART_Transmit_ISR(), 

    EUSART_SetErrorHandler@interruptHandler	PTR FTN()void  size(2) Largest target is 1
		 -> EUSART_DefaultErrorHandler(), 

    EUSART_SetOverrunErrorHandler@interruptHandler	PTR FTN()void  size(2) Largest target is 1
		 -> EUSART_DefaultOverrunErrorHandler(), 

    EUSART_SetFramingErrorHandler@interruptHandler	PTR FTN()void  size(2) Largest target is 1
		 -> EUSART_DefaultFramingErrorHandler(), 

    EUSART_ErrorHandler	PTR FTN()void  size(2) Largest target is 1
		 -> Absolute function(), EUSART_DefaultErrorHandler(), 

    EUSART_OverrunErrorHandler	PTR FTN()void  size(2) Largest target is 1
		 -> Absolute function(), EUSART_DefaultOverrunErrorHandler(), 

    EUSART_FramingErrorHandler	PTR FTN()void  size(2) Largest target is 1
		 -> Absolute function(), EUSART_DefaultFramingErrorHandler(), 

    EUSART_RxDefaultInterruptHandler	PTR FTN()void  size(2) Largest target is 1
		 -> Absolute function(), EUSART_Receive_ISR(), 

    EUSART_TxDefaultInterruptHandler	PTR FTN()void  size(2) Largest target is 1
		 -> Absolute function(), EUSART_Transmit_ISR(), 


Critical Paths under _main in COMMON

    _main->___lwdiv
    _TX_Lora->_SM_CFOFF
    _TX_Lora->_SM_CONFIGRADIO
    _SM_CONFIGRADIO->_EUSART_Write
    _SM_CFOFF->_EUSART_Write
    _SM_START->_SM_RESET
    _SM_RESET->_EUSART_Write
    _SM_MODORX->_EUSART_Write
    _ErrCode->_ModuloOff
    _EUSART_Initialize->_EUSART_SetErrorHandler
    _EUSART_Initialize->_EUSART_SetFramingErrorHandler
    _EUSART_Initialize->_EUSART_SetOverrunErrorHandler
    _EUSART_Initialize->_EUSART_SetRxInterruptHandler
    _EUSART_Initialize->_EUSART_SetTxInterruptHandler

Critical Paths under _INTERRUPT_InterruptManager in COMMON

    _INTERRUPT_InterruptManager->_EUSART_Transmit_ISR
    _EUSART_Receive_ISR->_EUSART_RxDataHandler
    _EUSART_DefaultErrorHandler->_EUSART_RxDataHandler

Critical Paths under _main in BANK0

    None.

Critical Paths under _INTERRUPT_InterruptManager in BANK0

    None.

Critical Paths under _main in BANK1

    None.

Critical Paths under _INTERRUPT_InterruptManager in BANK1

    None.

Critical Paths under _main in BANK2

    None.

Critical Paths under _INTERRUPT_InterruptManager in BANK2

    None.

Critical Paths under _main in BANK3

    None.

Critical Paths under _INTERRUPT_InterruptManager in BANK3

    None.

Critical Paths under _main in BANK4

    None.

Critical Paths under _INTERRUPT_InterruptManager in BANK4

    None.

Call Graph Tables:

 ---------------------------------------------------------------------------------
 (Depth) Function   	        Calls       Base Space   Used Autos Params    Refs
 ---------------------------------------------------------------------------------
 (0) _main                                                 2     2      0    3862
                                              0 BANK4      2     2      0
                  _EUSART_Initialize
                       _EUSART_Reset
                       _EUSART_Write
                            _ErrCode
                          _ModuloOff
              _OSCILLATOR_Initialize
             _PIN_MANAGER_Initialize
                           _SM_CFOFF
                     _SM_CONFIGRADIO
                          _SM_MODORX
                           _SM_START
                            _TX_Lora
                     _WDT_Initialize
                            ___lwdiv
                            ___lwmod
                             ___wmul
 ---------------------------------------------------------------------------------
 (1) ___wmul                                               6     2      4     852
                                              1 COMMON     6     2      4
 ---------------------------------------------------------------------------------
 (1) ___lwmod                                              6     2      4    1071
                                              1 COMMON     6     2      4
 ---------------------------------------------------------------------------------
 (1) ___lwdiv                                              8     4      4    1074
                                              1 COMMON     8     4      4
 ---------------------------------------------------------------------------------
 (1) _WDT_Initialize                                       0     0      0       0
 ---------------------------------------------------------------------------------
 (1) _TX_Lora                                              1     1      0     132
                                              5 COMMON     1     1      0
                       _EUSART_Reset
                       _EUSART_Write
                        _Espera_TxOk
                           _ModuloOn
                           _SM_CFOFF
                     _SM_CONFIGRADIO
 ---------------------------------------------------------------------------------
 (2) _SM_CONFIGRADIO                                       3     3      0      44
                                              3 COMMON     2     2      0
                       _EUSART_Reset
                       _EUSART_Write
 ---------------------------------------------------------------------------------
 (2) _SM_CFOFF                                             2     2      0      44
                                              3 COMMON     2     2      0
                       _EUSART_Reset
                       _EUSART_Write
 ---------------------------------------------------------------------------------
 (2) _Espera_TxOk                                          1     1      0       0
                                              1 COMMON     1     1      0
 ---------------------------------------------------------------------------------
 (1) _SM_START                                             1     1      0      44
                                              5 COMMON     1     1      0
                       _EUSART_Reset
                           _ModuloOn
                           _SM_RESET
 ---------------------------------------------------------------------------------
 (2) _SM_RESET                                             2     2      0      44
                                              3 COMMON     2     2      0
                       _EUSART_Reset
                       _EUSART_Write
 ---------------------------------------------------------------------------------
 (2) _ModuloOn                                             2     2      0       0
                                              1 COMMON     2     2      0
 ---------------------------------------------------------------------------------
 (1) _SM_MODORX                                            3     3      0      44
                                              3 COMMON     2     2      0
                       _EUSART_Reset
                       _EUSART_Write
 ---------------------------------------------------------------------------------
 (3) _EUSART_Write                                         2     2      0      44
                                              1 COMMON     2     2      0
 ---------------------------------------------------------------------------------
 (3) _EUSART_Reset                                         1     1      0       0
                                              1 COMMON     1     1      0
 ---------------------------------------------------------------------------------
 (1) _PIN_MANAGER_Initialize                               0     0      0       0
 ---------------------------------------------------------------------------------
 (1) _OSCILLATOR_Initialize                                0     0      0       0
 ---------------------------------------------------------------------------------
 (1) _ErrCode                                              4     4      0      23
                                              2 COMMON     3     3      0
                          _ModuloOff
 ---------------------------------------------------------------------------------
 (1) _ModuloOff                                            1     1      0       0
                                              1 COMMON     1     1      0
 ---------------------------------------------------------------------------------
 (1) _EUSART_Initialize                                    1     1      0     490
                                              3 COMMON     1     1      0
             _EUSART_SetErrorHandler
      _EUSART_SetFramingErrorHandler
      _EUSART_SetOverrunErrorHandler
       _EUSART_SetRxInterruptHandler
       _EUSART_SetTxInterruptHandler
 ---------------------------------------------------------------------------------
 (2) _EUSART_SetTxInterruptHandler                         2     0      2      98
                                              1 COMMON     2     0      2
 ---------------------------------------------------------------------------------
 (2) _EUSART_SetRxInterruptHandler                         2     0      2      98
                                              1 COMMON     2     0      2
 ---------------------------------------------------------------------------------
 (2) _EUSART_SetOverrunErrorHandler                        2     0      2      98
                                              1 COMMON     2     0      2
 ---------------------------------------------------------------------------------
 (2) _EUSART_SetFramingErrorHandler                        2     0      2      98
                                              1 COMMON     2     0      2
 ---------------------------------------------------------------------------------
 (2) _EUSART_SetErrorHandler                               2     0      2      98
                                              1 COMMON     2     0      2
 ---------------------------------------------------------------------------------
 Estimated maximum stack depth 3
 ---------------------------------------------------------------------------------
 (Depth) Function   	        Calls       Base Space   Used Autos Params    Refs
 ---------------------------------------------------------------------------------
 (4) _INTERRUPT_InterruptManager                           0     0      0       0
                   Absolute function *
                 _EUSART_Receive_ISR *
                _EUSART_Transmit_ISR *
 ---------------------------------------------------------------------------------
 (5) _EUSART_Transmit_ISR                                  1     1      0       0
                                              0 COMMON     1     1      0
 ---------------------------------------------------------------------------------
 (5) _EUSART_Receive_ISR                                   0     0      0       0
                   Absolute function *
         _EUSART_DefaultErrorHandler *
  _EUSART_DefaultFramingErrorHandler *
  _EUSART_DefaultOverrunErrorHandler *
               _EUSART_RxDataHandler
 ---------------------------------------------------------------------------------
 (6) _EUSART_DefaultOverrunErrorHandler                    0     0      0       0
 ---------------------------------------------------------------------------------
 (6) _EUSART_DefaultFramingErrorHandler                    0     0      0       0
 ---------------------------------------------------------------------------------
 (6) _EUSART_DefaultErrorHandler                           0     0      0       0
               _EUSART_RxDataHandler
 ---------------------------------------------------------------------------------
 (6) _EUSART_RxDataHandler                                 1     1      0       0
                                              0 COMMON     1     1      0
 ---------------------------------------------------------------------------------
 (6) Absolute function(Fake)                               0     0      0       0
 ---------------------------------------------------------------------------------
 Estimated maximum stack depth 6
 ---------------------------------------------------------------------------------

 Call Graph Graphs:

 _main (ROOT)
   _EUSART_Initialize
     _EUSART_SetErrorHandler
     _EUSART_SetFramingErrorHandler
     _EUSART_SetOverrunErrorHandler
     _EUSART_SetRxInterruptHandler
     _EUSART_SetTxInterruptHandler
   _EUSART_Reset
   _EUSART_Write
   _ErrCode
     _ModuloOff
   _ModuloOff
   _OSCILLATOR_Initialize
   _PIN_MANAGER_Initialize
   _SM_CFOFF
     _EUSART_Reset
     _EUSART_Write
   _SM_CONFIGRADIO
     _EUSART_Reset
     _EUSART_Write
   _SM_MODORX
     _EUSART_Reset
     _EUSART_Write
   _SM_START
     _EUSART_Reset
     _ModuloOn
     _SM_RESET
       _EUSART_Reset
       _EUSART_Write
   _TX_Lora
     _EUSART_Reset
     _EUSART_Write
     _Espera_TxOk
     _ModuloOn
     _SM_CFOFF
     _SM_CONFIGRADIO
   _WDT_Initialize
   ___lwdiv
   ___lwmod
   ___wmul

 _INTERRUPT_InterruptManager (ROOT)
   Absolute function(Fake) *
   _EUSART_Receive_ISR *
     Absolute function(Fake) *
     _EUSART_DefaultErrorHandler *
       _EUSART_RxDataHandler
     _EUSART_DefaultFramingErrorHandler *
     _EUSART_DefaultOverrunErrorHandler *
     _EUSART_RxDataHandler *
   _EUSART_Transmit_ISR *

 Address spaces:
Name               Size   Autos  Total    Cost      Usage
BIGRAM             170      0       0       0        0.0%
EEDATA             100      0       0       0        0.0%
NULL                 0      0       0       0        0.0%
CODE                 0      0       0       0        0.0%
BITCOMMON            E      0       0       1        0.0%
BITSFR0              0      0       0       1        0.0%
SFR0                 0      0       0       1        0.0%
COMMON               E      9       C       2       85.7%
BITSFR1              0      0       0       2        0.0%
SFR1                 0      0       0       2        0.0%
BITSFR2              0      0       0       3        0.0%
SFR2                 0      0       0       3        0.0%
STACK                0      0       0       3        0.0%
BITSFR3              0      0       0       4        0.0%
SFR3                 0      0       0       4        0.0%
ABS                  0      0     163       4        0.0%
BITBANK0            50      0       0       5        0.0%
BITSFR4              0      0       0       5        0.0%
SFR4                 0      0       0       5        0.0%
BANK0               50      0      50       6      100.0%
BITSFR5              0      0       0       6        0.0%
SFR5                 0      0       0       6        0.0%
BITBANK1            50      0       0       7        0.0%
BITSFR6              0      0       0       7        0.0%
SFR6                 0      0       0       7        0.0%
BANK1               50      0      50       8      100.0%
BITSFR7              0      0       0       8        0.0%
SFR7                 0      0       0       8        0.0%
BITBANK2            50      0       0       9        0.0%
BITSFR8              0      0       0       9        0.0%
SFR8                 0      0       0       9        0.0%
BANK2               50      0      50      10      100.0%
BITSFR9              0      0       0      10        0.0%
SFR9                 0      0       0      10        0.0%
BITBANK3            50      0       0      11        0.0%
BITSFR10             0      0       0      11        0.0%
SFR10                0      0       0      11        0.0%
BANK3               50      0      50      12      100.0%
BITSFR11             0      0       0      12        0.0%
SFR11                0      0       0      12        0.0%
BITBANK4            30      0       0      13        0.0%
BITSFR12             0      0       0      13        0.0%
SFR12                0      0       0      13        0.0%
BANK4               30      2      17      14       47.9%
BITSFR13             0      0       0      14        0.0%
SFR13                0      0       0      14        0.0%
BITSFR14             0      0       0      15        0.0%
SFR14                0      0       0      15        0.0%
DATA                 0      0     163      15        0.0%
BITSFR15             0      0       0      16        0.0%
SFR15                0      0       0      16        0.0%
BITSFR16             0      0       0      17        0.0%
SFR16                0      0       0      17        0.0%
BITSFR17             0      0       0      18        0.0%
SFR17                0      0       0      18        0.0%
BITSFR18             0      0       0      19        0.0%
SFR18                0      0       0      19        0.0%
BITSFR19             0      0       0      20        0.0%
SFR19                0      0       0      20        0.0%
BITSFR20             0      0       0      21        0.0%
SFR20                0      0       0      21        0.0%
BITSFR21             0      0       0      22        0.0%
SFR21                0      0       0      22        0.0%
BITSFR22             0      0       0      23        0.0%
SFR22                0      0       0      23        0.0%
BITSFR23             0      0       0      24        0.0%
SFR23                0      0       0      24        0.0%
BITSFR24             0      0       0      25        0.0%
SFR24                0      0       0      25        0.0%
BITSFR25             0      0       0      26        0.0%
SFR25                0      0       0      26        0.0%
BITSFR26             0      0       0      27        0.0%
SFR26                0      0       0      27        0.0%
BITSFR27             0      0       0      28        0.0%
SFR27                0      0       0      28        0.0%
BITSFR28             0      0       0      29        0.0%
SFR28                0      0       0      29        0.0%
BITSFR29             0      0       0      30        0.0%
SFR29                0      0       0      30        0.0%
BITSFR30             0      0       0      31        0.0%
SFR30                0      0       0      31        0.0%
BITSFR31             0      0       0      32        0.0%
SFR31                0      0       0      32        0.0%


Microchip Technology PIC Macro Assembler V2.36 build 20220127204148 
Symbol Table                                                                                   Mon Jun 06 10:46:29 2022

                ?_EUSART_SetRxInterruptHandler 0071                                             l14 0D9E  
                                           l17 0D73                                             _ID 00D6  
                                           _HH 022A                                             _LL 0229  
                          ___wmul@multiplicand 0073                                            l202 0D85  
                                          l211 0D8B                                            l205 0D79  
                                          l143 07C4                                            l208 0D91  
                                          l146 0FFF                                            l170 0E36  
                                          l171 0E3E                                            l252 0DCA  
                                          l174 0E56                                            l169 0E2F  
                                          l522 0E2C                                            l611 0106  
                                          l541 0E85                                            l630 0259  
                                          l614 0117                                            l199 0D7F  
                                          l535 0F12                                            l480 0F46  
                                          l624 024A                                            l616 0129  
                                          l529 0EB4                                            l625 0248  
                                          l474 0F13                                            l810 0DD5  
                                          l634 0267                                            l483 0D9F  
                                          l563 077B                                            l547 0EE3  
                                          l812 0DE9                                            l644 0387  
                                          l477 0F1E                                            l645 0474  
                                          l581 006C                                            l486 0DAA  
                                          l638 028C                                            l487 0DB1  
                                          l575 06B5                                            l568 0635  
                                          _fAT 00E6                                            _fOK 006F  
                       ??_EUSART_RxDataHandler 0070                                            _tMs 0164  
               ?_EUSART_SetFramingErrorHandler 0071                                            wreg 0009  
                                         l1100 07F8                                           l1090 0F82  
                                         l2340 07BB                                           l2332 0784  
                                         l2500 0F34                                           l3300 00D9  
                                         l2510 0DA1                                           l2350 07C2  
                                         l2342 07BC                                           l2334 0795  
                                         l2326 077C                                           l2502 0F36  
                                         l3310 00E7                                           l3302 00DE  
                                         l2512 0DA8                                           l2352 07C3  
                                         l2344 07BF                                           l2328 077D  
                                         l2360 0E3F                                           l2504 0F37  
                                         l2520 0E26                                           l3400 022C  
                                         l3320 00F3                                           l3312 00EB  
                                         l3304 00E2                                           l2346 07C0  
                                         l2338 079A                                           l2362 0E47  
                                         l2370 0E54                                           l2354 0E2E  
                                         l2506 0F38                                           l2530 0E9C  
                                         l2522 0E86                                           l2514 0E0B  
                                         l3410 025A                                           l3402 0235  
                                         l3330 00FF                                           l3322 00F4  
                                         l3314 00EC                                           l3306 00E3  
                                         l3250 006A                                           l2348 07C1  
                                         l2364 0E4B                                           l2356 0E30  
                                         l2508 0F39                                           l2532 0EA8  
                                         l2524 0E89                                           l2700 0734  
                                         l2516 0E0F                                           l2540 0EF5  
                                         l3500 03F4                                           l3420 0276  
                                         l3412 025D                                           l3404 023B  
                                         l3340 0124                                           l3332 0100  
                                         l3324 00F7                                           l3316 00F0  
                                         l3308 00E6                                           l3260 0081  
                                         l3252 006F                                           l3244 005D  
                                         l2630 0DB2                                           l2366 0E51  
                                         l2358 0E3A                                           l2526 0E8C  
                                         l2710 0742                                           l2702 0737  
                                         l2550 0EBB                                           l2542 0EFA  
                                         l2534 0EE4                                           l3510 0415  
                                         l3502 03FF                                           l3430 029C  
                                         l3422 0278                                           l3406 0240  
                                         l3350 0139                                           l3342 012B  
                                         l3326 00FA                                           l3318 00F1  
                                         l3270 009F                                           l3262 0082  
                                         l3254 0071                                           l3246 005F  
                                         l2480 0D80                                           l2560 0D9B  
                                         l2640 0DBF                                           l2632 0DB4  
                                         l2368 0E52                                           l2528 0E97  
                                         l2704 0738                                           l2552 0EC6  
                                         l2544 0F06                                           l2536 0EE7  
                                         l3600 050A                                           l3520 0438  
                                         l3512 041C                                           l3504 0400  
                                         l3440 02A6                                           l3432 029E  
                                         l3424 027E                                           l3408 024F  
                                         l3416 0269                                           l3360 018C  
                                         l3352 014A                                           l3344 012E  
                                         l3336 0108                                           l3328 00FE  
                                         l3280 00B2                                           l3272 00A1  
                                         l3264 008F                                           l3256 0072  
                                         l3248 0068                                           l2482 0D74  
                                         l2474 0D86                                           l2570 0FCA  
                                         l2650 06B8                                           l2562 0D9C  
                                         l2642 0DC2                                           l2634 0DB6  
                                         l2490 0F1C                                           l2714 0759  
                                         l2706 073B                                           l2554 0ECB  
                                         l2546 0EB5                                           l2538 0EEA  
                                         l2810 07D7                                           l2802 07C5  
                                         l3602 050E                                           l3530 045B  
                                         l3522 043F                                           l3514 0423  
                                         l3506 0407                                           l3442 02AA  
                                         l3434 02A1                                           l3426 0288  
                                         l3450 02BD                                           l3418 026D  
                                         l3370 01B5                                           l3362 019D  
                                         l3354 015A                                           l3346 0133  
                                         l3338 0115                                           l3290 00C9  
                                         l3282 00BF                                           l3274 00A2  
                                         l3266 0091                                           l3258 007F  
                                         l2476 0D8C                                           l2580 0FDC  
                                         l2572 0FD3                                           l2660 06D5  
                                         l2652 06BB                                           l2644 0DC3  
                                         l2636 0DB9                                           l2492 0F30  
                                         l2724 076F                                           l2716 0763  
                                         l2708 073E                                           l2556 0ED7  
                                         l2548 0EB8                                           l2740 063E  
                                         l2732 0634                                           l2564 0D70  
                                         l2812 07DB                                           l2804 07CB  
                                         l2820 07F4                                           l3604 050F  
                                         l3540 0489                                           l3532 0462  
                                         l3524 0446                                           l3516 042A  
                                         l3508 040E                                           l3460 02DD  
                                         l3452 02C3                                           l3444 02AB  
                                         l3436 02A2                                           l3428 029A  
                                         l3380 01CC                                           l3372 01B6  
                                         l3364 01A3                                           l3356 016B  
                                         l3348 0134                                           l3292 00CF  
                                         l3284 00C1                                           l3276 00AF  
                                         l3268 0092                                           l2478 0D7A  
                                         l2590 0FF5                                           l2582 0FDE  
                                         l2574 0FD6                                           l2566 0FC1  
                                         l2670 06F1                                           l2662 06D7  
                                         l2654 06BD                                           l2646 06B7  
                                         l2558 0D98                                           l2638 0DBB  
                                         l2494 0F31                                           l2718 076D  
                                         l2726 0774                                           l2750 0654  
                                         l2742 0642                                           l2734 0637  
                                         l2814 07E5                                           l2806 07CE  
                                         l3550 04A0                                           l3542 048F  
                                         l3534 0463                                           l3526 044D  
                                         l3518 0431                                           l3470 0330  
                                         l3462 02ED                                           l3454 02C6  
                                         l3446 02AF                                           l3438 02A5  
                                         l3390 0220                                           l3382 01D8  
                                         l3374 01B9                                           l3366 01A9  
                                         l3358 017B                                           l3294 00D0  
                                         l3286 00C2                                           l3278 00B1  
                                         l2592 0FF6                                           l2584 0FE5  
                                         l2576 0FD8                                           l2568 0FC3  
                                         l2680 0716                                           l2672 06FC  
                                         l2664 06E2                                           l2656 06C8  
                                         l2648 06B7                                           l2496 0F32  
                                         l2488 0F15                                           l2728 077A  
                                         l2760 06B3                                           l2752 0659  
                                         l2744 0643                                           l2736 063A  
                                         l2816 07E9                                           l2808 07D3  
                                         l3560 04BA                                           l3552 04A6  
                                         l3544 0491                                           l3536 046E  
                                         l3528 0454                                           l3480 0383  
                                         l3472 0344                                           l3464 02FE  
                                         l3456 02CB                                           l3448 02B9  
                                         l3392 0224                                           l3384 0210  
                                         l3376 01BC                                           l3368 01AF  
                                         l3296 00D1                                           l3288 00C3  
                                         l2594 0FF7                                           l2586 0FEC  
                                         l2578 0FDA                                           l2682 0718  
                                         l2674 06FE                                           l2666 06E4  
                                         l2658 06CA                                           l2690 0E5D  
                                         l2498 0F33                                           l2754 0665  
                                         l2746 0646                                           l2738 063D  
                                         l2818 07EE                                           l2770 0DDF  
                                         l2762 0DCB                                           l3562 04C6  
                                         l3554 04AC                                           l3570 04CF  
                                         l3546 0493                                           l3538 0483  
                                         l3490 03B0                                           l3482 039A  
                                         l3474 0359                                           l3466 030E  
                                         l3458 02CC                                           l3394 0225  
                                         l3386 021C                                           l3378 01C7  
                                         l3298 00D2                                           l2596 0FFE  
                                         l2588 0FF3                                           l2684 0723  
                                         l2676 0709                                           l2668 06EF  
                                         l2692 0E68                                           l2756 06AF  
                                         l2748 0649                                           l2780 0F4F  
                                         l2772 0DE5                                           l2764 0DCD  
                                         l3580 04ED                                           l3572 04D5  
                                         l3564 04C8                                           l3556 04B2  
                                         l3548 049A                                           l3492 03B7  
                                         l3484 039B                                           l3476 0365  
                                         l3468 031F                                           l3396 0229  
                                         l3388 021F                                           l2678 070B  
                                         l2694 0E6D                                           l2686 0E57  
                                         l2758 06B2                                           l2790 0F6E  
                                         l2782 0F52                                           l2766 0DD1  
                                         l3590 04FF                                           l3582 04F3  
                                         l3574 04DB                                           l3566 04CA  
                                         l3558 04B8                                           l3494 03B8  
                                         l3486 03A2                                           l3478 036E  
                                         l3398 022A                                           l2696 0E79  
                                         l2688 0E5A                                           l2792 0F72  
                                         l2784 0F57                                           l2776 0F47  
                                         l2768 0DDA                                           l3592 0501  
                                         l3584 04F5                                           l3576 04E1  
                                         l3568 04CD                                           l3496 03CC  
                                         l3488 03A9                                           l2698 0731  
                                         l2794 0F73                                           l2786 0F5B  
                                         l2778 0F49                                           l3594 0504  
                                         l3586 04F7                                           l3578 04E7  
                                         l3498 03E0                                           l2796 0F78  
                                         l2788 0F5F                                           l3588 04FD  
                                         l3596 0506                                           l2798 0F7E  
                                         l3598 0509                                           u1020 0783  
                                         u1021 0782                                           u1030 0E36  
                                         u1031 0E35                                           u1040 0E3A  
                                         u1041 0E39                                           u1050 0E51  
                                         u1051 0E50                                           u2100 01D8  
                                         u2101 01D7                                           u2110 023B  
                                         u2111 023A                                           u2200 02C3  
                                         u2120 0248                                           u2201 02C2  
                                         u2121 0247                                           u1330 0E25  
                                         u2210 036E                                           u2130 024F  
                                         u1331 0E24                                           u2211 036D  
                                         u2131 024E                                           u1340 0E2C  
                                         u2300 04B8                                           u2220 046E  
                                         u2140 0259                                           u1341 0E2B  
                                         u2301 04B7                                           u2221 046D  
                                         u2141 0258                                           _LATA 010C  
                                         u1430 0E79                                           u1350 0EA8  
                                         u2310 04D5                                           u2230 0483  
                                         u2150 0267                                           u2070 00DE  
                                         _LATB 010D                                           u1431 0E78  
                                         u1351 0EA7                                           u2311 04D4  
                                         u2231 0482                                           u2151 0266  
                                         u2071 00DD                                           u1440 0758  
                                         u1360 0F06                                           u1600 07CB  
                                         u1520 0DE5                                           u2320 04DB  
                                         u2240 048F                                           u2160 0276  
                                         u2080 0105                                           u1441 0757  
                                         u1361 0F05                                           u1601 07CA  
                                         u1521 0DE4                                           u1505 0DD6  
                                         u2321 04DA                                           u2241 048E  
                                         u2225 046A                                           u2161 0275  
                                         u2081 0104                                           u1450 0763  
                                         u1370 0ED7                                           u1530 0F4F  
                                         u2330 04E1                                           u2250 049A  
                                         u2170 027E                                           u2090 0129  
                                         u1451 0762                                           u1371 0ED6  
                                         u1531 0F4E                                           u1515 0DDB  
                                         u2331 04E0                                           u2251 0499  
                                         u2235 047F                                           u2171 027D  
                                         u2091 0128                                           u1460 076D  
                                         u1620 07DB                                           u2340 04E7  
                                         u2260 04A0                                           u2180 0288  
                                         u1461 076C                                           u1621 07DA  
                                         u2341 04E6                                           u2261 049F  
                                         u2181 0287                                           u1470 077A  
                                         u1550 0F5F                                           u1630 07E5  
                                         u2350 04ED                                           u2270 04A6  
                                         u2190 029A                                           u1471 0779  
                                         u1551 0F5E                                           u1631 07E4  
                                         u1615 07CF                                           u2351 04EC  
                                         u2271 04A5                                           u2191 0299  
                                         u2407 00A8                                           u1480 0665  
                                         u2360 04F3                                           u2280 04AC  
                                         u1481 0664                                           u1545 0F53  
                                         u2361 04F2                                           u2281 04AB  
                                         u2417 00B8                                           u1570 0F6E  
                                         u1650 07F4                                           u1490 0DD1  
                                         u2290 04B2                                           u2507 0EAD  
                                         u1571 0F6D                                           u1651 07F3  
                                         u1635 07E1                                           u1491 0DD0  
                                         u2291 04B1                                           u2195 0296  
                                         u2427 010E                                           u2517 0F18  
                                         u1565 0F60                                           u1645 07EA  
                                         u2437 011D                                           u1590 0F7E  
                                         u2607 06F6                                           u2527 0F21  
                                         u1591 0F7D                                           u1575 0F6A  
                                         u2447 0216                                           u2617 0703  
                                         u2537 0F2A                                           u1585 0F74  
                                         u2457 0230                                           u2377 0078  
                                         u2627 0710                                           u2547 0F3F  
                                         u2467 0F0B                                           u2387 0088  
                                         u2637 071D                                           u2557 0E7E  
                                         u2477 0EDC                                           u2397 0098  
                                         u2647 0728                                           u2567 06C2  
                                         u2487 0E12                                           u2657 0DA4  
                                         u2577 06CF                                           u2497 0745  
                                         u2667 0DAD                                           u2587 06DC  
                                         u2597 06E9                                           i1l33 001A  
                                         i1l34 002A                                           i1l38 002A  
                                         _TIPO 01ED                                           _BatH 0225  
                                         _BatL 0224                                           _WPUA 020C  
                                         _WPUB 020D                                           _fRTX 00E1  
                           _UltimoDadoRecebido 0079                                           _dips 0226  
                                         _main 005D                                           _loop 0228  
                                         _rett 0222                                           fsr0h 0005  
                                         fsr1h 0007                                           indf0 0000  
                                         fsr0l 0004                                           indf1 0001  
                                         fsr1l 0006                                           btemp 007E  
                                         start 002C                                  ??_Espera_TxOk 0071  
                             _enderecoRecebido 01E4                                __end_of_TX_Lora 06B6  
                              __end_of_ErrCode 0731                                    _DadosSensor 00CE  
                                ?_EUSART_Reset 0070                                  ?_EUSART_Write 0070  
                __end_of_OSCILLATOR_Initialize 0D9F                                     __TXC22PING 081C  
                                        ?_main 0070                                __end_of___lwdiv 0F83  
                                        i1l227 0633                                          i1l219 05C9  
                                        i1l180 0E0A                                          i1l190 0003  
                                        i1l193 0D6F                                          i1l177 0E09  
                              __end_of___lwmod 07F9                                          i1l187 0FC0  
                                        i1l196 0D6B                                          _RCREG 0199  
                                        _RCSTA 019D                                          _TRISA 008C  
                                        _TRISB 008D                                          _TXREG 019A  
                                        _TXSTA 019E                                          _fBusy 006D  
                                        _fParm 006C                                          _fTxOk 007A  
                                        _canal 0227                                          _flags 0060  
                               _WDT_Initialize 0D70                               __end_of_SM_CFOFF 0EE4  
                                        _temp8 0223                               __end_of_SM_RESET 0EB5  
                             __end_of_SM_START 077C                                          pclath 000A  
                                        status 0003                                          wtemp0 007E  
                                   __TXSTART22 0847                                __initialization 002E  
                                 __end_of_main 0516                                 ??_EUSART_Reset 0071  
                               ??_EUSART_Write 0071                    ?_INTERRUPT_InterruptManager 0070  
                          __end_of_Espera_TxOk 0E2D                 ??_EUSART_SetRxInterruptHandler 0073  
                                       ??_main 0235                               __end_of_ModuloOn 0F47  
                               _SM_STATUSflags 01EE                         __end_of_WDT_Initialize 0D74  
    __end_of_EUSART_DefaultFramingErrorHandler 0004            ??_EUSART_DefaultFramingErrorHandler 0070  
           ?_EUSART_DefaultFramingErrorHandler 0070              _EUSART_DefaultFramingErrorHandler 0003  
                   _EUSART_OverrunErrorHandler 00DC                                         _EEADRH 0192  
                                       _EEADRL 0191                                         _EEDATH 0194  
                                       _EEDATL 0193                                         _EECON2 0196  
                                       _ANSELA 018C                                         _ANSELB 018D  
                                       _BORCON 0116                                         u110_20 0565  
                                       u110_21 0564                                         u111_20 056B  
                                       u111_21 056A                                         u120_20 05AC  
                                       u112_20 0576                                         i1l2400 055F  
                                       u120_21 05AB                                         u112_21 0575  
                                       i1l2410 057C                                         i1l2402 0565  
                                       i1l2420 0595                                         i1l2412 0582  
                                       i1l2404 056B                                         i1l2430 05B2  
                                       i1l2422 059B                                         i1l2406 0570  
                                       i1l2440 05CF                                         i1l2432 05B8  
                                       u121_20 05B2                                         i1l2424 05A1  
                                       u113_20 057C                                         i1l2408 0576  
                                       i1l2416 0589                                         i1l2600 0DF1  
                                       u121_21 05B1                                         u113_21 057B  
                                       i1l2450 05E9                                         i1l2442 05D0  
                                       i1l2434 05BE                                         i1l2418 058F  
                                       i1l2426 05A6                                         i1l2610 0F83  
                                       i1l2602 0DF8                                         i1l2460 0619  
                                       i1l2444 05D7                                         i1l2452 05EE  
                                       i1l2436 05C4                                         i1l2428 05AC  
                                       i1l2380 052C                                         i1l2372 0516  
                                       i1l2620 0FA0                                         i1l2612 0F8A  
                                       i1l2604 0DFD                                         i1l2470 062E  
                                       i1l2462 061A                                         i1l2454 05F5  
                                       i1l2446 05DD                                         i1l2438 05C9  
                                       i1l2390 0540                                         i1l2382 0530  
                                       i1l2374 0520                                         i1l2622 0FA7  
                                       i1l2614 0F8F                                         i1l2606 0E03  
                                       i1l2472 062F                                         i1l2464 061B  
                                       i1l2456 05FB                                         u130_20 05F5  
                                       i1l2448 05E3                                         u122_20 05B8  
                                       u114_20 0582                                         i1l2392 0546  
                                       i1l2384 0534                                         i1l2376 0526  
                                       u106_20 0526                                         i1l2624 0FAC  
                                       i1l2616 0F96                                         i1l2608 0E04  
                                       u130_21 05F4                                         u122_21 05B7  
                                       u114_21 0581                                         u106_21 0525  
                                       i1l2466 0624                                         i1l2458 0618  
                                       i1l2394 054F                                         i1l2386 0538  
                                       i1l2378 0527                                         i1l2626 0FB7  
                                       i1l2618 0F9B                                         i1l2468 0628  
                                       i1l2396 0553                                         i1l2388 053C  
                                       i1l2484 0D6C                                         i1l2628 0FBD  
                                       i1l2398 0559                                         i1l2486 0D68  
                                       i1l2830 0014                                         u131_20 05FB  
                                       u123_20 05BE                                         u115_20 0588  
                                       u107_20 0546                                         i1l2832 001F  
                                       i1l2824 0006                                         u131_21 05FA  
                                       u123_21 05BD                                         u115_21 0587  
                                       u107_21 0545                                         i1l2834 0024  
                                       i1l2826 000A                                         i1l2828 000F  
                                       i1l2598 0DEA                                         u132_20 062E  
                                       u124_20 05C4                                         u116_20 058F  
                                       u108_20 0559                                         u140_20 0F8F  
                                       u132_21 062D                                         u124_21 05C3  
                                       u116_21 058E                                         u108_21 0558  
                                       u140_21 0F8E                                         u125_20 05CF  
                                       u117_20 0595                                         u109_20 055F  
                                       u141_20 0FA0                                         u125_21 05CE  
                                       u117_21 0594                                         u109_21 055E  
                                       u141_21 0F9F                                         u126_20 05D7  
                                       u118_20 059B                                         u142_20 0FB7  
                                       u126_21 05D6                                         u118_21 059A  
                                       u142_21 0FB6                                         u127_20 05DD  
                                       u119_20 05A1                                         u127_21 05DC  
                                       u119_21 05A0                                         u128_20 05E3  
                                       u128_21 05E2                                         u129_20 05E9  
                                       u129_21 05E8                                         _OFFSET 016C  
                                       u138_20 0DF1                                         u170_20 0024  
                                       u138_21 0DF0                                         u170_21 0023  
                                       u139_20 0E03                                         u139_21 0E02  
                                       u166_20 000A                                         u166_21 0009  
                                       u167_20 000F                                         u167_21 000E  
                                       u168_20 0014                                         u168_21 0013  
                                       u169_20 001F                                         u169_21 001E  
                                       _OSCCON 0099                                         _SPBRGH 019C  
                                       _SPBRGL 019B                                         _WDTCON 0097  
                                    ??_TX_Lora 0075                                         __CFC22 07F9  
                                    ??_ErrCode 0072                                         __CFOFF 085A  
                                       __RESET 0863                                         __RXC22 0834  
                                       _fATerr 006E                                         _fDetec 00E5  
                                       ___wmul 0DCB                                      ??___lwdiv 0075  
                                    ??___lwmod 0075                            _EUSART_Transmit_ISR 0DEA  
                                       _indice 007B                               ??_SM_CONFIGRADIO 0073  
                                       _offset 01E0                                         _temp16 01E6  
                            __end_of_SM_MODORX 0E86                                ?_WDT_Initialize 0070  
                         ?_EUSART_Transmit_ISR 0070                             _M_EnderecoRecebido 0221  
                      __end_of__initialization 0059                                     _fRetSensor 016E  
         __end_of_EUSART_SetTxInterruptHandler 0D92                   _EUSART_SetTxInterruptHandler 0D8C  
                                  _Espera_TxOk 0E0B                                 __pcstackCOMMON 0070  
                                    ?_SM_CFOFF 0070                                      ?_SM_RESET 0070  
                                    ?_SM_START 0070                                 _OPTION_REGbits 0095  
                         _eusartRxStatusBuffer 01A0                ??_EUSART_SetOverrunErrorHandler 0073  
                        ??_EUSART_Transmit_ISR 0070                              __end_of_ModuloOff 0DB2  
                         __end_of_EUSART_Reset 07C5                                     __pbssBANK0 0020  
                                   __pbssBANK1 00A0                                     __pbssBANK2 0120  
                                   __pbssBANK3 01A0                                     __pbssBANK4 0220  
                         __end_of_EUSART_Write 0E57                                      ?_ModuloOn 0070  
                                   __pmaintext 005D                  ?_EUSART_SetTxInterruptHandler 0071  
             _EUSART_TxDefaultInterruptHandler 006A                                        ?___wmul 0071  
                                   __pintentry 0004                                     ??_SM_CFOFF 0073  
                                      _BAUDCON 019F                              _TempoDeReplicacao 0168  
                                      _APFCON0 011D                                        _APFCON1 011E  
                 ??_EUSART_DefaultErrorHandler 0071                                     ??_SM_RESET 0073  
                                   ??_SM_START 0075                                  _eusartRxCount 00E8  
                                   _endereco_C 01EB                                     _endereco_D 01EF  
                                   _endereco_M 01EC                                     _endereco_U 01EA  
                                      _OSCTUNE 0098                       ??_EUSART_SetErrorHandler 0073  
                                      _TX_Lora 0634                                        _ErrCode 06B6  
                                   ??_ModuloOn 0071                                 _fComandoSirene 00E0  
                                      _fErroID 00E3                                        _fLigado 00E2  
                                      _fEspera 022B                                        _fRepete 022C  
                                      _fProgID 00EE                                        ___lwdiv 0F47  
                                      ___lwmod 07C5                                        __ptext1 0DCB  
                                      __ptext2 07C5                                        __ptext3 0F47  
                                      __ptext4 0D70                                        __ptext5 0634  
                                      __ptext6 0EE4                                        __ptext7 0EB5  
                                      __ptext8 0E0B                                        __ptext9 0731  
                        _OSCILLATOR_Initialize 0D98                       ??_PIN_MANAGER_Initialize 0071  
                                      clrloop0 0D93                           end_of_initialization 0059  
        __end_of_EUSART_SetOverrunErrorHandler 0D86                  _EUSART_SetOverrunErrorHandler 0D80  
                            _EUSART_Initialize 0FC1                             ?_EUSART_Initialize 0070  
                                    _RCSTAbits 019D                            ??_EUSART_Initialize 0073  
                             ??_WDT_Initialize 0071                 ??_EUSART_SetTxInterruptHandler 0073  
                                    _PORTAbits 000C                                      _PORTBbits 000D  
                                  _TotalSerial 0066                                      _TRISBbits 008D  
                                    _SM_MODORX 0E57                                      _DadosLora 0120  
                    __end_of_EUSART_Initialize 1000                                  _AcAliveBatLOW 022F  
                                    _TXSTAbits 019E                                 __end_of__CFC22 081C  
                           __end_of__TXC22PING 0834                                 __end_of__CFOFF 0863  
                               __end_of__RESET 0868                                 __end_of__RXC22 0847  
                                 ?_Espera_TxOk 0070             __end_of_EUSART_DefaultErrorHandler 0D6C  
                   _EUSART_DefaultErrorHandler 0D68                                 __end_of___wmul 0DEA  
                                 _EUSART_Reset 077C                                   _EUSART_Write 0E2D  
                       ?_OSCILLATOR_Initialize 0070                                   _indiceSensor 016F  
                          start_initialization 002E                             __end_of__TXSTART22 085A  
                                   ?_SM_MODORX 0070                                    SM_MODORX@ch 0070  
 EUSART_SetRxInterruptHandler@interruptHandler 0071   EUSART_SetTxInterruptHandler@interruptHandler 0071  
                           _C_EnderecoRecebido 0232                             _U_EnderecoRecebido 0220  
                                    _ModuloOff 0D9F                 ?_EUSART_SetOverrunErrorHandler 0071  
                   _EUSART_FramingErrorHandler 00DE                                       ??___wmul 0075  
                       _EUSART_SetErrorHandler 0D74                    __end_of_EUSART_Transmit_ISR 0E0B  
                                  __pbssCOMMON 0079                                      ___latbits 0001  
                                __pcstackBANK4 0235                     __end_of_EUSART_Receive_ISR 0FC1  
                                     ?_TX_Lora 0070               _EUSART_RxDefaultInterruptHandler 0068  
                                     ?_ErrCode 0070                                     ?_ModuloOff 0070  
                                    __pnvBANK4 0233                   __end_of_EUSART_RxDataHandler 0634  
                             ___lwdiv@dividend 0073                         _PIN_MANAGER_Initialize 0DB2  
                                     ?___lwdiv 0071                                       ?___lwmod 0071  
                                 _eusartRxHead 00EA                                   _eusartTxHead 00ED  
                                 _eusartRxTail 00E9                                   _eusartTxTail 00EC  
                 ??_INTERRUPT_InterruptManager 0071                        _eusartTxBufferRemaining 00EB  
                                  ??_SM_MODORX 0073                                      _pacoteTRX 00C0  
                             ___lwdiv@quotient 0076                                       _ENDERECO 016A  
                               _eusartRxBuffer 0020                                 _eusartTxBuffer 00A0  
                                    _segsAlive 0233                                 ___wmul@product 0075  
                                     _LATAbits 010C         EUSART_SetErrorHandler@interruptHandler 0071  
                                     _LATBbits 010D                                      clear_ram0 0D92  
                                     _PIE1bits 0091                              _eusartRxLastError 00E7  
                                     _PIR1bits 0011                ??_EUSART_SetFramingErrorHandler 0073  
    __end_of_EUSART_DefaultOverrunErrorHandler 0D70            ??_EUSART_DefaultOverrunErrorHandler 0070  
           ?_EUSART_DefaultOverrunErrorHandler 0070              _EUSART_DefaultOverrunErrorHandler 0D6C  
                                     _SM_CFOFF 0EB5                             _D_EnderecoRecebido 0231  
                                     _SM_RESET 0E86                                       _SM_START 0731  
                            ___wmul@multiplier 0071                                   _AcAliveBatOK 0230  
                                  ??_ModuloOff 0071                                     _EECON1bits 0195  
                                     _ModuloOn 0F13                                    _AcEVTBatLOW 022D  
                      ??_OSCILLATOR_Initialize 0071                            _EUSART_ErrorHandler 00DA  
                                     _fRetLora 00EF                    ?_EUSART_DefaultErrorHandler 0070  
                                     _fTimeOut 00E4                                       _cicloLED 0162  
                              ___lwdiv@divisor 0071                           _EUSART_RxDataHandler 0516  
                               _SM_CONFIGRADIO 0EE4                                ___lwdiv@counter 0078  
                                     __ptext10 0E86                                       __ptext11 0F13  
                                     __ptext20 0D8C                                       __ptext12 0E57  
                                     __ptext21 0D86                                       __ptext13 0E2D  
                                     __ptext30 0D68                                       __ptext22 0D80  
                                     __ptext14 077C                                       __ptext31 0516  
                                     __ptext23 0D7A                                       __ptext15 0DB2  
                                     __ptext24 0D74                                       __ptext16 0D98  
                                     __ptext17 06B6                                       __ptext26 0DEA  
                                     __ptext18 0D9F                                       __ptext27 0F83  
                                     __ptext19 0FC1                                       __ptext28 0D6C  
                                     __ptext29 0003                                       _endereco 01E2  
                             SM_CONFIGRADIO@ch 0070                                       _passagem 0160  
                      ?_EUSART_SetErrorHandler 0071                                       _tempoRTX 01E8  
EUSART_SetOverrunErrorHandler@interruptHandler 0071                                       int$flags 007E  
           __end_of_INTERRUPT_InterruptManager 002C                     _INTERRUPT_InterruptManager 0004  
        __end_of_EUSART_SetFramingErrorHandler 0D80                  _EUSART_SetFramingErrorHandler 0D7A  
                       __end_of_SM_CONFIGRADIO 0F13                                     _INTCONbits 000B  
                        ?_EUSART_RxDataHandler 0070                                     _AcEVTBatOK 022E  
                                     intlevel1 0000                               ___lwmod@dividend 0073  
                      ?_PIN_MANAGER_Initialize 0070                 __end_of_EUSART_SetErrorHandler 0D7A  
         __end_of_EUSART_SetRxInterruptHandler 0D8C                   _EUSART_SetRxInterruptHandler 0D86  
                           _EUSART_Receive_ISR 0F83  EUSART_SetFramingErrorHandler@interruptHandler 0071  
                                  _tempoEspera 0166                                  __pstringtext1 07F9  
                                __pstringtext2 081C                                  __pstringtext3 0834  
                                __pstringtext4 0847                                  __pstringtext5 085A  
                                __pstringtext6 0863                                    ErrCode@code 0074  
                          ?_EUSART_Receive_ISR 0070                                ___lwmod@divisor 0071  
                              ?_SM_CONFIGRADIO 0070                                ___lwmod@counter 0076  
                                   _WDTCONbits 0097                             EUSART_Write@txData 0072  
               __end_of_PIN_MANAGER_Initialize 0DCB                           ??_EUSART_Receive_ISR 0071  
