

Microchip MPLAB XC8 Assembler V2.32 build 20210201212658 
                                                                                               Mon Oct 25 08:17:44 2021

Microchip MPLAB XC8 C Compiler v2.32 (Free license) build 20210201212658 Og1 
     1                           	processor	16F1827
     2                           	pagewidth 120
     3                           	opt	flic
     4                           	psect	eeprom_data,global,class=EEDATA,space=3,delta=2,noexec
     5                           	psect	stringtext1,global,class=STRCODE,delta=2,noexec
     6                           	psect	stringtext2,global,class=STRCODE,delta=2,noexec
     7                           	psect	stringtext3,global,class=STRCODE,delta=2,noexec
     8                           	psect	stringtext4,global,class=STRCODE,delta=2,noexec
     9                           	psect	stringtext5,global,class=STRCODE,delta=2,noexec
    10                           	psect	stringtext6,global,class=STRCODE,delta=2,noexec
    11                           	psect	nvBANK4,global,class=BANK4,space=1,delta=1,noexec
    12                           	psect	cinit,global,class=CODE,merge=1,delta=2
    13                           	psect	bssCOMMON,global,class=COMMON,space=1,delta=1,noexec
    14                           	psect	bssBANK0,global,class=BANK0,space=1,delta=1,noexec
    15                           	psect	bssBANK1,global,class=BANK1,space=1,delta=1,noexec
    16                           	psect	bssBANK2,global,class=BANK2,space=1,delta=1,noexec
    17                           	psect	bssBANK3,global,class=BANK3,space=1,delta=1,noexec
    18                           	psect	bssBANK4,global,class=BANK4,space=1,delta=1,noexec
    19                           	psect	clrtext,global,class=CODE,delta=2
    20                           	psect	cstackBANK4,global,class=BANK4,space=1,delta=1,noexec
    21                           	psect	cstackCOMMON,global,class=COMMON,space=1,delta=1,noexec
    22                           	psect	maintext,global,class=CODE,merge=1,split=1,delta=2
    23                           	psect	text1,local,class=CODE,merge=1,delta=2,group=1
    24                           	psect	text2,local,class=CODE,merge=1,delta=2,group=1
    25                           	psect	text3,local,class=CODE,merge=1,delta=2,group=1
    26                           	psect	text4,local,class=CODE,merge=1,delta=2
    27                           	psect	text5,local,class=CODE,merge=1,delta=2
    28                           	psect	text6,local,class=CODE,merge=1,delta=2
    29                           	psect	text7,local,class=CODE,merge=1,delta=2
    30                           	psect	text8,local,class=CODE,merge=1,delta=2
    31                           	psect	text9,local,class=CODE,merge=1,delta=2
    32                           	psect	text10,local,class=CODE,merge=1,delta=2
    33                           	psect	text11,local,class=CODE,merge=1,delta=2
    34                           	psect	text12,local,class=CODE,merge=1,delta=2
    35                           	psect	text13,local,class=CODE,merge=1,delta=2
    36                           	psect	text14,local,class=CODE,merge=1,delta=2
    37                           	psect	text15,local,class=CODE,merge=1,delta=2
    38                           	psect	text16,local,class=CODE,merge=1,delta=2
    39                           	psect	text17,local,class=CODE,merge=1,delta=2
    40                           	psect	text18,local,class=CODE,merge=1,delta=2
    41                           	psect	text19,local,class=CODE,merge=1,delta=2
    42                           	psect	text20,local,class=CODE,merge=1,delta=2
    43                           	psect	text21,local,class=CODE,merge=1,delta=2
    44                           	psect	text22,local,class=CODE,merge=1,delta=2
    45                           	psect	text23,local,class=CODE,merge=1,delta=2
    46                           	psect	text24,local,class=CODE,merge=1,delta=2
    47                           	psect	intentry,global,class=CODE,delta=2
    48                           	psect	text26,local,class=CODE,merge=1,delta=2
    49                           	psect	text27,local,class=CODE,merge=1,delta=2
    50                           	psect	text28,local,class=CODE,merge=1,delta=2
    51                           	psect	text29,local,class=CODE,merge=1,delta=2
    52                           	psect	text30,local,class=CODE,merge=1,delta=2
    53                           	psect	text31,local,class=CODE,merge=1,delta=2
    54                           	psect	config,global,abs,ovrld,class=CONFIG,space=4,delta=2,noexec
    55                           	dabs	1,0x7E,2
    56  0000                     
    57                           ; Version 2.20
    58                           ; Generated 12/02/2020 GMT
    59                           ; 
    60                           ; Copyright © 2020, Microchip Technology Inc. and its subsidiaries ("Microchip")
    61                           ; All rights reserved.
    62                           ; 
    63                           ; This software is developed by Microchip Technology Inc. and its subsidiaries ("Microch
      +                          ip").
    64                           ; 
    65                           ; Redistribution and use in source and binary forms, with or without modification, are
    66                           ; permitted provided that the following conditions are met:
    67                           ; 
    68                           ;     1. Redistributions of source code must retain the above copyright notice, this lis
      +                          t of
    69                           ;        conditions and the following disclaimer.
    70                           ; 
    71                           ;     2. Redistributions in binary form must reproduce the above copyright notice, this 
      +                          list
    72                           ;        of conditions and the following disclaimer in the documentation and/or other
    73                           ;        materials provided with the distribution.
    74                           ; 
    75                           ;     3. Microchip's name may not be used to endorse or promote products derived from th
      +                          is
    76                           ;        software without specific prior written permission.
    77                           ; 
    78                           ; THIS SOFTWARE IS PROVIDED BY MICROCHIP "AS IS" AND ANY EXPRESS OR IMPLIED WARRANTIES,
    79                           ; INCLUDING, BUT NOT LIMITED TO, THE IMPLIED WARRANTIES OF MERCHANTABILITY AND FITNESS F
      +                          OR
    80                           ; PURPOSE ARE DISCLAIMED.  IN NO EVENT SHALL MICROCHIP BE LIABLE FOR ANY DIRECT, INDIREC
      +                          T,
    81                           ; INCIDENTAL, SPECIAL, EXEMPLARY, OR CONSEQUENTIAL DAMAGES (INCLUDING BUT NOT LIMITED TO
    82                           ; PROCUREMENT OF SUBSTITUTE GOODS OR SERVICES; LOSS OF USE, DATA OR PROFITS; OR BUSINESS
    83                           ; INTERRUPTION) HOWSOEVER CAUSED AND ON ANY THEORY OF LIABILITY, WHETHER IN CONTRACT, ST
      +                          RICT
    84                           ; LIABILITY, OR TORT (INCLUDING NEGLIGENCE OR OTHERWISE) ARISING IN ANY WAY OUT OF THE U
      +                          SE OF
    85                           ; THIS SOFTWARE, EVEN IF ADVISED OF THE POSSIBILITY OF SUCH DAMAGE.
    86                           ; 
    87                           ; 
    88                           ; Code-generator required, PIC16F1827 Definitions
    89                           ; 
    90                           ; SFR Addresses
    91  0000                     	;# 
    92  0001                     	;# 
    93  0002                     	;# 
    94  0003                     	;# 
    95  0004                     	;# 
    96  0005                     	;# 
    97  0006                     	;# 
    98  0007                     	;# 
    99  0008                     	;# 
   100  0009                     	;# 
   101  000A                     	;# 
   102  000B                     	;# 
   103  000C                     	;# 
   104  000D                     	;# 
   105  0011                     	;# 
   106  0012                     	;# 
   107  0013                     	;# 
   108  0014                     	;# 
   109  0015                     	;# 
   110  0016                     	;# 
   111  0016                     	;# 
   112  0017                     	;# 
   113  0018                     	;# 
   114  0019                     	;# 
   115  001A                     	;# 
   116  001B                     	;# 
   117  001C                     	;# 
   118  001E                     	;# 
   119  001F                     	;# 
   120  008C                     	;# 
   121  008D                     	;# 
   122  0091                     	;# 
   123  0092                     	;# 
   124  0093                     	;# 
   125  0094                     	;# 
   126  0095                     	;# 
   127  0096                     	;# 
   128  0097                     	;# 
   129  0098                     	;# 
   130  0099                     	;# 
   131  009A                     	;# 
   132  009B                     	;# 
   133  009B                     	;# 
   134  009C                     	;# 
   135  009D                     	;# 
   136  009E                     	;# 
   137  010C                     	;# 
   138  010D                     	;# 
   139  0111                     	;# 
   140  0112                     	;# 
   141  0113                     	;# 
   142  0114                     	;# 
   143  0115                     	;# 
   144  0116                     	;# 
   145  0117                     	;# 
   146  0118                     	;# 
   147  0119                     	;# 
   148  011A                     	;# 
   149  011B                     	;# 
   150  011D                     	;# 
   151  011E                     	;# 
   152  018C                     	;# 
   153  018D                     	;# 
   154  0191                     	;# 
   155  0191                     	;# 
   156  0192                     	;# 
   157  0193                     	;# 
   158  0193                     	;# 
   159  0193                     	;# 
   160  0194                     	;# 
   161  0195                     	;# 
   162  0196                     	;# 
   163  0199                     	;# 
   164  019A                     	;# 
   165  019B                     	;# 
   166  019B                     	;# 
   167  019B                     	;# 
   168  019B                     	;# 
   169  019C                     	;# 
   170  019C                     	;# 
   171  019D                     	;# 
   172  019E                     	;# 
   173  019F                     	;# 
   174  020C                     	;# 
   175  020D                     	;# 
   176  0211                     	;# 
   177  0211                     	;# 
   178  0212                     	;# 
   179  0212                     	;# 
   180  0213                     	;# 
   181  0213                     	;# 
   182  0214                     	;# 
   183  0214                     	;# 
   184  0215                     	;# 
   185  0215                     	;# 
   186  0215                     	;# 
   187  0216                     	;# 
   188  0216                     	;# 
   189  0217                     	;# 
   190  0217                     	;# 
   191  0219                     	;# 
   192  021A                     	;# 
   193  021B                     	;# 
   194  021C                     	;# 
   195  021D                     	;# 
   196  021E                     	;# 
   197  021F                     	;# 
   198  0291                     	;# 
   199  0291                     	;# 
   200  0292                     	;# 
   201  0293                     	;# 
   202  0294                     	;# 
   203  0295                     	;# 
   204  0295                     	;# 
   205  0296                     	;# 
   206  0298                     	;# 
   207  0298                     	;# 
   208  0299                     	;# 
   209  029A                     	;# 
   210  029B                     	;# 
   211  029C                     	;# 
   212  029C                     	;# 
   213  029D                     	;# 
   214  029E                     	;# 
   215  029E                     	;# 
   216  0311                     	;# 
   217  0311                     	;# 
   218  0312                     	;# 
   219  0313                     	;# 
   220  0318                     	;# 
   221  0318                     	;# 
   222  0319                     	;# 
   223  031A                     	;# 
   224  0394                     	;# 
   225  0395                     	;# 
   226  0396                     	;# 
   227  039A                     	;# 
   228  039C                     	;# 
   229  039D                     	;# 
   230  039E                     	;# 
   231  039F                     	;# 
   232  0415                     	;# 
   233  0416                     	;# 
   234  0417                     	;# 
   235  041C                     	;# 
   236  041D                     	;# 
   237  041E                     	;# 
   238  0FE4                     	;# 
   239  0FE5                     	;# 
   240  0FE6                     	;# 
   241  0FE7                     	;# 
   242  0FE8                     	;# 
   243  0FE9                     	;# 
   244  0FEA                     	;# 
   245  0FEB                     	;# 
   246  0FED                     	;# 
   247  0FEE                     	;# 
   248  0FEF                     	;# 
   249  0000                     	;# 
   250  0001                     	;# 
   251  0002                     	;# 
   252  0003                     	;# 
   253  0004                     	;# 
   254  0005                     	;# 
   255  0006                     	;# 
   256  0007                     	;# 
   257  0008                     	;# 
   258  0009                     	;# 
   259  000A                     	;# 
   260  000B                     	;# 
   261  000C                     	;# 
   262  000D                     	;# 
   263  0011                     	;# 
   264  0012                     	;# 
   265  0013                     	;# 
   266  0014                     	;# 
   267  0015                     	;# 
   268  0016                     	;# 
   269  0016                     	;# 
   270  0017                     	;# 
   271  0018                     	;# 
   272  0019                     	;# 
   273  001A                     	;# 
   274  001B                     	;# 
   275  001C                     	;# 
   276  001E                     	;# 
   277  001F                     	;# 
   278  008C                     	;# 
   279  008D                     	;# 
   280  0091                     	;# 
   281  0092                     	;# 
   282  0093                     	;# 
   283  0094                     	;# 
   284  0095                     	;# 
   285  0096                     	;# 
   286  0097                     	;# 
   287  0098                     	;# 
   288  0099                     	;# 
   289  009A                     	;# 
   290  009B                     	;# 
   291  009B                     	;# 
   292  009C                     	;# 
   293  009D                     	;# 
   294  009E                     	;# 
   295  010C                     	;# 
   296  010D                     	;# 
   297  0111                     	;# 
   298  0112                     	;# 
   299  0113                     	;# 
   300  0114                     	;# 
   301  0115                     	;# 
   302  0116                     	;# 
   303  0117                     	;# 
   304  0118                     	;# 
   305  0119                     	;# 
   306  011A                     	;# 
   307  011B                     	;# 
   308  011D                     	;# 
   309  011E                     	;# 
   310  018C                     	;# 
   311  018D                     	;# 
   312  0191                     	;# 
   313  0191                     	;# 
   314  0192                     	;# 
   315  0193                     	;# 
   316  0193                     	;# 
   317  0193                     	;# 
   318  0194                     	;# 
   319  0195                     	;# 
   320  0196                     	;# 
   321  0199                     	;# 
   322  019A                     	;# 
   323  019B                     	;# 
   324  019B                     	;# 
   325  019B                     	;# 
   326  019B                     	;# 
   327  019C                     	;# 
   328  019C                     	;# 
   329  019D                     	;# 
   330  019E                     	;# 
   331  019F                     	;# 
   332  020C                     	;# 
   333  020D                     	;# 
   334  0211                     	;# 
   335  0211                     	;# 
   336  0212                     	;# 
   337  0212                     	;# 
   338  0213                     	;# 
   339  0213                     	;# 
   340  0214                     	;# 
   341  0214                     	;# 
   342  0215                     	;# 
   343  0215                     	;# 
   344  0215                     	;# 
   345  0216                     	;# 
   346  0216                     	;# 
   347  0217                     	;# 
   348  0217                     	;# 
   349  0219                     	;# 
   350  021A                     	;# 
   351  021B                     	;# 
   352  021C                     	;# 
   353  021D                     	;# 
   354  021E                     	;# 
   355  021F                     	;# 
   356  0291                     	;# 
   357  0291                     	;# 
   358  0292                     	;# 
   359  0293                     	;# 
   360  0294                     	;# 
   361  0295                     	;# 
   362  0295                     	;# 
   363  0296                     	;# 
   364  0298                     	;# 
   365  0298                     	;# 
   366  0299                     	;# 
   367  029A                     	;# 
   368  029B                     	;# 
   369  029C                     	;# 
   370  029C                     	;# 
   371  029D                     	;# 
   372  029E                     	;# 
   373  029E                     	;# 
   374  0311                     	;# 
   375  0311                     	;# 
   376  0312                     	;# 
   377  0313                     	;# 
   378  0318                     	;# 
   379  0318                     	;# 
   380  0319                     	;# 
   381  031A                     	;# 
   382  0394                     	;# 
   383  0395                     	;# 
   384  0396                     	;# 
   385  039A                     	;# 
   386  039C                     	;# 
   387  039D                     	;# 
   388  039E                     	;# 
   389  039F                     	;# 
   390  0415                     	;# 
   391  0416                     	;# 
   392  0417                     	;# 
   393  041C                     	;# 
   394  041D                     	;# 
   395  041E                     	;# 
   396  0FE4                     	;# 
   397  0FE5                     	;# 
   398  0FE6                     	;# 
   399  0FE7                     	;# 
   400  0FE8                     	;# 
   401  0FE9                     	;# 
   402  0FEA                     	;# 
   403  0FEB                     	;# 
   404  0FED                     	;# 
   405  0FEE                     	;# 
   406  0FEF                     	;# 
   407  0000                     	;# 
   408  0001                     	;# 
   409  0002                     	;# 
   410  0003                     	;# 
   411  0004                     	;# 
   412  0005                     	;# 
   413  0006                     	;# 
   414  0007                     	;# 
   415  0008                     	;# 
   416  0009                     	;# 
   417  000A                     	;# 
   418  000B                     	;# 
   419  000C                     	;# 
   420  000D                     	;# 
   421  0011                     	;# 
   422  0012                     	;# 
   423  0013                     	;# 
   424  0014                     	;# 
   425  0015                     	;# 
   426  0016                     	;# 
   427  0016                     	;# 
   428  0017                     	;# 
   429  0018                     	;# 
   430  0019                     	;# 
   431  001A                     	;# 
   432  001B                     	;# 
   433  001C                     	;# 
   434  001E                     	;# 
   435  001F                     	;# 
   436  008C                     	;# 
   437  008D                     	;# 
   438  0091                     	;# 
   439  0092                     	;# 
   440  0093                     	;# 
   441  0094                     	;# 
   442  0095                     	;# 
   443  0096                     	;# 
   444  0097                     	;# 
   445  0098                     	;# 
   446  0099                     	;# 
   447  009A                     	;# 
   448  009B                     	;# 
   449  009B                     	;# 
   450  009C                     	;# 
   451  009D                     	;# 
   452  009E                     	;# 
   453  010C                     	;# 
   454  010D                     	;# 
   455  0111                     	;# 
   456  0112                     	;# 
   457  0113                     	;# 
   458  0114                     	;# 
   459  0115                     	;# 
   460  0116                     	;# 
   461  0117                     	;# 
   462  0118                     	;# 
   463  0119                     	;# 
   464  011A                     	;# 
   465  011B                     	;# 
   466  011D                     	;# 
   467  011E                     	;# 
   468  018C                     	;# 
   469  018D                     	;# 
   470  0191                     	;# 
   471  0191                     	;# 
   472  0192                     	;# 
   473  0193                     	;# 
   474  0193                     	;# 
   475  0193                     	;# 
   476  0194                     	;# 
   477  0195                     	;# 
   478  0196                     	;# 
   479  0199                     	;# 
   480  019A                     	;# 
   481  019B                     	;# 
   482  019B                     	;# 
   483  019B                     	;# 
   484  019B                     	;# 
   485  019C                     	;# 
   486  019C                     	;# 
   487  019D                     	;# 
   488  019E                     	;# 
   489  019F                     	;# 
   490  020C                     	;# 
   491  020D                     	;# 
   492  0211                     	;# 
   493  0211                     	;# 
   494  0212                     	;# 
   495  0212                     	;# 
   496  0213                     	;# 
   497  0213                     	;# 
   498  0214                     	;# 
   499  0214                     	;# 
   500  0215                     	;# 
   501  0215                     	;# 
   502  0215                     	;# 
   503  0216                     	;# 
   504  0216                     	;# 
   505  0217                     	;# 
   506  0217                     	;# 
   507  0219                     	;# 
   508  021A                     	;# 
   509  021B                     	;# 
   510  021C                     	;# 
   511  021D                     	;# 
   512  021E                     	;# 
   513  021F                     	;# 
   514  0291                     	;# 
   515  0291                     	;# 
   516  0292                     	;# 
   517  0293                     	;# 
   518  0294                     	;# 
   519  0295                     	;# 
   520  0295                     	;# 
   521  0296                     	;# 
   522  0298                     	;# 
   523  0298                     	;# 
   524  0299                     	;# 
   525  029A                     	;# 
   526  029B                     	;# 
   527  029C                     	;# 
   528  029C                     	;# 
   529  029D                     	;# 
   530  029E                     	;# 
   531  029E                     	;# 
   532  0311                     	;# 
   533  0311                     	;# 
   534  0312                     	;# 
   535  0313                     	;# 
   536  0318                     	;# 
   537  0318                     	;# 
   538  0319                     	;# 
   539  031A                     	;# 
   540  0394                     	;# 
   541  0395                     	;# 
   542  0396                     	;# 
   543  039A                     	;# 
   544  039C                     	;# 
   545  039D                     	;# 
   546  039E                     	;# 
   547  039F                     	;# 
   548  0415                     	;# 
   549  0416                     	;# 
   550  0417                     	;# 
   551  041C                     	;# 
   552  041D                     	;# 
   553  041E                     	;# 
   554  0FE4                     	;# 
   555  0FE5                     	;# 
   556  0FE6                     	;# 
   557  0FE7                     	;# 
   558  0FE8                     	;# 
   559  0FE9                     	;# 
   560  0FEA                     	;# 
   561  0FEB                     	;# 
   562  0FED                     	;# 
   563  0FEE                     	;# 
   564  0FEF                     	;# 
   565  0000                     	;# 
   566  0001                     	;# 
   567  0002                     	;# 
   568  0003                     	;# 
   569  0004                     	;# 
   570  0005                     	;# 
   571  0006                     	;# 
   572  0007                     	;# 
   573  0008                     	;# 
   574  0009                     	;# 
   575  000A                     	;# 
   576  000B                     	;# 
   577  000C                     	;# 
   578  000D                     	;# 
   579  0011                     	;# 
   580  0012                     	;# 
   581  0013                     	;# 
   582  0014                     	;# 
   583  0015                     	;# 
   584  0016                     	;# 
   585  0016                     	;# 
   586  0017                     	;# 
   587  0018                     	;# 
   588  0019                     	;# 
   589  001A                     	;# 
   590  001B                     	;# 
   591  001C                     	;# 
   592  001E                     	;# 
   593  001F                     	;# 
   594  008C                     	;# 
   595  008D                     	;# 
   596  0091                     	;# 
   597  0092                     	;# 
   598  0093                     	;# 
   599  0094                     	;# 
   600  0095                     	;# 
   601  0096                     	;# 
   602  0097                     	;# 
   603  0098                     	;# 
   604  0099                     	;# 
   605  009A                     	;# 
   606  009B                     	;# 
   607  009B                     	;# 
   608  009C                     	;# 
   609  009D                     	;# 
   610  009E                     	;# 
   611  010C                     	;# 
   612  010D                     	;# 
   613  0111                     	;# 
   614  0112                     	;# 
   615  0113                     	;# 
   616  0114                     	;# 
   617  0115                     	;# 
   618  0116                     	;# 
   619  0117                     	;# 
   620  0118                     	;# 
   621  0119                     	;# 
   622  011A                     	;# 
   623  011B                     	;# 
   624  011D                     	;# 
   625  011E                     	;# 
   626  018C                     	;# 
   627  018D                     	;# 
   628  0191                     	;# 
   629  0191                     	;# 
   630  0192                     	;# 
   631  0193                     	;# 
   632  0193                     	;# 
   633  0193                     	;# 
   634  0194                     	;# 
   635  0195                     	;# 
   636  0196                     	;# 
   637  0199                     	;# 
   638  019A                     	;# 
   639  019B                     	;# 
   640  019B                     	;# 
   641  019B                     	;# 
   642  019B                     	;# 
   643  019C                     	;# 
   644  019C                     	;# 
   645  019D                     	;# 
   646  019E                     	;# 
   647  019F                     	;# 
   648  020C                     	;# 
   649  020D                     	;# 
   650  0211                     	;# 
   651  0211                     	;# 
   652  0212                     	;# 
   653  0212                     	;# 
   654  0213                     	;# 
   655  0213                     	;# 
   656  0214                     	;# 
   657  0214                     	;# 
   658  0215                     	;# 
   659  0215                     	;# 
   660  0215                     	;# 
   661  0216                     	;# 
   662  0216                     	;# 
   663  0217                     	;# 
   664  0217                     	;# 
   665  0219                     	;# 
   666  021A                     	;# 
   667  021B                     	;# 
   668  021C                     	;# 
   669  021D                     	;# 
   670  021E                     	;# 
   671  021F                     	;# 
   672  0291                     	;# 
   673  0291                     	;# 
   674  0292                     	;# 
   675  0293                     	;# 
   676  0294                     	;# 
   677  0295                     	;# 
   678  0295                     	;# 
   679  0296                     	;# 
   680  0298                     	;# 
   681  0298                     	;# 
   682  0299                     	;# 
   683  029A                     	;# 
   684  029B                     	;# 
   685  029C                     	;# 
   686  029C                     	;# 
   687  029D                     	;# 
   688  029E                     	;# 
   689  029E                     	;# 
   690  0311                     	;# 
   691  0311                     	;# 
   692  0312                     	;# 
   693  0313                     	;# 
   694  0318                     	;# 
   695  0318                     	;# 
   696  0319                     	;# 
   697  031A                     	;# 
   698  0394                     	;# 
   699  0395                     	;# 
   700  0396                     	;# 
   701  039A                     	;# 
   702  039C                     	;# 
   703  039D                     	;# 
   704  039E                     	;# 
   705  039F                     	;# 
   706  0415                     	;# 
   707  0416                     	;# 
   708  0417                     	;# 
   709  041C                     	;# 
   710  041D                     	;# 
   711  041E                     	;# 
   712  0FE4                     	;# 
   713  0FE5                     	;# 
   714  0FE6                     	;# 
   715  0FE7                     	;# 
   716  0FE8                     	;# 
   717  0FE9                     	;# 
   718  0FEA                     	;# 
   719  0FEB                     	;# 
   720  0FED                     	;# 
   721  0FEE                     	;# 
   722  0FEF                     	;# 
   723  0000                     	;# 
   724  0001                     	;# 
   725  0002                     	;# 
   726  0003                     	;# 
   727  0004                     	;# 
   728  0005                     	;# 
   729  0006                     	;# 
   730  0007                     	;# 
   731  0008                     	;# 
   732  0009                     	;# 
   733  000A                     	;# 
   734  000B                     	;# 
   735  000C                     	;# 
   736  000D                     	;# 
   737  0011                     	;# 
   738  0012                     	;# 
   739  0013                     	;# 
   740  0014                     	;# 
   741  0015                     	;# 
   742  0016                     	;# 
   743  0016                     	;# 
   744  0017                     	;# 
   745  0018                     	;# 
   746  0019                     	;# 
   747  001A                     	;# 
   748  001B                     	;# 
   749  001C                     	;# 
   750  001E                     	;# 
   751  001F                     	;# 
   752  008C                     	;# 
   753  008D                     	;# 
   754  0091                     	;# 
   755  0092                     	;# 
   756  0093                     	;# 
   757  0094                     	;# 
   758  0095                     	;# 
   759  0096                     	;# 
   760  0097                     	;# 
   761  0098                     	;# 
   762  0099                     	;# 
   763  009A                     	;# 
   764  009B                     	;# 
   765  009B                     	;# 
   766  009C                     	;# 
   767  009D                     	;# 
   768  009E                     	;# 
   769  010C                     	;# 
   770  010D                     	;# 
   771  0111                     	;# 
   772  0112                     	;# 
   773  0113                     	;# 
   774  0114                     	;# 
   775  0115                     	;# 
   776  0116                     	;# 
   777  0117                     	;# 
   778  0118                     	;# 
   779  0119                     	;# 
   780  011A                     	;# 
   781  011B                     	;# 
   782  011D                     	;# 
   783  011E                     	;# 
   784  018C                     	;# 
   785  018D                     	;# 
   786  0191                     	;# 
   787  0191                     	;# 
   788  0192                     	;# 
   789  0193                     	;# 
   790  0193                     	;# 
   791  0193                     	;# 
   792  0194                     	;# 
   793  0195                     	;# 
   794  0196                     	;# 
   795  0199                     	;# 
   796  019A                     	;# 
   797  019B                     	;# 
   798  019B                     	;# 
   799  019B                     	;# 
   800  019B                     	;# 
   801  019C                     	;# 
   802  019C                     	;# 
   803  019D                     	;# 
   804  019E                     	;# 
   805  019F                     	;# 
   806  020C                     	;# 
   807  020D                     	;# 
   808  0211                     	;# 
   809  0211                     	;# 
   810  0212                     	;# 
   811  0212                     	;# 
   812  0213                     	;# 
   813  0213                     	;# 
   814  0214                     	;# 
   815  0214                     	;# 
   816  0215                     	;# 
   817  0215                     	;# 
   818  0215                     	;# 
   819  0216                     	;# 
   820  0216                     	;# 
   821  0217                     	;# 
   822  0217                     	;# 
   823  0219                     	;# 
   824  021A                     	;# 
   825  021B                     	;# 
   826  021C                     	;# 
   827  021D                     	;# 
   828  021E                     	;# 
   829  021F                     	;# 
   830  0291                     	;# 
   831  0291                     	;# 
   832  0292                     	;# 
   833  0293                     	;# 
   834  0294                     	;# 
   835  0295                     	;# 
   836  0295                     	;# 
   837  0296                     	;# 
   838  0298                     	;# 
   839  0298                     	;# 
   840  0299                     	;# 
   841  029A                     	;# 
   842  029B                     	;# 
   843  029C                     	;# 
   844  029C                     	;# 
   845  029D                     	;# 
   846  029E                     	;# 
   847  029E                     	;# 
   848  0311                     	;# 
   849  0311                     	;# 
   850  0312                     	;# 
   851  0313                     	;# 
   852  0318                     	;# 
   853  0318                     	;# 
   854  0319                     	;# 
   855  031A                     	;# 
   856  0394                     	;# 
   857  0395                     	;# 
   858  0396                     	;# 
   859  039A                     	;# 
   860  039C                     	;# 
   861  039D                     	;# 
   862  039E                     	;# 
   863  039F                     	;# 
   864  0415                     	;# 
   865  0416                     	;# 
   866  0417                     	;# 
   867  041C                     	;# 
   868  041D                     	;# 
   869  041E                     	;# 
   870  0FE4                     	;# 
   871  0FE5                     	;# 
   872  0FE6                     	;# 
   873  0FE7                     	;# 
   874  0FE8                     	;# 
   875  0FE9                     	;# 
   876  0FEA                     	;# 
   877  0FEB                     	;# 
   878  0FED                     	;# 
   879  0FEE                     	;# 
   880  0FEF                     	;# 
   881  0000                     	;# 
   882  0001                     	;# 
   883  0002                     	;# 
   884  0003                     	;# 
   885  0004                     	;# 
   886  0005                     	;# 
   887  0006                     	;# 
   888  0007                     	;# 
   889  0008                     	;# 
   890  0009                     	;# 
   891  000A                     	;# 
   892  000B                     	;# 
   893  000C                     	;# 
   894  000D                     	;# 
   895  0011                     	;# 
   896  0012                     	;# 
   897  0013                     	;# 
   898  0014                     	;# 
   899  0015                     	;# 
   900  0016                     	;# 
   901  0016                     	;# 
   902  0017                     	;# 
   903  0018                     	;# 
   904  0019                     	;# 
   905  001A                     	;# 
   906  001B                     	;# 
   907  001C                     	;# 
   908  001E                     	;# 
   909  001F                     	;# 
   910  008C                     	;# 
   911  008D                     	;# 
   912  0091                     	;# 
   913  0092                     	;# 
   914  0093                     	;# 
   915  0094                     	;# 
   916  0095                     	;# 
   917  0096                     	;# 
   918  0097                     	;# 
   919  0098                     	;# 
   920  0099                     	;# 
   921  009A                     	;# 
   922  009B                     	;# 
   923  009B                     	;# 
   924  009C                     	;# 
   925  009D                     	;# 
   926  009E                     	;# 
   927  010C                     	;# 
   928  010D                     	;# 
   929  0111                     	;# 
   930  0112                     	;# 
   931  0113                     	;# 
   932  0114                     	;# 
   933  0115                     	;# 
   934  0116                     	;# 
   935  0117                     	;# 
   936  0118                     	;# 
   937  0119                     	;# 
   938  011A                     	;# 
   939  011B                     	;# 
   940  011D                     	;# 
   941  011E                     	;# 
   942  018C                     	;# 
   943  018D                     	;# 
   944  0191                     	;# 
   945  0191                     	;# 
   946  0192                     	;# 
   947  0193                     	;# 
   948  0193                     	;# 
   949  0193                     	;# 
   950  0194                     	;# 
   951  0195                     	;# 
   952  0196                     	;# 
   953  0199                     	;# 
   954  019A                     	;# 
   955  019B                     	;# 
   956  019B                     	;# 
   957  019B                     	;# 
   958  019B                     	;# 
   959  019C                     	;# 
   960  019C                     	;# 
   961  019D                     	;# 
   962  019E                     	;# 
   963  019F                     	;# 
   964  020C                     	;# 
   965  020D                     	;# 
   966  0211                     	;# 
   967  0211                     	;# 
   968  0212                     	;# 
   969  0212                     	;# 
   970  0213                     	;# 
   971  0213                     	;# 
   972  0214                     	;# 
   973  0214                     	;# 
   974  0215                     	;# 
   975  0215                     	;# 
   976  0215                     	;# 
   977  0216                     	;# 
   978  0216                     	;# 
   979  0217                     	;# 
   980  0217                     	;# 
   981  0219                     	;# 
   982  021A                     	;# 
   983  021B                     	;# 
   984  021C                     	;# 
   985  021D                     	;# 
   986  021E                     	;# 
   987  021F                     	;# 
   988  0291                     	;# 
   989  0291                     	;# 
   990  0292                     	;# 
   991  0293                     	;# 
   992  0294                     	;# 
   993  0295                     	;# 
   994  0295                     	;# 
   995  0296                     	;# 
   996  0298                     	;# 
   997  0298                     	;# 
   998  0299                     	;# 
   999  029A                     	;# 
  1000  029B                     	;# 
  1001  029C                     	;# 
  1002  029C                     	;# 
  1003  029D                     	;# 
  1004  029E                     	;# 
  1005  029E                     	;# 
  1006  0311                     	;# 
  1007  0311                     	;# 
  1008  0312                     	;# 
  1009  0313                     	;# 
  1010  0318                     	;# 
  1011  0318                     	;# 
  1012  0319                     	;# 
  1013  031A                     	;# 
  1014  0394                     	;# 
  1015  0395                     	;# 
  1016  0396                     	;# 
  1017  039A                     	;# 
  1018  039C                     	;# 
  1019  039D                     	;# 
  1020  039E                     	;# 
  1021  039F                     	;# 
  1022  0415                     	;# 
  1023  0416                     	;# 
  1024  0417                     	;# 
  1025  041C                     	;# 
  1026  041D                     	;# 
  1027  041E                     	;# 
  1028  0FE4                     	;# 
  1029  0FE5                     	;# 
  1030  0FE6                     	;# 
  1031  0FE7                     	;# 
  1032  0FE8                     	;# 
  1033  0FE9                     	;# 
  1034  0FEA                     	;# 
  1035  0FEB                     	;# 
  1036  0FED                     	;# 
  1037  0FEE                     	;# 
  1038  0FEF                     	;# 
  1039                           
  1040                           	psect	eeprom_data
  1041  0000  0000 0000 00D4 0039 00DE 0001 0036 0037 	db	0,0,212,57,222,1,54,55	;# 
  1042  0008  0034 0033 0033 0032 0047 0047 0046 0046 	db	52,51,51,50,71,71,70,70	;# 
  1043  0010  000E 00D4 0039 006F 0015 0008 000B 001B 	db	14,212,57,111,21,8,11,27	;# 
  1044  0018  000B 00DE 0004 0000 0000 0055 0024 00E8 	db	11,222,4,0,0,85,36,232	;# 
  1045  0020  0059 00BD 0009 0008 002B 00F3 002A 001F 	db	89,189,9,8,43,243,42,31	;# 
  1046  0028  0015 0000 0001 0002 0003 0004 0005 0006 	db	21,0,1,2,3,4,5,6	;# 
  1047  0030  0038 0037 0037 0036 0044 0044 0044 0043 	db	56,55,55,54,68,68,68,67	;# 
  1048  0038  005B 005A 005A 0059 0026 0025 0025 0000 	db	91,90,90,89,38,37,37,0	;# 
  1049  0040  0036 000E 00D4 0039 006F 0015 0008 008D 	db	54,14,212,57,111,21,8,141	;# 
  1050  0048  0032 0047 0047 0046 00C8 0037 0019 0021 	db	50,71,71,70,200,55,25,33	;# 
  1051  0050  0066 0065 0065 0064 0064 0063 0063 0062 	db	102,101,101,100,100,99,99,98	;# 
  1052  0058  0062 0061 0061 0061 0060 0060 005F 005F 	db	98,97,97,97,96,96,95,95	;# 
  1053  0060  005E 005E 005D 005D 005C 005C 005C 005B 	db	94,94,93,93,92,92,92,91	;# 
  1054  0068  005B 005A 005A 0059 0059 0059 0058 0058 	db	91,90,90,89,89,89,88,88	;# 
  1055  0070  0057 0057 0057 0056 0056 0055 0055 0055 	db	87,87,87,86,86,85,85,85	;# 
  1056  0078  0054 0054 0053 0053 0053 0052 0052 0051 	db	84,84,83,83,83,82,82,81	;# 
  1057  0080  0051 0051 0050 0050 0050 004F 004F 004E 	db	81,81,80,80,80,79,79,78	;# 
  1058  0088  004E 004E 004D 004D 004C 004C 004C 004B 	db	78,78,77,77,76,76,76,75	;# 
  1059  0090  004B 004B 004A 004A 0049 0049 0049 0048 	db	75,75,74,74,73,73,73,72	;# 
  1060  0098  0048 0047 0047 0047 0046 0046 0046 0045 	db	72,71,71,71,70,70,70,69	;# 
  1061  00A0  0045 0044 0044 0044 0043 0043 0042 0042 	db	69,68,68,68,67,67,66,66	;# 
  1062  00A8  0042 0041 0041 0040 0040 0040 003F 003F 	db	66,65,65,64,64,64,63,63	;# 
  1063  00B0  003E 003E 003E 003D 003D 003C 003C 003B 	db	62,62,62,61,61,60,60,59	;# 
  1064  00B8  003B 003B 003A 003A 0039 0039 0038 0038 	db	59,59,58,58,57,57,56,56	;# 
  1065  00C0  0038 0037 0037 0036 0036 0035 0035 0034 	db	56,55,55,54,54,53,53,52	;# 
  1066  00C8  0034 0033 0033 0032 0032 0031 0031 0030 	db	52,51,51,50,50,49,49,48	;# 
  1067  00D0  002F 002F 002F 002E 002E 002D 002C 002C 	db	47,47,47,46,46,45,44,44	;# 
  1068  00D8  002B 002B 002A 0029 0029 0028 0027 0027 	db	43,43,42,41,41,40,39,39	;# 
  1069  00E0  0026 0025 0025 0024 0023 0022 0021 0021 	db	38,37,37,36,35,34,33,33	;# 
  1070  00E8  0020 001F 001E 001D 001C 001B 001A 0019 	db	32,31,30,29,28,27,26,25	;# 
  1071  00F0  004B 004B 004A 004A 0049 0049 0049 0048 	db	75,75,74,74,73,73,73,72	;# 
  1072  00F8  0032 0047 0047 0046 00C8 0037 0019 0021 	db	50,71,71,70,200,55,25,33	;# 
  1073  0000                     	;# 
  1074  0001                     	;# 
  1075  0002                     	;# 
  1076  0003                     	;# 
  1077  0004                     	;# 
  1078  0005                     	;# 
  1079  0006                     	;# 
  1080  0007                     	;# 
  1081  0008                     	;# 
  1082  0009                     	;# 
  1083  000A                     	;# 
  1084  000B                     	;# 
  1085  000C                     	;# 
  1086  000D                     	;# 
  1087  0011                     	;# 
  1088  0012                     	;# 
  1089  0013                     	;# 
  1090  0014                     	;# 
  1091  0015                     	;# 
  1092  0016                     	;# 
  1093  0016                     	;# 
  1094  0017                     	;# 
  1095  0018                     	;# 
  1096  0019                     	;# 
  1097  001A                     	;# 
  1098  001B                     	;# 
  1099  001C                     	;# 
  1100  001E                     	;# 
  1101  001F                     	;# 
  1102  008C                     	;# 
  1103  008D                     	;# 
  1104  0091                     	;# 
  1105  0092                     	;# 
  1106  0093                     	;# 
  1107  0094                     	;# 
  1108  0095                     	;# 
  1109  0096                     	;# 
  1110  0097                     	;# 
  1111  0098                     	;# 
  1112  0099                     	;# 
  1113  009A                     	;# 
  1114  009B                     	;# 
  1115  009B                     	;# 
  1116  009C                     	;# 
  1117  009D                     	;# 
  1118  009E                     	;# 
  1119  010C                     	;# 
  1120  010D                     	;# 
  1121  0111                     	;# 
  1122  0112                     	;# 
  1123  0113                     	;# 
  1124  0114                     	;# 
  1125  0115                     	;# 
  1126  0116                     	;# 
  1127  0117                     	;# 
  1128  0118                     	;# 
  1129  0119                     	;# 
  1130  011A                     	;# 
  1131  011B                     	;# 
  1132  011D                     	;# 
  1133  011E                     	;# 
  1134  018C                     	;# 
  1135  018D                     	;# 
  1136  0191                     	;# 
  1137  0191                     	;# 
  1138  0192                     	;# 
  1139  0193                     	;# 
  1140  0193                     	;# 
  1141  0193                     	;# 
  1142  0194                     	;# 
  1143  0195                     	;# 
  1144  0196                     	;# 
  1145  0199                     	;# 
  1146  019A                     	;# 
  1147  019B                     	;# 
  1148  019B                     	;# 
  1149  019B                     	;# 
  1150  019B                     	;# 
  1151  019C                     	;# 
  1152  019C                     	;# 
  1153  019D                     	;# 
  1154  019E                     	;# 
  1155  019F                     	;# 
  1156  020C                     	;# 
  1157  020D                     	;# 
  1158  0211                     	;# 
  1159  0211                     	;# 
  1160  0212                     	;# 
  1161  0212                     	;# 
  1162  0213                     	;# 
  1163  0213                     	;# 
  1164  0214                     	;# 
  1165  0214                     	;# 
  1166  0215                     	;# 
  1167  0215                     	;# 
  1168  0215                     	;# 
  1169  0216                     	;# 
  1170  0216                     	;# 
  1171  0217                     	;# 
  1172  0217                     	;# 
  1173  0219                     	;# 
  1174  021A                     	;# 
  1175  021B                     	;# 
  1176  021C                     	;# 
  1177  021D                     	;# 
  1178  021E                     	;# 
  1179  021F                     	;# 
  1180  0291                     	;# 
  1181  0291                     	;# 
  1182  0292                     	;# 
  1183  0293                     	;# 
  1184  0294                     	;# 
  1185  0295                     	;# 
  1186  0295                     	;# 
  1187  0296                     	;# 
  1188  0298                     	;# 
  1189  0298                     	;# 
  1190  0299                     	;# 
  1191  029A                     	;# 
  1192  029B                     	;# 
  1193  029C                     	;# 
  1194  029C                     	;# 
  1195  029D                     	;# 
  1196  029E                     	;# 
  1197  029E                     	;# 
  1198  0311                     	;# 
  1199  0311                     	;# 
  1200  0312                     	;# 
  1201  0313                     	;# 
  1202  0318                     	;# 
  1203  0318                     	;# 
  1204  0319                     	;# 
  1205  031A                     	;# 
  1206  0394                     	;# 
  1207  0395                     	;# 
  1208  0396                     	;# 
  1209  039A                     	;# 
  1210  039C                     	;# 
  1211  039D                     	;# 
  1212  039E                     	;# 
  1213  039F                     	;# 
  1214  0415                     	;# 
  1215  0416                     	;# 
  1216  0417                     	;# 
  1217  041C                     	;# 
  1218  041D                     	;# 
  1219  041E                     	;# 
  1220  0FE4                     	;# 
  1221  0FE5                     	;# 
  1222  0FE6                     	;# 
  1223  0FE7                     	;# 
  1224  0FE8                     	;# 
  1225  0FE9                     	;# 
  1226  0FEA                     	;# 
  1227  0FEB                     	;# 
  1228  0FED                     	;# 
  1229  0FEE                     	;# 
  1230  0FEF                     	;# 
  1231                           
  1232                           	psect	stringtext1
  1233  07F0                     __pstringtext1:
  1234  07F0                     __CFC22:
  1235  07F0  3441               	retlw	65
  1236  07F1  3454               	retlw	84
  1237  07F2  342B               	retlw	43
  1238  07F3  3454               	retlw	84
  1239  07F4  3443               	retlw	67
  1240  07F5  344F               	retlw	79
  1241  07F6  344E               	retlw	78
  1242  07F7  3446               	retlw	70
  1243  07F8  343D               	retlw	61
  1244  07F9  3439               	retlw	57
  1245  07FA  3430               	retlw	48
  1246  07FB  3436               	retlw	54
  1247  07FC  3437               	retlw	55
  1248  07FD  3430               	retlw	48
  1249  07FE  3430               	retlw	48
  1250  07FF  343A               	retlw	58
  1251  0800  3432               	retlw	50
  1252  0801  3432               	retlw	50
  1253  0802  343A               	retlw	58
  1254  0803  3431               	retlw	49
  1255  0804  3432               	retlw	50
  1256  0805  3435               	retlw	53
  1257  0806  343A               	retlw	58
  1258  0807  3431               	retlw	49
  1259  0808  3432               	retlw	50
  1260  0809  343A               	retlw	58
  1261  080A  3434               	retlw	52
  1262  080B  342F               	retlw	47
  1263  080C  3438               	retlw	56
  1264  080D  343A               	retlw	58
  1265  080E  3431               	retlw	49
  1266  080F  343A               	retlw	58
  1267  0810  3431               	retlw	49
  1268  0811  340D               	retlw	13
  1269  0812  3400               	retlw	0
  1270  0813                     __end_of__CFC22:
  1271                           
  1272                           	psect	stringtext2
  1273  0813                     __pstringtext2:
  1274  0813                     __TXC22PING:
  1275  0813  3441               	retlw	65
  1276  0814  3454               	retlw	84
  1277  0815  342B               	retlw	43
  1278  0816  3454               	retlw	84
  1279  0817  3458               	retlw	88
  1280  0818  344C               	retlw	76
  1281  0819  3452               	retlw	82
  1282  081A  3441               	retlw	65
  1283  081B  343D               	retlw	61
  1284  081C  3439               	retlw	57
  1285  081D  3430               	retlw	48
  1286  081E  3436               	retlw	54
  1287  081F  3437               	retlw	55
  1288  0820  3430               	retlw	48
  1289  0821  3430               	retlw	48
  1290  0822  343A               	retlw	58
  1291  0823  3430               	retlw	48
  1292  0824  343A               	retlw	58
  1293  0825  3450               	retlw	80
  1294  0826  3449               	retlw	73
  1295  0827  344E               	retlw	78
  1296  0828  3447               	retlw	71
  1297  0829  340D               	retlw	13
  1298  082A  3400               	retlw	0
  1299  082B                     __end_of__TXC22PING:
  1300                           
  1301                           	psect	stringtext3
  1302  082B                     __pstringtext3:
  1303  082B                     __RXC22:
  1304  082B  3441               	retlw	65
  1305  082C  3454               	retlw	84
  1306  082D  342B               	retlw	43
  1307  082E  3452               	retlw	82
  1308  082F  3458               	retlw	88
  1309  0830  344C               	retlw	76
  1310  0831  3452               	retlw	82
  1311  0832  3441               	retlw	65
  1312  0833  343D               	retlw	61
  1313  0834  3439               	retlw	57
  1314  0835  3430               	retlw	48
  1315  0836  3436               	retlw	54
  1316  0837  3437               	retlw	55
  1317  0838  3430               	retlw	48
  1318  0839  3430               	retlw	48
  1319  083A  343A               	retlw	58
  1320  083B  3431               	retlw	49
  1321  083C  340D               	retlw	13
  1322  083D  3400               	retlw	0
  1323  083E                     __end_of__RXC22:
  1324                           
  1325                           	psect	stringtext4
  1326  083E                     __pstringtext4:
  1327  083E                     __TXSTART22:
  1328  083E  3441               	retlw	65
  1329  083F  3454               	retlw	84
  1330  0840  342B               	retlw	43
  1331  0841  3454               	retlw	84
  1332  0842  3458               	retlw	88
  1333  0843  344C               	retlw	76
  1334  0844  3452               	retlw	82
  1335  0845  3441               	retlw	65
  1336  0846  343D               	retlw	61
  1337  0847  3439               	retlw	57
  1338  0848  3430               	retlw	48
  1339  0849  3436               	retlw	54
  1340  084A  3437               	retlw	55
  1341  084B  3430               	retlw	48
  1342  084C  3430               	retlw	48
  1343  084D  343A               	retlw	58
  1344  084E  3430               	retlw	48
  1345  084F  343A               	retlw	58
  1346  0850  3400               	retlw	0
  1347  0851                     __end_of__TXSTART22:
  1348                           
  1349                           	psect	stringtext5
  1350  0851                     __pstringtext5:
  1351  0851                     __CFOFF:
  1352  0851  3441               	retlw	65
  1353  0852  3454               	retlw	84
  1354  0853  342B               	retlw	43
  1355  0854  3454               	retlw	84
  1356  0855  344F               	retlw	79
  1357  0856  3446               	retlw	70
  1358  0857  3446               	retlw	70
  1359  0858  340D               	retlw	13
  1360  0859  3400               	retlw	0
  1361  085A                     __end_of__CFOFF:
  1362                           
  1363                           	psect	stringtext6
  1364  085A                     __pstringtext6:
  1365  085A                     __RESET:
  1366  085A  3441               	retlw	65
  1367  085B  3454               	retlw	84
  1368  085C  345A               	retlw	90
  1369  085D  340D               	retlw	13
  1370  085E  3400               	retlw	0
  1371  085F                     __end_of__RESET:
  1372                           
  1373                           	psect	nvBANK4
  1374  0237                     __pnvBANK4:
  1375  0237                     _segsAlive:
  1376  0237                     	ds	2
  1377  000C                     _PORTAbits	set	12
  1378  000D                     _PORTBbits	set	13
  1379  0011                     _PIR1bits	set	17
  1380  000B                     _INTCONbits	set	11
  1381  0097                     _WDTCONbits	set	151
  1382  008D                     _TRISBbits	set	141
  1383  0095                     _OPTION_REGbits	set	149
  1384  008D                     _TRISB	set	141
  1385  008C                     _TRISA	set	140
  1386  0091                     _PIE1bits	set	145
  1387  0097                     _WDTCON	set	151
  1388  0098                     _OSCTUNE	set	152
  1389  0099                     _OSCCON	set	153
  1390  010C                     _LATAbits	set	268
  1391  010D                     _LATBbits	set	269
  1392  011E                     _APFCON1	set	286
  1393  011D                     _APFCON0	set	285
  1394  010D                     _LATB	set	269
  1395  010C                     _LATA	set	268
  1396  0116                     _BORCON	set	278
  1397  0196                     _EECON2	set	406
  1398  0193                     _EEDATL	set	403
  1399  0194                     _EEDATH	set	404
  1400  0195                     _EECON1bits	set	405
  1401  0192                     _EEADRH	set	402
  1402  0191                     _EEADRL	set	401
  1403  018C                     _ANSELA	set	396
  1404  018D                     _ANSELB	set	397
  1405  0199                     _RCREG	set	409
  1406  019D                     _RCSTAbits	set	413
  1407  019A                     _TXREG	set	410
  1408  019E                     _TXSTAbits	set	414
  1409  019C                     _SPBRGH	set	412
  1410  019B                     _SPBRGL	set	411
  1411  019E                     _TXSTA	set	414
  1412  019D                     _RCSTA	set	413
  1413  019F                     _BAUDCON	set	415
  1414  020C                     _WPUA	set	524
  1415  020D                     _WPUB	set	525
  1416                           
  1417                           	psect	cinit
  1418  002E                     start_initialization:	
  1419                           ; #config settings
  1420                           
  1421  002E                     __initialization:
  1422                           
  1423                           ; Clear objects allocated to COMMON
  1424  002E  01F9               	clrf	__pbssCOMMON& (0+127)
  1425                           
  1426                           ; Clear objects allocated to BANK0
  1427  002F  3020               	movlw	low __pbssBANK0
  1428  0030  0084               	movwf	4
  1429  0031  3000               	movlw	high __pbssBANK0
  1430  0032  0085               	movwf	5
  1431  0033  3050               	movlw	80
  1432  0034  318D  259D  3180   	fcall	clear_ram0
  1433                           
  1434                           ; Clear objects allocated to BANK1
  1435  0037  30A0               	movlw	low __pbssBANK1
  1436  0038  0084               	movwf	4
  1437  0039  3000               	movlw	high __pbssBANK1
  1438  003A  0085               	movwf	5
  1439  003B  3050               	movlw	80
  1440  003C  318D  259D  3180   	fcall	clear_ram0
  1441                           
  1442                           ; Clear objects allocated to BANK2
  1443  003F  3020               	movlw	low __pbssBANK2
  1444  0040  0084               	movwf	4
  1445  0041  3001               	movlw	high __pbssBANK2
  1446  0042  0085               	movwf	5
  1447  0043  3050               	movlw	80
  1448  0044  318D  259D  3180   	fcall	clear_ram0
  1449                           
  1450                           ; Clear objects allocated to BANK3
  1451  0047  30A0               	movlw	low __pbssBANK3
  1452  0048  0084               	movwf	4
  1453  0049  3001               	movlw	high __pbssBANK3
  1454  004A  0085               	movwf	5
  1455  004B  3050               	movlw	80
  1456  004C  318D  259D  3180   	fcall	clear_ram0
  1457                           
  1458                           ; Clear objects allocated to BANK4
  1459  004F  3020               	movlw	low __pbssBANK4
  1460  0050  0084               	movwf	4
  1461  0051  3002               	movlw	high __pbssBANK4
  1462  0052  0085               	movwf	5
  1463  0053  3013               	movlw	19
  1464  0054  318D  259D  3180   	fcall	clear_ram0
  1465  0057                     end_of_initialization:	
  1466                           ;End of C runtime variable initialization code
  1467                           
  1468  0057                     __end_of__initialization:
  1469  0057  107E               	bcf	int$flags,0	;clear compiler interrupt flag (level 1)
  1470  0058  0020               	movlb	0
  1471  0059  3180  285B         	ljmp	_main	;jump to C main() function
  1472                           
  1473                           	psect	bssCOMMON
  1474  0079                     __pbssCOMMON:
  1475  0079                     _indice:
  1476  0079                     	ds	1
  1477                           
  1478                           	psect	bssBANK0
  1479  0020                     __pbssBANK0:
  1480  0020                     _eusartRxBuffer:
  1481  0020                     	ds	64
  1482  0060                     _flags:
  1483  0060                     	ds	6
  1484  0066                     _TotalSerial:
  1485  0066                     	ds	2
  1486  0068                     _EUSART_RxDefaultInterruptHandler:
  1487  0068                     	ds	2
  1488  006A                     _EUSART_TxDefaultInterruptHandler:
  1489  006A                     	ds	2
  1490  006C                     _fParm:
  1491  006C                     	ds	1
  1492  006D                     _fBusy:
  1493  006D                     	ds	1
  1494  006E                     _fATerr:
  1495  006E                     	ds	1
  1496  006F                     _fOK:
  1497  006F                     	ds	1
  1498                           
  1499                           	psect	bssBANK1
  1500  00A0                     __pbssBANK1:
  1501  00A0                     _eusartTxBuffer:
  1502  00A0                     	ds	32
  1503  00C0                     _pacoteTRX:
  1504  00C0                     	ds	14
  1505  00CE                     _DadosSensor:
  1506  00CE                     	ds	8
  1507  00D6                     _ID:
  1508  00D6                     	ds	4
  1509  00DA                     _EUSART_ErrorHandler:
  1510  00DA                     	ds	2
  1511  00DC                     _EUSART_OverrunErrorHandler:
  1512  00DC                     	ds	2
  1513  00DE                     _EUSART_FramingErrorHandler:
  1514  00DE                     	ds	2
  1515  00E0                     _fLigado:
  1516  00E0                     	ds	1
  1517  00E1                     _fErroID:
  1518  00E1                     	ds	1
  1519  00E2                     _fTimeOut:
  1520  00E2                     	ds	1
  1521  00E3                     _fDetec:
  1522  00E3                     	ds	1
  1523  00E4                     _fAT:
  1524  00E4                     	ds	1
  1525  00E5                     _eusartRxLastError:
  1526  00E5                     	ds	1
  1527  00E6                     _eusartRxCount:
  1528  00E6                     	ds	1
  1529  00E7                     _eusartRxTail:
  1530  00E7                     	ds	1
  1531  00E8                     _eusartRxHead:
  1532  00E8                     	ds	1
  1533  00E9                     _eusartTxBufferRemaining:
  1534  00E9                     	ds	1
  1535  00EA                     _eusartTxTail:
  1536  00EA                     	ds	1
  1537  00EB                     _eusartTxHead:
  1538  00EB                     	ds	1
  1539  00EC                     _fProgID:
  1540  00EC                     	ds	1
  1541  00ED                     _fRetLora:
  1542  00ED                     	ds	1
  1543  00EE                     _UltimoDadoRecebido:
  1544  00EE                     	ds	1
  1545  00EF                     _fTxOk:
  1546  00EF                     	ds	1
  1547                           
  1548                           	psect	bssBANK2
  1549  0120                     __pbssBANK2:
  1550  0120                     _DadosLora:
  1551  0120                     	ds	64
  1552  0160                     _passagem:
  1553  0160                     	ds	2
  1554  0162                     _cicloLED:
  1555  0162                     	ds	2
  1556  0164                     _tMs:
  1557  0164                     	ds	2
  1558  0166                     _tempoEspera:
  1559  0166                     	ds	2
  1560  0168                     _ENDERECO:
  1561  0168                     	ds	2
  1562  016A                     _OFFSET:
  1563  016A                     	ds	2
  1564  016C                     _fRetSensor:
  1565  016C                     	ds	1
  1566  016D                     _indiceSensor:
  1567  016D                     	ds	1
  1568  016E                     _fComandoSirene:
  1569  016E                     	ds	1
  1570  016F                     _fRTX:
  1571  016F                     	ds	1
  1572                           
  1573                           	psect	bssBANK3
  1574  01A0                     __pbssBANK3:
  1575  01A0                     _eusartRxStatusBuffer:
  1576  01A0                     	ds	64
  1577  01E0                     _offset:
  1578  01E0                     	ds	2
  1579  01E2                     _endereco:
  1580  01E2                     	ds	2
  1581  01E4                     _enderecoRecebido:
  1582  01E4                     	ds	2
  1583  01E6                     _temp16:
  1584  01E6                     	ds	2
  1585  01E8                     _tempoRTX:
  1586  01E8                     	ds	2
  1587  01EA                     _endereco_U:
  1588  01EA                     	ds	1
  1589  01EB                     _endereco_C:
  1590  01EB                     	ds	1
  1591  01EC                     _endereco_M:
  1592  01EC                     	ds	1
  1593  01ED                     _TIPO:
  1594  01ED                     	ds	1
  1595  01EE                     _SM_STATUSflags:
  1596  01EE                     	ds	1
  1597  01EF                     _endereco_D:
  1598  01EF                     	ds	1
  1599                           
  1600                           	psect	bssBANK4
  1601  0220                     __pbssBANK4:
  1602  0220                     _U_EnderecoRecebido:
  1603  0220                     	ds	1
  1604  0221                     _M_EnderecoRecebido:
  1605  0221                     	ds	1
  1606  0222                     _rett:
  1607  0222                     	ds	1
  1608  0223                     _temp8:
  1609  0223                     	ds	1
  1610  0224                     _BatL:
  1611  0224                     	ds	1
  1612  0225                     _BatH:
  1613  0225                     	ds	1
  1614  0226                     _dips:
  1615  0226                     	ds	1
  1616  0227                     _canal:
  1617  0227                     	ds	1
  1618  0228                     _loop:
  1619  0228                     	ds	1
  1620  0229                     _LL:
  1621  0229                     	ds	1
  1622  022A                     _HH:
  1623  022A                     	ds	1
  1624  022B                     _fEspera:
  1625  022B                     	ds	1
  1626  022C                     _fRepete:
  1627  022C                     	ds	1
  1628  022D                     _AcEVTBatLOW:
  1629  022D                     	ds	1
  1630  022E                     _AcEVTBatOK:
  1631  022E                     	ds	1
  1632  022F                     _AcAliveBatLOW:
  1633  022F                     	ds	1
  1634  0230                     _AcAliveBatOK:
  1635  0230                     	ds	1
  1636  0231                     _D_EnderecoRecebido:
  1637  0231                     	ds	1
  1638  0232                     _C_EnderecoRecebido:
  1639  0232                     	ds	1
  1640                           
  1641                           	psect	clrtext
  1642  0D9D                     clear_ram0:	
  1643                           ;	Called with FSR0 containing the base address, and
  1644                           ;	WREG with the size to clear
  1645                           
  1646  0D9D  0064               	clrwdt	;clear the watchdog before getting into this loop
  1647  0D9E                     clrloop0:
  1648  0D9E  0180               	clrf	0	;clear RAM location pointed to by FSR
  1649  0D9F  3101               	addfsr 0,1
  1650  0DA0  0B89               	decfsz	9,f	;Have we reached the end of clearing yet?
  1651  0DA1  2D9E               	goto	clrloop0	;have we reached the end yet?
  1652  0DA2  3400               	retlw	0	;all done for this memory range, return
  1653                           
  1654                           	psect	cstackBANK4
  1655  0233                     __pcstackBANK4:
  1656  0233                     ??_main:
  1657                           
  1658                           ; 1 bytes @ 0x0
  1659  0233                     	ds	4
  1660                           
  1661                           	psect	cstackCOMMON
  1662  0070                     __pcstackCOMMON:
  1663  0070                     ?_EUSART_Receive_ISR:
  1664  0070                     ?_EUSART_Transmit_ISR:	
  1665                           ; 1 bytes @ 0x0
  1666                           
  1667  0070                     ??_EUSART_Transmit_ISR:	
  1668                           ; 1 bytes @ 0x0
  1669                           
  1670  0070                     ?_EUSART_DefaultFramingErrorHandler:	
  1671                           ; 1 bytes @ 0x0
  1672                           
  1673  0070                     ??_EUSART_DefaultFramingErrorHandler:	
  1674                           ; 1 bytes @ 0x0
  1675                           
  1676  0070                     ?_EUSART_DefaultOverrunErrorHandler:	
  1677                           ; 1 bytes @ 0x0
  1678                           
  1679  0070                     ??_EUSART_DefaultOverrunErrorHandler:	
  1680                           ; 1 bytes @ 0x0
  1681                           
  1682  0070                     ?_EUSART_DefaultErrorHandler:	
  1683                           ; 1 bytes @ 0x0
  1684                           
  1685  0070                     ?_EUSART_RxDataHandler:	
  1686                           ; 1 bytes @ 0x0
  1687                           
  1688  0070                     ??_EUSART_RxDataHandler:	
  1689                           ; 1 bytes @ 0x0
  1690                           
  1691  0070                     ?_OSCILLATOR_Initialize:	
  1692                           ; 1 bytes @ 0x0
  1693                           
  1694  0070                     ?_WDT_Initialize:	
  1695                           ; 1 bytes @ 0x0
  1696                           
  1697  0070                     ?_INTERRUPT_InterruptManager:	
  1698                           ; 1 bytes @ 0x0
  1699                           
  1700  0070                     ?_EUSART_Reset:	
  1701                           ; 1 bytes @ 0x0
  1702                           
  1703  0070                     ?_EUSART_Initialize:	
  1704                           ; 1 bytes @ 0x0
  1705                           
  1706  0070                     ?_EUSART_Write:	
  1707                           ; 1 bytes @ 0x0
  1708                           
  1709  0070                     ?_PIN_MANAGER_Initialize:	
  1710                           ; 1 bytes @ 0x0
  1711                           
  1712  0070                     ?_ModuloOn:	
  1713                           ; 1 bytes @ 0x0
  1714                           
  1715  0070                     ?_ModuloOff:	
  1716                           ; 1 bytes @ 0x0
  1717                           
  1718  0070                     ?_ErrCode:	
  1719                           ; 1 bytes @ 0x0
  1720                           
  1721  0070                     ?_Espera_TxOk:	
  1722                           ; 1 bytes @ 0x0
  1723                           
  1724  0070                     ?_SM_RESET:	
  1725                           ; 1 bytes @ 0x0
  1726                           
  1727  0070                     ?_SM_CONFIGRADIO:	
  1728                           ; 1 bytes @ 0x0
  1729                           
  1730  0070                     ?_SM_MODORX:	
  1731                           ; 1 bytes @ 0x0
  1732                           
  1733  0070                     ?_SM_CFOFF:	
  1734                           ; 1 bytes @ 0x0
  1735                           
  1736  0070                     ?_SM_START:	
  1737                           ; 1 bytes @ 0x0
  1738                           
  1739  0070                     ?_TX_Lora:	
  1740                           ; 1 bytes @ 0x0
  1741                           
  1742  0070                     ?_main:	
  1743                           ; 1 bytes @ 0x0
  1744                           
  1745  0070                     SM_CONFIGRADIO@ch:	
  1746                           ; 1 bytes @ 0x0
  1747                           
  1748  0070                     SM_MODORX@ch:	
  1749                           ; 1 bytes @ 0x0
  1750                           
  1751                           
  1752                           ; 1 bytes @ 0x0
  1753  0070                     	ds	1
  1754  0071                     ?_EUSART_SetRxInterruptHandler:
  1755  0071                     ??_EUSART_Receive_ISR:	
  1756                           ; 1 bytes @ 0x1
  1757                           
  1758  0071                     ?_EUSART_SetTxInterruptHandler:	
  1759                           ; 1 bytes @ 0x1
  1760                           
  1761  0071                     ?_EUSART_SetFramingErrorHandler:	
  1762                           ; 1 bytes @ 0x1
  1763                           
  1764  0071                     ?_EUSART_SetOverrunErrorHandler:	
  1765                           ; 1 bytes @ 0x1
  1766                           
  1767  0071                     ?_EUSART_SetErrorHandler:	
  1768                           ; 1 bytes @ 0x1
  1769                           
  1770  0071                     ??_EUSART_DefaultErrorHandler:	
  1771                           ; 1 bytes @ 0x1
  1772                           
  1773  0071                     ??_OSCILLATOR_Initialize:	
  1774                           ; 1 bytes @ 0x1
  1775                           
  1776  0071                     ??_WDT_Initialize:	
  1777                           ; 1 bytes @ 0x1
  1778                           
  1779  0071                     ??_INTERRUPT_InterruptManager:	
  1780                           ; 1 bytes @ 0x1
  1781                           
  1782  0071                     ??_EUSART_Reset:	
  1783                           ; 1 bytes @ 0x1
  1784                           
  1785  0071                     ??_EUSART_Write:	
  1786                           ; 1 bytes @ 0x1
  1787                           
  1788  0071                     ??_PIN_MANAGER_Initialize:	
  1789                           ; 1 bytes @ 0x1
  1790                           
  1791  0071                     ??_ModuloOn:	
  1792                           ; 1 bytes @ 0x1
  1793                           
  1794  0071                     ??_ModuloOff:	
  1795                           ; 1 bytes @ 0x1
  1796                           
  1797  0071                     ??_Espera_TxOk:	
  1798                           ; 1 bytes @ 0x1
  1799                           
  1800  0071                     ?___wmul:	
  1801                           ; 1 bytes @ 0x1
  1802                           
  1803  0071                     ?___lwdiv:	
  1804                           ; 2 bytes @ 0x1
  1805                           
  1806  0071                     ?___lwmod:	
  1807                           ; 2 bytes @ 0x1
  1808                           
  1809  0071                     EUSART_SetFramingErrorHandler@interruptHandler:	
  1810                           ; 2 bytes @ 0x1
  1811                           
  1812  0071                     EUSART_SetOverrunErrorHandler@interruptHandler:	
  1813                           ; 2 bytes @ 0x1
  1814                           
  1815  0071                     EUSART_SetErrorHandler@interruptHandler:	
  1816                           ; 2 bytes @ 0x1
  1817                           
  1818  0071                     EUSART_SetTxInterruptHandler@interruptHandler:	
  1819                           ; 2 bytes @ 0x1
  1820                           
  1821  0071                     EUSART_SetRxInterruptHandler@interruptHandler:	
  1822                           ; 2 bytes @ 0x1
  1823                           
  1824  0071                     ___wmul@multiplier:	
  1825                           ; 2 bytes @ 0x1
  1826                           
  1827  0071                     ___lwdiv@divisor:	
  1828                           ; 2 bytes @ 0x1
  1829                           
  1830  0071                     ___lwmod@divisor:	
  1831                           ; 2 bytes @ 0x1
  1832                           
  1833                           
  1834                           ; 2 bytes @ 0x1
  1835  0071                     	ds	1
  1836  0072                     ??_ErrCode:
  1837  0072                     EUSART_Write@txData:	
  1838                           ; 1 bytes @ 0x2
  1839                           
  1840                           
  1841                           ; 1 bytes @ 0x2
  1842  0072                     	ds	1
  1843  0073                     ??_EUSART_SetRxInterruptHandler:
  1844  0073                     ??_EUSART_SetTxInterruptHandler:	
  1845                           ; 1 bytes @ 0x3
  1846                           
  1847  0073                     ??_EUSART_SetFramingErrorHandler:	
  1848                           ; 1 bytes @ 0x3
  1849                           
  1850  0073                     ??_EUSART_SetOverrunErrorHandler:	
  1851                           ; 1 bytes @ 0x3
  1852                           
  1853  0073                     ??_EUSART_SetErrorHandler:	
  1854                           ; 1 bytes @ 0x3
  1855                           
  1856  0073                     ??_EUSART_Initialize:	
  1857                           ; 1 bytes @ 0x3
  1858                           
  1859  0073                     ??_SM_RESET:	
  1860                           ; 1 bytes @ 0x3
  1861                           
  1862  0073                     ??_SM_CONFIGRADIO:	
  1863                           ; 1 bytes @ 0x3
  1864                           
  1865  0073                     ??_SM_MODORX:	
  1866                           ; 1 bytes @ 0x3
  1867                           
  1868  0073                     ??_SM_CFOFF:	
  1869                           ; 1 bytes @ 0x3
  1870                           
  1871  0073                     ___wmul@multiplicand:	
  1872                           ; 1 bytes @ 0x3
  1873                           
  1874  0073                     ___lwdiv@dividend:	
  1875                           ; 2 bytes @ 0x3
  1876                           
  1877  0073                     ___lwmod@dividend:	
  1878                           ; 2 bytes @ 0x3
  1879                           
  1880                           
  1881                           ; 2 bytes @ 0x3
  1882  0073                     	ds	1
  1883  0074                     ErrCode@code:
  1884                           
  1885                           ; 1 bytes @ 0x4
  1886  0074                     	ds	1
  1887  0075                     ??_SM_START:
  1888  0075                     ??_TX_Lora:	
  1889                           ; 1 bytes @ 0x5
  1890                           
  1891  0075                     ??___wmul:	
  1892                           ; 1 bytes @ 0x5
  1893                           
  1894  0075                     ??___lwdiv:	
  1895                           ; 1 bytes @ 0x5
  1896                           
  1897  0075                     ??___lwmod:	
  1898                           ; 1 bytes @ 0x5
  1899                           
  1900  0075                     ___wmul@product:	
  1901                           ; 1 bytes @ 0x5
  1902                           
  1903                           
  1904                           ; 2 bytes @ 0x5
  1905  0075                     	ds	1
  1906  0076                     ___lwmod@counter:
  1907  0076                     ___lwdiv@quotient:	
  1908                           ; 1 bytes @ 0x6
  1909                           
  1910                           
  1911                           ; 2 bytes @ 0x6
  1912  0076                     	ds	2
  1913  0078                     ___lwdiv@counter:
  1914                           
  1915                           ; 1 bytes @ 0x8
  1916  0078                     	ds	1
  1917                           
  1918                           	psect	maintext
  1919  005B                     __pmaintext:	
  1920 ;;
  1921 ;;Main: autosize = 0, tempsize = 4, incstack = 0, save=0
  1922 ;;
  1923 ;; *************** function _main *****************
  1924 ;; Defined at:
  1925 ;;		line 257 in file "main.c"
  1926 ;; Parameters:    Size  Location     Type
  1927 ;;		None
  1928 ;; Auto vars:     Size  Location     Type
  1929 ;;		None
  1930 ;; Return value:  Size  Location     Type
  1931 ;;                  1    wreg      void 
  1932 ;; Registers used:
  1933 ;;		wreg, fsr0l, fsr0h, fsr1l, fsr1h, status,2, status,0, pclath, cstack
  1934 ;; Tracked objects:
  1935 ;;		On entry : B1F/0
  1936 ;;		On exit  : 0/0
  1937 ;;		Unchanged: 0/0
  1938 ;; Data sizes:     COMMON   BANK0   BANK1   BANK2   BANK3   BANK4
  1939 ;;      Params:         0       0       0       0       0       0
  1940 ;;      Locals:         0       0       0       0       0       0
  1941 ;;      Temps:          0       0       0       0       0       4
  1942 ;;      Totals:         0       0       0       0       0       4
  1943 ;;Total ram usage:        4 bytes
  1944 ;; Hardware stack levels required when called: 7
  1945 ;; This function calls:
  1946 ;;		_EUSART_Initialize
  1947 ;;		_EUSART_Reset
  1948 ;;		_EUSART_Write
  1949 ;;		_ErrCode
  1950 ;;		_ModuloOff
  1951 ;;		_OSCILLATOR_Initialize
  1952 ;;		_PIN_MANAGER_Initialize
  1953 ;;		_SM_CFOFF
  1954 ;;		_SM_CONFIGRADIO
  1955 ;;		_SM_MODORX
  1956 ;;		_SM_START
  1957 ;;		_TX_Lora
  1958 ;;		_WDT_Initialize
  1959 ;;		___lwdiv
  1960 ;;		___lwmod
  1961 ;;		___wmul
  1962 ;; This function is called by:
  1963 ;;		Startup code after reset
  1964 ;; This function uses a non-reentrant model
  1965 ;;
  1966                           
  1967                           
  1968                           ;psect for function _main
  1969  005B                     _main:
  1970  005B                     l3244:	
  1971                           ;incstack = 0
  1972                           ; Regs used in _main: [wreg-fsr1h+status,2+status,0+pclath+cstack]
  1973                           
  1974                           
  1975                           ;main.c: 259:     __nop();
  1976  005B  0000               	nop
  1977                           
  1978                           ;main.c: 260:     __nop();
  1979  005C  0000               	nop
  1980  005D                     l3246:
  1981                           
  1982                           ;main.c: 263:     PIN_MANAGER_Initialize();
  1983  005D  318D  25BD  3180   	fcall	_PIN_MANAGER_Initialize
  1984                           
  1985                           ;main.c: 264:     OSCILLATOR_Initialize();
  1986  0060  318D  25A3  3180   	fcall	_OSCILLATOR_Initialize
  1987                           
  1988                           ;main.c: 265:     WDT_Initialize();
  1989  0063  318D  257B  3180   	fcall	_WDT_Initialize
  1990  0066                     l3248:
  1991                           
  1992                           ;main.c: 266:     WDTCONbits.SWDTEN=0;
  1993  0066  0021               	movlb	1	; select bank1
  1994  0067  1017               	bcf	23,0	;volatile
  1995  0068                     l3250:
  1996  0068  0022               	movlb	2	; select bank2
  1997  0069  100C               	bcf	12,0	;volatile
  1998  006A                     l579:
  1999                           
  2000                           ;main.c: 268:     ModuloOff();
  2001  006A  318D  25AA  3180   	fcall	_ModuloOff
  2002  006D                     l3252:
  2003  006D  0022               	movlb	2	; select bank2
  2004  006E  170C               	bsf	12,6	;volatile
  2005  006F                     l3254:
  2006  006F  178C               	bsf	12,7	;volatile
  2007  0070                     l3256:
  2008  0070  300B               	movlw	11
  2009  0071  0024               	movlb	4	; select bank4
  2010  0072  00B4               	movwf	(??_main^(0+512)+1)
  2011  0073  3026               	movlw	38
  2012  0074  00B3               	movwf	??_main^(0+512)
  2013  0075  305D               	movlw	93
  2014  0076                     u2347:
  2015  0076  0B89               	decfsz	9,f
  2016  0077  2876               	goto	u2347
  2017  0078  0BB3               	decfsz	??_main^(0+512),f
  2018  0079  2876               	goto	u2347
  2019  007A  0BB4               	decfsz	(??_main^(0+512)+1),f
  2020  007B  2876               	goto	u2347
  2021  007C  3200               	nop2
  2022  007D                     l3258:
  2023  007D  0022               	movlb	2	; select bank2
  2024  007E  130C               	bcf	12,6	;volatile
  2025  007F                     l3260:
  2026  007F  138C               	bcf	12,7	;volatile
  2027  0080                     l3262:
  2028  0080  300B               	movlw	11
  2029  0081  0024               	movlb	4	; select bank4
  2030  0082  00B4               	movwf	(??_main^(0+512)+1)
  2031  0083  3026               	movlw	38
  2032  0084  00B3               	movwf	??_main^(0+512)
  2033  0085  305D               	movlw	93
  2034  0086                     u2357:
  2035  0086  0B89               	decfsz	9,f
  2036  0087  2886               	goto	u2357
  2037  0088  0BB3               	decfsz	??_main^(0+512),f
  2038  0089  2886               	goto	u2357
  2039  008A  0BB4               	decfsz	(??_main^(0+512)+1),f
  2040  008B  2886               	goto	u2357
  2041  008C  3200               	nop2
  2042  008D                     l3264:
  2043  008D  0022               	movlb	2	; select bank2
  2044  008E  170C               	bsf	12,6	;volatile
  2045  008F                     l3266:
  2046  008F  178C               	bsf	12,7	;volatile
  2047  0090                     l3268:
  2048  0090  300B               	movlw	11
  2049  0091  0024               	movlb	4	; select bank4
  2050  0092  00B4               	movwf	(??_main^(0+512)+1)
  2051  0093  3026               	movlw	38
  2052  0094  00B3               	movwf	??_main^(0+512)
  2053  0095  305D               	movlw	93
  2054  0096                     u2367:
  2055  0096  0B89               	decfsz	9,f
  2056  0097  2896               	goto	u2367
  2057  0098  0BB3               	decfsz	??_main^(0+512),f
  2058  0099  2896               	goto	u2367
  2059  009A  0BB4               	decfsz	(??_main^(0+512)+1),f
  2060  009B  2896               	goto	u2367
  2061  009C  3200               	nop2
  2062  009D                     l3270:
  2063  009D  0022               	movlb	2	; select bank2
  2064  009E  130C               	bcf	12,6	;volatile
  2065  009F                     l3272:
  2066  009F  138C               	bcf	12,7	;volatile
  2067  00A0                     l3274:
  2068  00A0  300B               	movlw	11
  2069  00A1  0024               	movlb	4	; select bank4
  2070  00A2  00B4               	movwf	(??_main^(0+512)+1)
  2071  00A3  3026               	movlw	38
  2072  00A4  00B3               	movwf	??_main^(0+512)
  2073  00A5  305D               	movlw	93
  2074  00A6                     u2377:
  2075  00A6  0B89               	decfsz	9,f
  2076  00A7  28A6               	goto	u2377
  2077  00A8  0BB3               	decfsz	??_main^(0+512),f
  2078  00A9  28A6               	goto	u2377
  2079  00AA  0BB4               	decfsz	(??_main^(0+512)+1),f
  2080  00AB  28A6               	goto	u2377
  2081  00AC  3200               	nop2
  2082  00AD                     l3276:
  2083  00AD  0022               	movlb	2	; select bank2
  2084  00AE  170C               	bsf	12,6	;volatile
  2085  00AF                     l3278:
  2086  00AF  178C               	bsf	12,7	;volatile
  2087  00B0                     l3280:
  2088  00B0  300B               	movlw	11
  2089  00B1  0024               	movlb	4	; select bank4
  2090  00B2  00B4               	movwf	(??_main^(0+512)+1)
  2091  00B3  3026               	movlw	38
  2092  00B4  00B3               	movwf	??_main^(0+512)
  2093  00B5  305D               	movlw	93
  2094  00B6                     u2387:
  2095  00B6  0B89               	decfsz	9,f
  2096  00B7  28B6               	goto	u2387
  2097  00B8  0BB3               	decfsz	??_main^(0+512),f
  2098  00B9  28B6               	goto	u2387
  2099  00BA  0BB4               	decfsz	(??_main^(0+512)+1),f
  2100  00BB  28B6               	goto	u2387
  2101  00BC  3200               	nop2
  2102  00BD                     l3282:
  2103  00BD  0022               	movlb	2	; select bank2
  2104  00BE  130C               	bcf	12,6	;volatile
  2105  00BF                     l3284:
  2106  00BF  138C               	bcf	12,7	;volatile
  2107  00C0                     l3286:
  2108                           
  2109                           ;main.c: 275:     indice=0;
  2110  00C0  01F9               	clrf	_indice	;volatile
  2111  00C1                     l3288:
  2112                           
  2113                           ;main.c: 276:     fRetSensor=250;
  2114  00C1  30FA               	movlw	250
  2115  00C2  0024               	movlb	4	; select bank4
  2116  00C3  00B3               	movwf	??_main^(0+512)
  2117  00C4  0833               	movf	??_main^(0+512),w
  2118  00C5  0022               	movlb	2	; select bank2
  2119  00C6  00EC               	movwf	_fRetSensor^(0+256)	;volatile
  2120  00C7                     l3290:
  2121                           
  2122                           ;main.c: 277:     segsAlive=0;
  2123  00C7  0024               	movlb	4	; select bank4
  2124  00C8  01B7               	clrf	_segsAlive^(0+512)
  2125  00C9  01B8               	clrf	(_segsAlive+1)^(0+512)
  2126                           
  2127                           ;main.c: 279:     EUSART_Initialize();
  2128  00CA  3187  27B1  3180   	fcall	_EUSART_Initialize
  2129  00CD                     l3292:
  2130                           
  2131                           ;main.c: 280:     (INTCONbits.GIE = 1);
  2132  00CD  178B               	bsf	11,7	;volatile
  2133  00CE                     l3294:
  2134                           
  2135                           ;main.c: 281:     (INTCONbits.PEIE = 1);
  2136  00CE  170B               	bsf	11,6	;volatile
  2137  00CF                     l3296:
  2138                           
  2139                           ;main.c: 284:     __nop();
  2140  00CF  0000               	nop
  2141  00D0                     l3298:
  2142                           
  2143                           ;main.c: 285:     rett = SM_START();
  2144  00D0  3187  271C  3180   	fcall	_SM_START
  2145  00D3  0024               	movlb	4	; select bank4
  2146  00D4  00B3               	movwf	??_main^(0+512)
  2147  00D5  0833               	movf	??_main^(0+512),w
  2148  00D6  00A2               	movwf	_rett^(0+512)
  2149  00D7                     l3300:
  2150                           
  2151                           ;main.c: 286:     if (rett != fSM_OK)
  2152  00D7  0322               	decf	_rett^(0+512),w
  2153  00D8  1903               	btfsc	3,2
  2154  00D9  28DB               	goto	u2051
  2155  00DA  28DC               	goto	u2050
  2156  00DB                     u2051:
  2157  00DB  28E0               	goto	l3304
  2158  00DC                     u2050:
  2159  00DC                     l3302:
  2160                           
  2161                           ;main.c: 287:         ErrCode(rett);
  2162  00DC  0822               	movf	_rett^(0+512),w
  2163  00DD  3186  26A1  3180   	fcall	_ErrCode
  2164  00E0                     l3304:
  2165                           
  2166                           ;main.c: 288:     __nop();
  2167  00E0  0000               	nop
  2168  00E1                     l3306:
  2169                           
  2170                           ;main.c: 291:     SM_CFOFF();
  2171  00E1  318E  26C0  3180   	fcall	_SM_CFOFF
  2172  00E4                     l3308:
  2173                           
  2174                           ;main.c: 292:     __nop();
  2175  00E4  0000               	nop
  2176  00E5                     l3310:
  2177                           
  2178                           ;main.c: 293:     SM_CONFIGRADIO(22);
  2179  00E5  3016               	movlw	22
  2180  00E6  318E  26EF  3180   	fcall	_SM_CONFIGRADIO
  2181  00E9                     l3312:
  2182                           
  2183                           ;main.c: 294:     __nop();
  2184  00E9  0000               	nop
  2185  00EA                     l3314:
  2186                           
  2187                           ;main.c: 295:     SM_MODORX(22);
  2188  00EA  3016               	movlw	22
  2189  00EB  318E  2662  3180   	fcall	_SM_MODORX
  2190  00EE                     l3316:
  2191                           
  2192                           ;main.c: 296:     __nop();
  2193  00EE  0000               	nop
  2194  00EF                     l3318:
  2195                           
  2196                           ;main.c: 298:     fLigado=0;
  2197  00EF  0021               	movlb	1	; select bank1
  2198  00F0  01E0               	clrf	_fLigado^(0+128)	;volatile
  2199  00F1                     l3320:
  2200                           
  2201                           ;main.c: 299:     indice=0;
  2202  00F1  01F9               	clrf	_indice	;volatile
  2203  00F2                     l3322:
  2204                           
  2205                           ;main.c: 300:     tempoRTX=0;
  2206  00F2  0023               	movlb	3	; select bank3
  2207  00F3  01E8               	clrf	_tempoRTX^(0+384)
  2208  00F4  01E9               	clrf	(_tempoRTX+1)^(0+384)
  2209  00F5                     l3324:
  2210                           
  2211                           ;main.c: 301:     passagem=0;
  2212  00F5  0022               	movlb	2	; select bank2
  2213  00F6  01E0               	clrf	_passagem^(0+256)
  2214  00F7  01E1               	clrf	(_passagem+1)^(0+256)
  2215  00F8                     l3326:
  2216                           
  2217                           ;main.c: 302:     cicloLED=50000;
  2218  00F8  3050               	movlw	80
  2219  00F9  00E2               	movwf	_cicloLED^(0+256)
  2220  00FA  30C3               	movlw	195
  2221  00FB  00E3               	movwf	(_cicloLED^(0+256)+1)
  2222  00FC                     l3328:
  2223                           
  2224                           ;main.c: 303:     __nop();
  2225  00FC  0000               	nop
  2226  00FD                     l3330:
  2227                           
  2228                           ;main.c: 306:     {;main.c: 307:         __nop();
  2229  00FD  0000               	nop
  2230  00FE                     l3332:
  2231                           
  2232                           ;main.c: 308:         if (PORTBbits.RB0==0)
  2233  00FE  0020               	movlb	0	; select bank0
  2234  00FF  180D               	btfsc	13,0	;volatile
  2235  0100  2902               	goto	u2061
  2236  0101  2903               	goto	u2060
  2237  0102                     u2061:
  2238  0102  2A2A               	goto	l3400
  2239  0103                     u2060:
  2240  0103  2922               	goto	l3340
  2241  0104                     l609:	
  2242                           ;main.c: 311:             { do { LATAbits.LATA7 = 1; } while(0); _delay((unsigned long)(
      +                          (50)*(16000000/4000.0))); do { LATAbits.LATA7 = 0; } while(0); _delay((unsigned long)((5
      +                          0)*(16000000/4000.0))); }
  2243                           
  2244  0104  0022               	movlb	2	; select bank2
  2245  0105  178C               	bsf	12,7	;volatile
  2246  0106                     l3336:
  2247  0106  3002               	movlw	2
  2248  0107  0024               	movlb	4	; select bank4
  2249  0108  00B4               	movwf	(??_main^(0+512)+1)
  2250  0109  3004               	movlw	4
  2251  010A  00B3               	movwf	??_main^(0+512)
  2252  010B  30BA               	movlw	186
  2253  010C                     u2397:
  2254  010C  0B89               	decfsz	9,f
  2255  010D  290C               	goto	u2397
  2256  010E  0BB3               	decfsz	??_main^(0+512),f
  2257  010F  290C               	goto	u2397
  2258  0110  0BB4               	decfsz	(??_main^(0+512)+1),f
  2259  0111  290C               	goto	u2397
  2260  0112  0000               	nop
  2261  0113                     l3338:
  2262  0113  0022               	movlb	2	; select bank2
  2263  0114  138C               	bcf	12,7	;volatile
  2264  0115                     l612:
  2265  0115  3002               	movlw	2
  2266  0116  0024               	movlb	4	; select bank4
  2267  0117  00B4               	movwf	(??_main^(0+512)+1)
  2268  0118  3004               	movlw	4
  2269  0119  00B3               	movwf	??_main^(0+512)
  2270  011A  30BA               	movlw	186
  2271  011B                     u2407:
  2272  011B  0B89               	decfsz	9,f
  2273  011C  291B               	goto	u2407
  2274  011D  0BB3               	decfsz	??_main^(0+512),f
  2275  011E  291B               	goto	u2407
  2276  011F  0BB4               	decfsz	(??_main^(0+512)+1),f
  2277  0120  291B               	goto	u2407
  2278  0121  0000               	nop
  2279  0122                     l3340:
  2280                           
  2281                           ;main.c: 310:             while (PORTBbits.RB0==0)
  2282  0122  0020               	movlb	0	; select bank0
  2283  0123  1C0D               	btfss	13,0	;volatile
  2284  0124  2926               	goto	u2071
  2285  0125  2927               	goto	u2070
  2286  0126                     u2071:
  2287  0126  2904               	goto	l609
  2288  0127                     u2070:
  2289  0127                     l614:	
  2290                           ;main.c: 313:             do { LATAbits.LATA7 = 1; } while(0);
  2291                           
  2292  0127  0022               	movlb	2	; select bank2
  2293  0128  178C               	bsf	12,7	;volatile
  2294  0129                     l3342:
  2295                           
  2296                           ;main.c: 315:             SM_CFOFF();
  2297  0129  318E  26C0  3180   	fcall	_SM_CFOFF
  2298  012C                     l3344:
  2299                           
  2300                           ;main.c: 316:             __nop();
  2301  012C  0000               	nop
  2302                           
  2303                           ;main.c: 317:             SM_CONFIGRADIO(22);
  2304  012D  3016               	movlw	22
  2305  012E  318E  26EF  3180   	fcall	_SM_CONFIGRADIO
  2306  0131                     l3346:
  2307                           
  2308                           ;main.c: 318:             __nop();
  2309  0131  0000               	nop
  2310  0132                     l3348:
  2311                           
  2312                           ;main.c: 321:             ENDERECO = 8004;
  2313  0132  3044               	movlw	68
  2314  0133  0022               	movlb	2	; select bank2
  2315  0134  00E8               	movwf	_ENDERECO^(0+256)
  2316  0135  301F               	movlw	31
  2317  0136  00E9               	movwf	(_ENDERECO^(0+256)+1)
  2318  0137                     l3350:
  2319                           
  2320                           ;main.c: 322:             endereco_M = (uint8_t)(ENDERECO/1000);
  2321  0137  30E8               	movlw	232
  2322  0138  00F1               	movwf	___lwdiv@divisor
  2323  0139  3003               	movlw	3
  2324  013A  00F2               	movwf	___lwdiv@divisor+1
  2325  013B  3044               	movlw	68
  2326  013C  00F3               	movwf	___lwdiv@dividend
  2327  013D  301F               	movlw	31
  2328  013E  00F4               	movwf	___lwdiv@dividend+1
  2329  013F  318F  2786  3180   	fcall	___lwdiv
  2330  0142  0871               	movf	?___lwdiv,w
  2331  0143  0024               	movlb	4	; select bank4
  2332  0144  00B3               	movwf	??_main^(0+512)
  2333  0145  0833               	movf	??_main^(0+512),w
  2334  0146  0023               	movlb	3	; select bank3
  2335  0147  00EC               	movwf	_endereco_M^(0+384)	;volatile
  2336  0148                     l3352:
  2337                           
  2338                           ;main.c: 323:             temp16 = ENDERECO%1000;
  2339  0148  30E8               	movlw	232
  2340  0149  00F1               	movwf	___lwmod@divisor
  2341  014A  3003               	movlw	3
  2342  014B  00F2               	movwf	___lwmod@divisor+1
  2343  014C  3044               	movlw	68
  2344  014D  00F3               	movwf	___lwmod@dividend
  2345  014E  301F               	movlw	31
  2346  014F  00F4               	movwf	___lwmod@dividend+1
  2347  0150  318F  2752  3180   	fcall	___lwmod
  2348  0153  0872               	movf	?___lwmod+1,w
  2349  0154  0023               	movlb	3	; select bank3
  2350  0155  00E7               	movwf	(_temp16+1)^(0+384)
  2351  0156  0871               	movf	?___lwmod,w
  2352  0157  00E6               	movwf	_temp16^(0+384)
  2353  0158                     l3354:
  2354                           
  2355                           ;main.c: 324:             endereco_C = (uint8_t)(temp16/100);
  2356  0158  3064               	movlw	100
  2357  0159  00F1               	movwf	___lwdiv@divisor
  2358  015A  3000               	movlw	0
  2359  015B  00F2               	movwf	___lwdiv@divisor+1
  2360  015C  0867               	movf	(_temp16+1)^(0+384),w
  2361  015D  00F4               	movwf	___lwdiv@dividend+1
  2362  015E  0866               	movf	_temp16^(0+384),w
  2363  015F  00F3               	movwf	___lwdiv@dividend
  2364  0160  318F  2786  3180   	fcall	___lwdiv
  2365  0163  0871               	movf	?___lwdiv,w
  2366  0164  0024               	movlb	4	; select bank4
  2367  0165  00B3               	movwf	??_main^(0+512)
  2368  0166  0833               	movf	??_main^(0+512),w
  2369  0167  0023               	movlb	3	; select bank3
  2370  0168  00EB               	movwf	_endereco_C^(0+384)	;volatile
  2371  0169                     l3356:
  2372                           
  2373                           ;main.c: 325:             temp16 = temp16%100;
  2374  0169  3064               	movlw	100
  2375  016A  00F1               	movwf	___lwmod@divisor
  2376  016B  3000               	movlw	0
  2377  016C  00F2               	movwf	___lwmod@divisor+1
  2378  016D  0867               	movf	(_temp16+1)^(0+384),w
  2379  016E  00F4               	movwf	___lwmod@dividend+1
  2380  016F  0866               	movf	_temp16^(0+384),w
  2381  0170  00F3               	movwf	___lwmod@dividend
  2382  0171  318F  2752  3180   	fcall	___lwmod
  2383  0174  0872               	movf	?___lwmod+1,w
  2384  0175  0023               	movlb	3	; select bank3
  2385  0176  00E7               	movwf	(_temp16+1)^(0+384)
  2386  0177  0871               	movf	?___lwmod,w
  2387  0178  00E6               	movwf	_temp16^(0+384)
  2388  0179                     l3358:
  2389                           
  2390                           ;main.c: 326:             endereco_D = (uint8_t)(temp16/10);
  2391  0179  300A               	movlw	10
  2392  017A  00F1               	movwf	___lwdiv@divisor
  2393  017B  3000               	movlw	0
  2394  017C  00F2               	movwf	___lwdiv@divisor+1
  2395  017D  0867               	movf	(_temp16+1)^(0+384),w
  2396  017E  00F4               	movwf	___lwdiv@dividend+1
  2397  017F  0866               	movf	_temp16^(0+384),w
  2398  0180  00F3               	movwf	___lwdiv@dividend
  2399  0181  318F  2786  3180   	fcall	___lwdiv
  2400  0184  0871               	movf	?___lwdiv,w
  2401  0185  0024               	movlb	4	; select bank4
  2402  0186  00B3               	movwf	??_main^(0+512)
  2403  0187  0833               	movf	??_main^(0+512),w
  2404  0188  0023               	movlb	3	; select bank3
  2405  0189  00EF               	movwf	_endereco_D^(0+384)	;volatile
  2406  018A                     l3360:
  2407                           
  2408                           ;main.c: 327:             endereco_U = (uint8_t)(temp16%10);
  2409  018A  300A               	movlw	10
  2410  018B  00F1               	movwf	___lwmod@divisor
  2411  018C  3000               	movlw	0
  2412  018D  00F2               	movwf	___lwmod@divisor+1
  2413  018E  0867               	movf	(_temp16+1)^(0+384),w
  2414  018F  00F4               	movwf	___lwmod@dividend+1
  2415  0190  0866               	movf	_temp16^(0+384),w
  2416  0191  00F3               	movwf	___lwmod@dividend
  2417  0192  318F  2752  3180   	fcall	___lwmod
  2418  0195  0871               	movf	?___lwmod,w
  2419  0196  0024               	movlb	4	; select bank4
  2420  0197  00B3               	movwf	??_main^(0+512)
  2421  0198  0833               	movf	??_main^(0+512),w
  2422  0199  0023               	movlb	3	; select bank3
  2423  019A  00EA               	movwf	_endereco_U^(0+384)	;volatile
  2424  019B                     l3362:
  2425                           
  2426                           ;main.c: 329:             endereco_M += 48;
  2427  019B  3030               	movlw	48
  2428  019C  0024               	movlb	4	; select bank4
  2429  019D  00B3               	movwf	??_main^(0+512)
  2430  019E  0833               	movf	??_main^(0+512),w
  2431  019F  0023               	movlb	3	; select bank3
  2432  01A0  07EC               	addwf	_endereco_M^(0+384),f	;volatile
  2433  01A1                     l3364:
  2434                           
  2435                           ;main.c: 330:             endereco_C += 48;
  2436  01A1  3030               	movlw	48
  2437  01A2  0024               	movlb	4	; select bank4
  2438  01A3  00B3               	movwf	??_main^(0+512)
  2439  01A4  0833               	movf	??_main^(0+512),w
  2440  01A5  0023               	movlb	3	; select bank3
  2441  01A6  07EB               	addwf	_endereco_C^(0+384),f	;volatile
  2442  01A7                     l3366:
  2443                           
  2444                           ;main.c: 331:             endereco_D += 48;
  2445  01A7  3030               	movlw	48
  2446  01A8  0024               	movlb	4	; select bank4
  2447  01A9  00B3               	movwf	??_main^(0+512)
  2448  01AA  0833               	movf	??_main^(0+512),w
  2449  01AB  0023               	movlb	3	; select bank3
  2450  01AC  07EF               	addwf	_endereco_D^(0+384),f	;volatile
  2451  01AD                     l3368:
  2452                           
  2453                           ;main.c: 332:             endereco_U += 48;
  2454  01AD  3030               	movlw	48
  2455  01AE  0024               	movlb	4	; select bank4
  2456  01AF  00B3               	movwf	??_main^(0+512)
  2457  01B0  0833               	movf	??_main^(0+512),w
  2458  01B1  0023               	movlb	3	; select bank3
  2459  01B2  07EA               	addwf	_endereco_U^(0+384),f	;volatile
  2460  01B3                     l3370:
  2461                           
  2462                           ;main.c: 333:             __nop();
  2463  01B3  0000               	nop
  2464  01B4                     l3372:
  2465                           
  2466                           ;main.c: 335:             EUSART_Reset();
  2467  01B4  3187  2767  3180   	fcall	_EUSART_Reset
  2468  01B7                     l3374:
  2469                           
  2470                           ;main.c: 336:             for (loop=0; _TXSTART22[loop]!=0; loop++) EUSART_Write (_TXSTA
      +                          RT22[loop]);
  2471  01B7  0024               	movlb	4	; select bank4
  2472  01B8  01A8               	clrf	_loop^(0+512)
  2473  01B9  29CA               	goto	l3380
  2474  01BA                     l3376:
  2475  01BA  0828               	movf	_loop^(0+512),w
  2476  01BB  3E3E               	addlw	low (__TXSTART22| (0+32768))
  2477  01BC  0084               	movwf	4
  2478  01BD  3088               	movlw	high (__TXSTART22| (0+32768))
  2479  01BE  1803               	skipnc
  2480  01BF  3E01               	addlw	1
  2481  01C0  0085               	movwf	5
  2482  01C1  0800               	movf	0,w	;code access
  2483  01C2  318E  2638  3180   	fcall	_EUSART_Write
  2484  01C5                     l3378:
  2485  01C5  3001               	movlw	1
  2486  01C6  0024               	movlb	4	; select bank4
  2487  01C7  00B3               	movwf	??_main^(0+512)
  2488  01C8  0833               	movf	??_main^(0+512),w
  2489  01C9  07A8               	addwf	_loop^(0+512),f
  2490  01CA                     l3380:
  2491  01CA  0828               	movf	_loop^(0+512),w
  2492  01CB  3E3E               	addlw	low (__TXSTART22| (0+32768))
  2493  01CC  0084               	movwf	4
  2494  01CD  3088               	movlw	high (__TXSTART22| (0+32768))
  2495  01CE  1803               	skipnc
  2496  01CF  3E01               	addlw	1
  2497  01D0  0085               	movwf	5
  2498  01D1  0012               	moviw fsr0++
  2499  01D2  1D03               	btfss	3,2
  2500  01D3  29D5               	goto	u2081
  2501  01D4  29D6               	goto	u2080
  2502  01D5                     u2081:
  2503  01D5  29BA               	goto	l3376
  2504  01D6                     u2080:
  2505  01D6                     l3382:
  2506                           
  2507                           ;main.c: 337:             EUSART_Write('S');
  2508  01D6  3053               	movlw	83
  2509  01D7  318E  2638  3180   	fcall	_EUSART_Write
  2510                           
  2511                           ;main.c: 338:             EUSART_Write('i');
  2512  01DA  3069               	movlw	105
  2513  01DB  318E  2638  3180   	fcall	_EUSART_Write
  2514                           
  2515                           ;main.c: 339:             EUSART_Write('r');
  2516  01DE  3072               	movlw	114
  2517  01DF  318E  2638  3180   	fcall	_EUSART_Write
  2518                           
  2519                           ;main.c: 340:             EUSART_Write('e');
  2520  01E2  3065               	movlw	101
  2521  01E3  318E  2638  3180   	fcall	_EUSART_Write
  2522                           
  2523                           ;main.c: 341:             EUSART_Write('n');
  2524  01E6  306E               	movlw	110
  2525  01E7  318E  2638  3180   	fcall	_EUSART_Write
  2526                           
  2527                           ;main.c: 342:             EUSART_Write('e');
  2528  01EA  3065               	movlw	101
  2529  01EB  318E  2638  3180   	fcall	_EUSART_Write
  2530                           
  2531                           ;main.c: 343:             EUSART_Write(':');
  2532  01EE  303A               	movlw	58
  2533  01EF  318E  2638  3180   	fcall	_EUSART_Write
  2534                           
  2535                           ;main.c: 344:             EUSART_Write(' ');
  2536  01F2  3020               	movlw	32
  2537  01F3  318E  2638  3180   	fcall	_EUSART_Write
  2538                           
  2539                           ;main.c: 345:             EUSART_Write(endereco_M);
  2540  01F6  0023               	movlb	3	; select bank3
  2541  01F7  086C               	movf	_endereco_M^(0+384),w	;volatile
  2542  01F8  318E  2638  3180   	fcall	_EUSART_Write
  2543                           
  2544                           ;main.c: 346:             EUSART_Write(endereco_C);
  2545  01FB  0023               	movlb	3	; select bank3
  2546  01FC  086B               	movf	_endereco_C^(0+384),w	;volatile
  2547  01FD  318E  2638  3180   	fcall	_EUSART_Write
  2548                           
  2549                           ;main.c: 347:             EUSART_Write(endereco_D);
  2550  0200  0023               	movlb	3	; select bank3
  2551  0201  086F               	movf	_endereco_D^(0+384),w	;volatile
  2552  0202  318E  2638  3180   	fcall	_EUSART_Write
  2553                           
  2554                           ;main.c: 348:             EUSART_Write(endereco_U);
  2555  0205  0023               	movlb	3	; select bank3
  2556  0206  086A               	movf	_endereco_U^(0+384),w	;volatile
  2557  0207  318E  2638  3180   	fcall	_EUSART_Write
  2558                           
  2559                           ;main.c: 349:             EUSART_Write (0x0D);
  2560  020A  300D               	movlw	13
  2561  020B  318E  2638  3180   	fcall	_EUSART_Write
  2562  020E                     l3384:
  2563                           
  2564                           ;main.c: 350:             _delay((unsigned long)((2000)*(16000000/4000.0)));
  2565  020E  3029               	movlw	41
  2566  020F  0024               	movlb	4	; select bank4
  2567  0210  00B4               	movwf	(??_main^(0+512)+1)
  2568  0211  3096               	movlw	150
  2569  0212  00B3               	movwf	??_main^(0+512)
  2570  0213  307F               	movlw	127
  2571  0214                     u2417:
  2572  0214  0B89               	decfsz	9,f
  2573  0215  2A14               	goto	u2417
  2574  0216  0BB3               	decfsz	??_main^(0+512),f
  2575  0217  2A14               	goto	u2417
  2576  0218  0BB4               	decfsz	(??_main^(0+512)+1),f
  2577  0219  2A14               	goto	u2417
  2578  021A                     l3386:
  2579                           
  2580                           ;main.c: 353:             SM_CFOFF();
  2581  021A  318E  26C0  3180   	fcall	_SM_CFOFF
  2582  021D                     l3388:
  2583                           
  2584                           ;main.c: 354:             __nop();
  2585  021D  0000               	nop
  2586  021E                     l3390:
  2587                           
  2588                           ;main.c: 355:             SM_CONFIGRADIO(22);
  2589  021E  3016               	movlw	22
  2590  021F  318E  26EF  3180   	fcall	_SM_CONFIGRADIO
  2591  0222                     l3392:
  2592                           
  2593                           ;main.c: 356:             __nop();
  2594  0222  0000               	nop
  2595  0223                     l3394:
  2596                           
  2597                           ;main.c: 357:             SM_MODORX(22);
  2598  0223  3016               	movlw	22
  2599  0224  318E  2662  3180   	fcall	_SM_MODORX
  2600  0227                     l3396:
  2601                           
  2602                           ;main.c: 358:             __nop();
  2603  0227  0000               	nop
  2604  0228                     l3398:
  2605  0228  0022               	movlb	2	; select bank2
  2606  0229  138C               	bcf	12,7	;volatile
  2607  022A                     l3400:
  2608                           
  2609                           ;main.c: 363:         _delay((unsigned long)((1)*(16000000/4000.0)));
  2610  022A  3006               	movlw	6
  2611  022B  0024               	movlb	4	; select bank4
  2612  022C  00B3               	movwf	??_main^(0+512)
  2613  022D  3030               	movlw	48
  2614  022E                     u2427:
  2615  022E  0B89               	decfsz	9,f
  2616  022F  2A2E               	goto	u2427
  2617  0230  0BB3               	decfsz	??_main^(0+512),f
  2618  0231  2A2E               	goto	u2427
  2619  0232  0000               	nop
  2620  0233                     l3402:
  2621                           
  2622                           ;main.c: 366:         if (fRTX==0)
  2623  0233  0022               	movlb	2	; select bank2
  2624  0234  086F               	movf	_fRTX^(0+256),w	;volatile
  2625  0235  1D03               	btfss	3,2
  2626  0236  2A38               	goto	u2091
  2627  0237  2A39               	goto	u2090
  2628  0238                     u2091:
  2629  0238  2A3D               	goto	l3406
  2630  0239                     u2090:
  2631  0239                     l3404:
  2632                           
  2633                           ;main.c: 367:             cicloLED++;
  2634  0239  3001               	movlw	1
  2635  023A  07E2               	addwf	_cicloLED^(0+256),f
  2636  023B  3000               	movlw	0
  2637  023C  3DE3               	addwfc	(_cicloLED+1)^(0+256),f
  2638  023D                     l3406:
  2639                           
  2640                           ;main.c: 368:         if (cicloLED==100)
  2641  023D  3064               	movlw	100
  2642  023E  0662               	xorwf	_cicloLED^(0+256),w
  2643  023F  0463               	iorwf	(_cicloLED+1)^(0+256),w
  2644  0240  1D03               	btfss	3,2
  2645  0241  2A43               	goto	u2101
  2646  0242  2A44               	goto	u2100
  2647  0243                     u2101:
  2648  0243  2A46               	goto	l622
  2649  0244                     u2100:
  2650  0244                     l623:	
  2651                           ;main.c: 369:         {;main.c: 370:             do { LATAbits.LATA6 = 0; } while(0);
  2652                           
  2653  0244  130C               	bcf	12,6	;volatile
  2654  0245  2A65               	goto	l3416
  2655  0246                     l622:	
  2656                           ;main.c: 372:         else
  2657                           
  2658                           
  2659                           ;main.c: 373:         {;main.c: 374:             if (PORTAbits.RA3==0)
  2660  0246  0020               	movlb	0	; select bank0
  2661  0247  198C               	btfsc	12,3	;volatile
  2662  0248  2A4A               	goto	u2111
  2663  0249  2A4B               	goto	u2110
  2664  024A                     u2111:
  2665  024A  2A59               	goto	l3412
  2666  024B                     u2110:
  2667  024B                     l3408:
  2668                           
  2669                           ;main.c: 375:             {;main.c: 376:                 if (cicloLED>2000)
  2670  024B  3007               	movlw	7
  2671  024C  0022               	movlb	2	; select bank2
  2672  024D  0263               	subwf	(_cicloLED+1)^(0+256),w
  2673  024E  30D1               	movlw	209
  2674  024F  1903               	skipnz
  2675  0250  0262               	subwf	_cicloLED^(0+256),w
  2676  0251  1C03               	skipc
  2677  0252  2A54               	goto	u2121
  2678  0253  2A55               	goto	u2120
  2679  0254                     u2121:
  2680  0254  2A65               	goto	l3416
  2681  0255                     u2120:
  2682  0255                     l628:	
  2683                           ;main.c: 377:                 {;main.c: 378:                     do { LATAbits.LATA6 = 1
      +                          ; } while(0);
  2684                           
  2685  0255  170C               	bsf	12,6	;volatile
  2686  0256                     l3410:
  2687                           
  2688                           ;main.c: 379:                     cicloLED=0;
  2689  0256  01E2               	clrf	_cicloLED^(0+256)
  2690  0257  01E3               	clrf	(_cicloLED+1)^(0+256)
  2691  0258  2A65               	goto	l3416
  2692  0259                     l3412:
  2693                           
  2694                           ;main.c: 383:             {;main.c: 384:                 if (cicloLED>15000)
  2695  0259  303A               	movlw	58
  2696  025A  0022               	movlb	2	; select bank2
  2697  025B  0263               	subwf	(_cicloLED+1)^(0+256),w
  2698  025C  3099               	movlw	153
  2699  025D  1903               	skipnz
  2700  025E  0262               	subwf	_cicloLED^(0+256),w
  2701  025F  1C03               	skipc
  2702  0260  2A62               	goto	u2131
  2703  0261  2A63               	goto	u2130
  2704  0262                     u2131:
  2705  0262  2A65               	goto	l3416
  2706  0263                     u2130:
  2707  0263                     l632:	
  2708                           ;main.c: 385:                 {;main.c: 386:                     do { LATAbits.LATA6 = 1
      +                          ; } while(0);
  2709                           
  2710  0263  170C               	bsf	12,6	;volatile
  2711  0264  2A56               	goto	l3410
  2712  0265                     l3416:
  2713                           
  2714                           ;main.c: 395:         passagem++;
  2715  0265  3001               	movlw	1
  2716  0266  07E0               	addwf	_passagem^(0+256),f
  2717  0267  3000               	movlw	0
  2718  0268  3DE1               	addwfc	(_passagem+1)^(0+256),f
  2719  0269                     l3418:
  2720                           
  2721                           ;main.c: 396:         if (passagem>30000)
  2722  0269  3075               	movlw	117
  2723  026A  0261               	subwf	(_passagem+1)^(0+256),w
  2724  026B  3031               	movlw	49
  2725  026C  1903               	skipnz
  2726  026D  0260               	subwf	_passagem^(0+256),w
  2727  026E  1C03               	skipc
  2728  026F  2A71               	goto	u2141
  2729  0270  2A72               	goto	u2140
  2730  0271                     u2141:
  2731  0271  2A74               	goto	l3422
  2732  0272                     u2140:
  2733  0272                     l3420:
  2734                           
  2735                           ;main.c: 397:         {;main.c: 398:             passagem=0;
  2736  0272  01E0               	clrf	_passagem^(0+256)
  2737  0273  01E1               	clrf	(_passagem+1)^(0+256)
  2738  0274                     l3422:
  2739                           
  2740                           ;main.c: 403:         if (fRTX)
  2741  0274  086F               	movf	_fRTX^(0+256),w	;volatile
  2742  0275  1903               	btfsc	3,2
  2743  0276  2A78               	goto	u2151
  2744  0277  2A79               	goto	u2150
  2745  0278                     u2151:
  2746  0278  2AC7               	goto	l3452
  2747  0279                     u2150:
  2748  0279                     l3424:
  2749                           
  2750                           ;main.c: 404:         {;main.c: 405:             if (tempoRTX < 8000)
  2751  0279  301F               	movlw	31
  2752  027A  0023               	movlb	3	; select bank3
  2753  027B  0269               	subwf	(_tempoRTX+1)^(0+384),w
  2754  027C  3040               	movlw	64
  2755  027D  1903               	skipnz
  2756  027E  0268               	subwf	_tempoRTX^(0+384),w
  2757  027F  1803               	skipnc
  2758  0280  2A82               	goto	u2161
  2759  0281  2A83               	goto	u2160
  2760  0282                     u2161:
  2761  0282  2A87               	goto	l3428
  2762  0283                     u2160:
  2763  0283                     l3426:
  2764                           
  2765                           ;main.c: 406:                 tempoRTX++;
  2766  0283  3001               	movlw	1
  2767  0284  07E8               	addwf	_tempoRTX^(0+384),f
  2768  0285  3000               	movlw	0
  2769  0286  3DE9               	addwfc	(_tempoRTX+1)^(0+384),f
  2770  0287                     l3428:
  2771                           
  2772                           ;main.c: 407:             if (tempoRTX == (5000+OFFSET+OFFSET))
  2773  0287  0022               	movlb	2	; select bank2
  2774  0288  086B               	movf	(_OFFSET+1)^(0+256),w
  2775  0289  0024               	movlb	4	; select bank4
  2776  028A  00B4               	movwf	(??_main^(0+512)+1)
  2777  028B  0022               	movlb	2	; select bank2
  2778  028C  086A               	movf	_OFFSET^(0+256),w
  2779  028D  0024               	movlb	4	; select bank4
  2780  028E  00B3               	movwf	??_main^(0+512)
  2781  028F  35B3               	lslf	??_main^(0+512),f
  2782  0290  0DB4               	rlf	(??_main^(0+512)+1),f
  2783  0291  0833               	movf	??_main^(0+512),w
  2784  0292  3E88               	addlw	136
  2785  0293  00B5               	movwf	(??_main+2)^(0+512)
  2786  0294  3013               	movlw	19
  2787  0295  3D34               	addwfc	(??_main+1)^(0+512),w
  2788  0296  00B6               	movwf	(??_main+3)^(0+512)
  2789  0297  0023               	movlb	3	; select bank3
  2790  0298  0869               	movf	(_tempoRTX+1)^(0+384),w
  2791  0299  0024               	movlb	4	; select bank4
  2792  029A  0636               	xorwf	(??_main+3)^(0+512),w
  2793  029B  1D03               	skipz
  2794  029C  2AA1               	goto	u2175
  2795  029D  0023               	movlb	3	; select bank3
  2796  029E  0868               	movf	_tempoRTX^(0+384),w
  2797  029F  0024               	movlb	4	; select bank4
  2798  02A0  0635               	xorwf	(??_main+2)^(0+512),w
  2799  02A1                     u2175:
  2800  02A1  1D03               	skipz
  2801  02A2  2AA4               	goto	u2171
  2802  02A3  2AA5               	goto	u2170
  2803  02A4                     u2171:
  2804  02A4  2AC7               	goto	l3452
  2805  02A5                     u2170:
  2806  02A5                     l3430:
  2807                           
  2808                           ;main.c: 408:             {;main.c: 409:                 fRTX=0;
  2809  02A5  0022               	movlb	2	; select bank2
  2810  02A6  01EF               	clrf	_fRTX^(0+256)	;volatile
  2811  02A7                     l3432:
  2812  02A7  130C               	bcf	12,6	;volatile
  2813  02A8                     l3434:
  2814                           
  2815                           ;main.c: 411:                 TX_Lora();
  2816  02A8  3186  261F  3180   	fcall	_TX_Lora
  2817  02AB                     l3436:
  2818                           
  2819                           ;main.c: 412:                 __nop();
  2820  02AB  0000               	nop
  2821  02AC                     l3438:
  2822                           
  2823                           ;main.c: 414:                 SM_CFOFF();
  2824  02AC  318E  26C0  3180   	fcall	_SM_CFOFF
  2825  02AF                     l3440:
  2826                           
  2827                           ;main.c: 415:                 __nop();
  2828  02AF  0000               	nop
  2829  02B0                     l3442:
  2830                           
  2831                           ;main.c: 416:                 SM_CONFIGRADIO(22);
  2832  02B0  3016               	movlw	22
  2833  02B1  318E  26EF  3180   	fcall	_SM_CONFIGRADIO
  2834  02B4                     l3444:
  2835                           
  2836                           ;main.c: 417:                 __nop();
  2837  02B4  0000               	nop
  2838  02B5                     l3446:
  2839                           
  2840                           ;main.c: 418:                 SM_MODORX(22);
  2841  02B5  3016               	movlw	22
  2842  02B6  318E  2662  3180   	fcall	_SM_MODORX
  2843  02B9                     l3448:
  2844                           
  2845                           ;main.c: 419:                 __nop();
  2846  02B9  0000               	nop
  2847                           
  2848                           ;main.c: 420:                 fLigado=0;
  2849  02BA  0021               	movlb	1	; select bank1
  2850  02BB  01E0               	clrf	_fLigado^(0+128)	;volatile
  2851                           
  2852                           ;main.c: 421:                 indice=0;
  2853  02BC  01F9               	clrf	_indice	;volatile
  2854                           
  2855                           ;main.c: 422:                 tempoRTX=0;
  2856  02BD  0023               	movlb	3	; select bank3
  2857  02BE  01E8               	clrf	_tempoRTX^(0+384)
  2858  02BF  01E9               	clrf	(_tempoRTX+1)^(0+384)
  2859                           
  2860                           ;main.c: 423:                 passagem=0;
  2861  02C0  0022               	movlb	2	; select bank2
  2862  02C1  01E0               	clrf	_passagem^(0+256)
  2863  02C2  01E1               	clrf	(_passagem+1)^(0+256)
  2864  02C3                     l3450:
  2865                           
  2866                           ;main.c: 424:                 cicloLED=13000;
  2867  02C3  30C8               	movlw	200
  2868  02C4  00E2               	movwf	_cicloLED^(0+256)
  2869  02C5  3032               	movlw	50
  2870  02C6  00E3               	movwf	(_cicloLED^(0+256)+1)
  2871  02C7                     l3452:
  2872                           
  2873                           ;main.c: 429:         if (fRetLora)
  2874  02C7  0021               	movlb	1	; select bank1
  2875  02C8  086D               	movf	_fRetLora^(0+128),w	;volatile
  2876  02C9  1903               	btfsc	3,2
  2877  02CA  2ACC               	goto	u2181
  2878  02CB  2ACD               	goto	u2180
  2879  02CC                     u2181:
  2880  02CC  28FD               	goto	l3330
  2881  02CD                     u2180:
  2882  02CD                     l3454:
  2883                           
  2884                           ;main.c: 430:         {;main.c: 431:             fRetLora=0;
  2885  02CD  01ED               	clrf	_fRetLora^(0+128)	;volatile
  2886                           
  2887                           ;main.c: 432:             fComandoSirene=0;
  2888  02CE  0022               	movlb	2	; select bank2
  2889  02CF  01EE               	clrf	_fComandoSirene^(0+256)	;volatile
  2890                           
  2891                           ;main.c: 433:             indice=0;
  2892  02D0  01F9               	clrf	_indice	;volatile
  2893  02D1                     l3456:
  2894                           
  2895                           ;main.c: 435:             ENDERECO = 8004;
  2896  02D1  3044               	movlw	68
  2897  02D2  00E8               	movwf	_ENDERECO^(0+256)
  2898  02D3  301F               	movlw	31
  2899  02D4  00E9               	movwf	(_ENDERECO^(0+256)+1)
  2900  02D5                     l3458:
  2901                           
  2902                           ;main.c: 437:             __nop();
  2903  02D5  0000               	nop
  2904  02D6                     l3460:
  2905                           
  2906                           ;main.c: 439:             endereco_M = (uint8_t)(ENDERECO/1000);
  2907  02D6  30E8               	movlw	232
  2908  02D7  00F1               	movwf	___lwdiv@divisor
  2909  02D8  3003               	movlw	3
  2910  02D9  00F2               	movwf	___lwdiv@divisor+1
  2911  02DA  3044               	movlw	68
  2912  02DB  00F3               	movwf	___lwdiv@dividend
  2913  02DC  301F               	movlw	31
  2914  02DD  00F4               	movwf	___lwdiv@dividend+1
  2915  02DE  318F  2786  3180   	fcall	___lwdiv
  2916  02E1  0871               	movf	?___lwdiv,w
  2917  02E2  0024               	movlb	4	; select bank4
  2918  02E3  00B3               	movwf	??_main^(0+512)
  2919  02E4  0833               	movf	??_main^(0+512),w
  2920  02E5  0023               	movlb	3	; select bank3
  2921  02E6  00EC               	movwf	_endereco_M^(0+384)	;volatile
  2922  02E7                     l3462:
  2923                           
  2924                           ;main.c: 440:             temp16 = ENDERECO%1000;
  2925  02E7  30E8               	movlw	232
  2926  02E8  00F1               	movwf	___lwmod@divisor
  2927  02E9  3003               	movlw	3
  2928  02EA  00F2               	movwf	___lwmod@divisor+1
  2929  02EB  3044               	movlw	68
  2930  02EC  00F3               	movwf	___lwmod@dividend
  2931  02ED  301F               	movlw	31
  2932  02EE  00F4               	movwf	___lwmod@dividend+1
  2933  02EF  318F  2752  3180   	fcall	___lwmod
  2934  02F2  0872               	movf	?___lwmod+1,w
  2935  02F3  0023               	movlb	3	; select bank3
  2936  02F4  00E7               	movwf	(_temp16+1)^(0+384)
  2937  02F5  0871               	movf	?___lwmod,w
  2938  02F6  00E6               	movwf	_temp16^(0+384)
  2939  02F7                     l3464:
  2940                           
  2941                           ;main.c: 441:             endereco_C = (uint8_t)(temp16/100);
  2942  02F7  3064               	movlw	100
  2943  02F8  00F1               	movwf	___lwdiv@divisor
  2944  02F9  3000               	movlw	0
  2945  02FA  00F2               	movwf	___lwdiv@divisor+1
  2946  02FB  0867               	movf	(_temp16+1)^(0+384),w
  2947  02FC  00F4               	movwf	___lwdiv@dividend+1
  2948  02FD  0866               	movf	_temp16^(0+384),w
  2949  02FE  00F3               	movwf	___lwdiv@dividend
  2950  02FF  318F  2786  3180   	fcall	___lwdiv
  2951  0302  0871               	movf	?___lwdiv,w
  2952  0303  0024               	movlb	4	; select bank4
  2953  0304  00B3               	movwf	??_main^(0+512)
  2954  0305  0833               	movf	??_main^(0+512),w
  2955  0306  0023               	movlb	3	; select bank3
  2956  0307  00EB               	movwf	_endereco_C^(0+384)	;volatile
  2957  0308                     l3466:
  2958                           
  2959                           ;main.c: 442:             temp16 = temp16%100;
  2960  0308  3064               	movlw	100
  2961  0309  00F1               	movwf	___lwmod@divisor
  2962  030A  3000               	movlw	0
  2963  030B  00F2               	movwf	___lwmod@divisor+1
  2964  030C  0867               	movf	(_temp16+1)^(0+384),w
  2965  030D  00F4               	movwf	___lwmod@dividend+1
  2966  030E  0866               	movf	_temp16^(0+384),w
  2967  030F  00F3               	movwf	___lwmod@dividend
  2968  0310  318F  2752  3180   	fcall	___lwmod
  2969  0313  0872               	movf	?___lwmod+1,w
  2970  0314  0023               	movlb	3	; select bank3
  2971  0315  00E7               	movwf	(_temp16+1)^(0+384)
  2972  0316  0871               	movf	?___lwmod,w
  2973  0317  00E6               	movwf	_temp16^(0+384)
  2974  0318                     l3468:
  2975                           
  2976                           ;main.c: 443:             endereco_D = (uint8_t)(temp16/10);
  2977  0318  300A               	movlw	10
  2978  0319  00F1               	movwf	___lwdiv@divisor
  2979  031A  3000               	movlw	0
  2980  031B  00F2               	movwf	___lwdiv@divisor+1
  2981  031C  0867               	movf	(_temp16+1)^(0+384),w
  2982  031D  00F4               	movwf	___lwdiv@dividend+1
  2983  031E  0866               	movf	_temp16^(0+384),w
  2984  031F  00F3               	movwf	___lwdiv@dividend
  2985  0320  318F  2786  3180   	fcall	___lwdiv
  2986  0323  0871               	movf	?___lwdiv,w
  2987  0324  0024               	movlb	4	; select bank4
  2988  0325  00B3               	movwf	??_main^(0+512)
  2989  0326  0833               	movf	??_main^(0+512),w
  2990  0327  0023               	movlb	3	; select bank3
  2991  0328  00EF               	movwf	_endereco_D^(0+384)	;volatile
  2992  0329                     l3470:
  2993                           
  2994                           ;main.c: 444:             endereco_U = (uint8_t)(temp16%10);
  2995  0329  300A               	movlw	10
  2996  032A  00F1               	movwf	___lwmod@divisor
  2997  032B  3000               	movlw	0
  2998  032C  00F2               	movwf	___lwmod@divisor+1
  2999  032D  0867               	movf	(_temp16+1)^(0+384),w
  3000  032E  00F4               	movwf	___lwmod@dividend+1
  3001  032F  0866               	movf	_temp16^(0+384),w
  3002  0330  00F3               	movwf	___lwmod@dividend
  3003  0331  318F  2752  3180   	fcall	___lwmod
  3004  0334  0871               	movf	?___lwmod,w
  3005  0335  0024               	movlb	4	; select bank4
  3006  0336  00B3               	movwf	??_main^(0+512)
  3007  0337  0833               	movf	??_main^(0+512),w
  3008  0338  0023               	movlb	3	; select bank3
  3009  0339  00EA               	movwf	_endereco_U^(0+384)	;volatile
  3010  033A                     l3472:
  3011                           
  3012                           ;main.c: 446:             OFFSET = endereco_C * 100;
  3013  033A  086B               	movf	_endereco_C^(0+384),w	;volatile
  3014  033B  0024               	movlb	4	; select bank4
  3015  033C  00B3               	movwf	??_main^(0+512)
  3016  033D  01B4               	clrf	(??_main^(0+512)+1)
  3017  033E  0833               	movf	??_main^(0+512),w
  3018  033F  00F1               	movwf	___wmul@multiplier
  3019  0340  0834               	movf	(??_main+1)^(0+512),w
  3020  0341  00F2               	movwf	___wmul@multiplier+1
  3021  0342  3064               	movlw	100
  3022  0343  00F3               	movwf	___wmul@multiplicand
  3023  0344  3000               	movlw	0
  3024  0345  00F4               	movwf	___wmul@multiplicand+1
  3025  0346  318D  25D6  3180   	fcall	___wmul
  3026  0349  0872               	movf	?___wmul+1,w
  3027  034A  0022               	movlb	2	; select bank2
  3028  034B  00EB               	movwf	(_OFFSET+1)^(0+256)
  3029  034C  0871               	movf	?___wmul,w
  3030  034D  00EA               	movwf	_OFFSET^(0+256)
  3031  034E                     l3474:
  3032                           
  3033                           ;main.c: 447:             OFFSET += (endereco_D * 10);
  3034  034E  0023               	movlb	3	; select bank3
  3035  034F  086F               	movf	_endereco_D^(0+384),w	;volatile
  3036  0350  0024               	movlb	4	; select bank4
  3037  0351  00B3               	movwf	??_main^(0+512)
  3038  0352  01B4               	clrf	(??_main^(0+512)+1)
  3039  0353  0833               	movf	??_main^(0+512),w
  3040  0354  00F1               	movwf	___wmul@multiplier
  3041  0355  0834               	movf	(??_main+1)^(0+512),w
  3042  0356  00F2               	movwf	___wmul@multiplier+1
  3043  0357  300A               	movlw	10
  3044  0358  00F3               	movwf	___wmul@multiplicand
  3045  0359  3000               	movlw	0
  3046  035A  00F4               	movwf	___wmul@multiplicand+1
  3047  035B  318D  25D6  3180   	fcall	___wmul
  3048  035E  0871               	movf	?___wmul,w
  3049  035F  0022               	movlb	2	; select bank2
  3050  0360  07EA               	addwf	_OFFSET^(0+256),f
  3051  0361  0872               	movf	?___wmul+1,w
  3052  0362  3DEB               	addwfc	(_OFFSET+1)^(0+256),f
  3053  0363                     l3476:
  3054                           
  3055                           ;main.c: 448:             OFFSET += endereco_U;
  3056  0363  0023               	movlb	3	; select bank3
  3057  0364  086A               	movf	_endereco_U^(0+384),w	;volatile
  3058  0365  0024               	movlb	4	; select bank4
  3059  0366  00B3               	movwf	??_main^(0+512)
  3060  0367  01B4               	clrf	(??_main^(0+512)+1)
  3061  0368  0833               	movf	??_main^(0+512),w
  3062  0369  0022               	movlb	2	; select bank2
  3063  036A  07EA               	addwf	_OFFSET^(0+256),f
  3064  036B  0024               	movlb	4	; select bank4
  3065  036C  0834               	movf	(??_main+1)^(0+512),w
  3066  036D  0022               	movlb	2	; select bank2
  3067  036E  3DEB               	addwfc	(_OFFSET+1)^(0+256),f
  3068  036F                     l3478:
  3069                           
  3070                           ;main.c: 450:             ENDERECO -= OFFSET;
  3071  036F  086A               	movf	_OFFSET^(0+256),w
  3072  0370  02E8               	subwf	_ENDERECO^(0+256),f
  3073  0371  086B               	movf	(_OFFSET+1)^(0+256),w
  3074  0372  3BE9               	subwfb	(_ENDERECO+1)^(0+256),f
  3075  0373                     l3480:
  3076                           
  3077                           ;main.c: 451:             endereco.end16 = ENDERECO;
  3078  0373  0869               	movf	(_ENDERECO+1)^(0+256),w
  3079  0374  0023               	movlb	3	; select bank3
  3080  0375  00E3               	movwf	(_endereco+1)^(0+384)
  3081  0376  0022               	movlb	2	; select bank2
  3082  0377  0868               	movf	_ENDERECO^(0+256),w
  3083  0378  0023               	movlb	3	; select bank3
  3084  0379  00E2               	movwf	_endereco^(0+384)
  3085  037A                     l3482:
  3086                           
  3087                           ;main.c: 452:             offset.end16 = OFFSET;
  3088  037A  0022               	movlb	2	; select bank2
  3089  037B  086B               	movf	(_OFFSET+1)^(0+256),w
  3090  037C  0023               	movlb	3	; select bank3
  3091  037D  00E1               	movwf	(_offset+1)^(0+384)
  3092  037E  0022               	movlb	2	; select bank2
  3093  037F  086A               	movf	_OFFSET^(0+256),w
  3094  0380  0023               	movlb	3	; select bank3
  3095  0381  00E0               	movwf	_offset^(0+384)
  3096  0382                     l3484:
  3097                           
  3098                           ;main.c: 453:             __nop();
  3099  0382  0000               	nop
  3100  0383                     l3486:
  3101                           
  3102                           ;main.c: 455:             M_EnderecoRecebido = DadosLora[4]-48;
  3103  0383  0022               	movlb	2	; select bank2
  3104  0384  0824               	movf	(_DadosLora^(0+256)+4),w	;volatile
  3105  0385  3ED0               	addlw	208
  3106  0386  0024               	movlb	4	; select bank4
  3107  0387  00B3               	movwf	??_main^(0+512)
  3108  0388  0833               	movf	??_main^(0+512),w
  3109  0389  00A1               	movwf	_M_EnderecoRecebido^(0+512)
  3110  038A                     l3488:
  3111                           
  3112                           ;main.c: 456:             C_EnderecoRecebido = DadosLora[5]-48;
  3113  038A  0022               	movlb	2	; select bank2
  3114  038B  0825               	movf	(_DadosLora^(0+256)+5),w	;volatile
  3115  038C  3ED0               	addlw	208
  3116  038D  0024               	movlb	4	; select bank4
  3117  038E  00B3               	movwf	??_main^(0+512)
  3118  038F  0833               	movf	??_main^(0+512),w
  3119  0390  00B2               	movwf	_C_EnderecoRecebido^(0+512)
  3120  0391                     l3490:
  3121                           
  3122                           ;main.c: 457:             D_EnderecoRecebido = DadosLora[6]-48;
  3123  0391  0022               	movlb	2	; select bank2
  3124  0392  0826               	movf	(_DadosLora^(0+256)+6),w	;volatile
  3125  0393  3ED0               	addlw	208
  3126  0394  0024               	movlb	4	; select bank4
  3127  0395  00B3               	movwf	??_main^(0+512)
  3128  0396  0833               	movf	??_main^(0+512),w
  3129  0397  00B1               	movwf	_D_EnderecoRecebido^(0+512)
  3130  0398                     l3492:
  3131                           
  3132                           ;main.c: 458:             U_EnderecoRecebido = DadosLora[7]-48;
  3133  0398  0022               	movlb	2	; select bank2
  3134  0399  0827               	movf	(_DadosLora^(0+256)+7),w	;volatile
  3135  039A  3ED0               	addlw	208
  3136  039B  0024               	movlb	4	; select bank4
  3137  039C  00B3               	movwf	??_main^(0+512)
  3138  039D  0833               	movf	??_main^(0+512),w
  3139  039E  00A0               	movwf	_U_EnderecoRecebido^(0+512)
  3140  039F                     l3494:
  3141                           
  3142                           ;main.c: 459:             __nop();
  3143  039F  0000               	nop
  3144  03A0                     l3496:
  3145                           
  3146                           ;main.c: 460:             enderecoRecebido = M_EnderecoRecebido*1000;
  3147  03A0  0024               	movlb	4	; select bank4
  3148  03A1  0821               	movf	_M_EnderecoRecebido^(0+512),w
  3149  03A2  00B3               	movwf	??_main^(0+512)
  3150  03A3  01B4               	clrf	(??_main^(0+512)+1)
  3151  03A4  0833               	movf	??_main^(0+512),w
  3152  03A5  00F1               	movwf	___wmul@multiplier
  3153  03A6  0834               	movf	(??_main+1)^(0+512),w
  3154  03A7  00F2               	movwf	___wmul@multiplier+1
  3155  03A8  30E8               	movlw	232
  3156  03A9  00F3               	movwf	___wmul@multiplicand
  3157  03AA  3003               	movlw	3
  3158  03AB  00F4               	movwf	___wmul@multiplicand+1
  3159  03AC  318D  25D6  3180   	fcall	___wmul
  3160  03AF  0872               	movf	?___wmul+1,w
  3161  03B0  0023               	movlb	3	; select bank3
  3162  03B1  00E5               	movwf	(_enderecoRecebido+1)^(0+384)
  3163  03B2  0871               	movf	?___wmul,w
  3164  03B3  00E4               	movwf	_enderecoRecebido^(0+384)
  3165  03B4                     l3498:
  3166                           
  3167                           ;main.c: 461:             enderecoRecebido += C_EnderecoRecebido*100;
  3168  03B4  0024               	movlb	4	; select bank4
  3169  03B5  0832               	movf	_C_EnderecoRecebido^(0+512),w
  3170  03B6  00B3               	movwf	??_main^(0+512)
  3171  03B7  01B4               	clrf	(??_main^(0+512)+1)
  3172  03B8  0833               	movf	??_main^(0+512),w
  3173  03B9  00F1               	movwf	___wmul@multiplier
  3174  03BA  0834               	movf	(??_main+1)^(0+512),w
  3175  03BB  00F2               	movwf	___wmul@multiplier+1
  3176  03BC  3064               	movlw	100
  3177  03BD  00F3               	movwf	___wmul@multiplicand
  3178  03BE  3000               	movlw	0
  3179  03BF  00F4               	movwf	___wmul@multiplicand+1
  3180  03C0  318D  25D6  3180   	fcall	___wmul
  3181  03C3  0871               	movf	?___wmul,w
  3182  03C4  0023               	movlb	3	; select bank3
  3183  03C5  07E4               	addwf	_enderecoRecebido^(0+384),f
  3184  03C6  0872               	movf	?___wmul+1,w
  3185  03C7  3DE5               	addwfc	(_enderecoRecebido+1)^(0+384),f
  3186  03C8                     l3500:
  3187                           
  3188                           ;main.c: 462:             enderecoRecebido += D_EnderecoRecebido*10;
  3189  03C8  0024               	movlb	4	; select bank4
  3190  03C9  0831               	movf	_D_EnderecoRecebido^(0+512),w
  3191  03CA  00B3               	movwf	??_main^(0+512)
  3192  03CB  01B4               	clrf	(??_main^(0+512)+1)
  3193  03CC  0833               	movf	??_main^(0+512),w
  3194  03CD  00F1               	movwf	___wmul@multiplier
  3195  03CE  0834               	movf	(??_main+1)^(0+512),w
  3196  03CF  00F2               	movwf	___wmul@multiplier+1
  3197  03D0  300A               	movlw	10
  3198  03D1  00F3               	movwf	___wmul@multiplicand
  3199  03D2  3000               	movlw	0
  3200  03D3  00F4               	movwf	___wmul@multiplicand+1
  3201  03D4  318D  25D6  3180   	fcall	___wmul
  3202  03D7  0871               	movf	?___wmul,w
  3203  03D8  0023               	movlb	3	; select bank3
  3204  03D9  07E4               	addwf	_enderecoRecebido^(0+384),f
  3205  03DA  0872               	movf	?___wmul+1,w
  3206  03DB  3DE5               	addwfc	(_enderecoRecebido+1)^(0+384),f
  3207  03DC                     l3502:
  3208                           
  3209                           ;main.c: 463:             enderecoRecebido += U_EnderecoRecebido;
  3210  03DC  0024               	movlb	4	; select bank4
  3211  03DD  0820               	movf	_U_EnderecoRecebido^(0+512),w
  3212  03DE  00B3               	movwf	??_main^(0+512)
  3213  03DF  01B4               	clrf	(??_main^(0+512)+1)
  3214  03E0  0833               	movf	??_main^(0+512),w
  3215  03E1  0023               	movlb	3	; select bank3
  3216  03E2  07E4               	addwf	_enderecoRecebido^(0+384),f
  3217  03E3  0024               	movlb	4	; select bank4
  3218  03E4  0834               	movf	(??_main+1)^(0+512),w
  3219  03E5  0023               	movlb	3	; select bank3
  3220  03E6  3DE5               	addwfc	(_enderecoRecebido+1)^(0+384),f
  3221  03E7                     l3504:
  3222                           
  3223                           ;main.c: 464:             __nop();
  3224  03E7  0000               	nop
  3225  03E8                     l3506:
  3226                           
  3227                           ;main.c: 466:             pacoteTRX[ 0] = DadosLora[ 2];
  3228  03E8  0022               	movlb	2	; select bank2
  3229  03E9  0822               	movf	(_DadosLora^(0+256)+2),w	;volatile
  3230  03EA  0024               	movlb	4	; select bank4
  3231  03EB  00B3               	movwf	??_main^(0+512)
  3232  03EC  0833               	movf	??_main^(0+512),w
  3233  03ED  0021               	movlb	1	; select bank1
  3234  03EE  00C0               	movwf	_pacoteTRX^(0+128)	;volatile
  3235  03EF                     l3508:
  3236                           
  3237                           ;main.c: 467:             pacoteTRX[ 1] = DadosLora[ 3];
  3238  03EF  0022               	movlb	2	; select bank2
  3239  03F0  0823               	movf	(_DadosLora^(0+256)+3),w	;volatile
  3240  03F1  0024               	movlb	4	; select bank4
  3241  03F2  00B3               	movwf	??_main^(0+512)
  3242  03F3  0833               	movf	??_main^(0+512),w
  3243  03F4  0021               	movlb	1	; select bank1
  3244  03F5  00C1               	movwf	(_pacoteTRX^(0+128)+1)	;volatile
  3245  03F6                     l3510:
  3246                           
  3247                           ;main.c: 468:             pacoteTRX[ 2] = DadosLora[ 4];
  3248  03F6  0022               	movlb	2	; select bank2
  3249  03F7  0824               	movf	(_DadosLora^(0+256)+4),w	;volatile
  3250  03F8  0024               	movlb	4	; select bank4
  3251  03F9  00B3               	movwf	??_main^(0+512)
  3252  03FA  0833               	movf	??_main^(0+512),w
  3253  03FB  0021               	movlb	1	; select bank1
  3254  03FC  00C2               	movwf	(_pacoteTRX^(0+128)+2)	;volatile
  3255  03FD                     l3512:
  3256                           
  3257                           ;main.c: 469:             pacoteTRX[ 3] = DadosLora[ 5];
  3258  03FD  0022               	movlb	2	; select bank2
  3259  03FE  0825               	movf	(_DadosLora^(0+256)+5),w	;volatile
  3260  03FF  0024               	movlb	4	; select bank4
  3261  0400  00B3               	movwf	??_main^(0+512)
  3262  0401  0833               	movf	??_main^(0+512),w
  3263  0402  0021               	movlb	1	; select bank1
  3264  0403  00C3               	movwf	(_pacoteTRX^(0+128)+3)	;volatile
  3265  0404                     l3514:
  3266                           
  3267                           ;main.c: 470:             pacoteTRX[ 4] = DadosLora[ 6];
  3268  0404  0022               	movlb	2	; select bank2
  3269  0405  0826               	movf	(_DadosLora^(0+256)+6),w	;volatile
  3270  0406  0024               	movlb	4	; select bank4
  3271  0407  00B3               	movwf	??_main^(0+512)
  3272  0408  0833               	movf	??_main^(0+512),w
  3273  0409  0021               	movlb	1	; select bank1
  3274  040A  00C4               	movwf	(_pacoteTRX^(0+128)+4)	;volatile
  3275  040B                     l3516:
  3276                           
  3277                           ;main.c: 471:             pacoteTRX[ 5] = DadosLora[ 7];
  3278  040B  0022               	movlb	2	; select bank2
  3279  040C  0827               	movf	(_DadosLora^(0+256)+7),w	;volatile
  3280  040D  0024               	movlb	4	; select bank4
  3281  040E  00B3               	movwf	??_main^(0+512)
  3282  040F  0833               	movf	??_main^(0+512),w
  3283  0410  0021               	movlb	1	; select bank1
  3284  0411  00C5               	movwf	(_pacoteTRX^(0+128)+5)	;volatile
  3285  0412                     l3518:
  3286                           
  3287                           ;main.c: 472:             pacoteTRX[ 6] = DadosLora[ 8];
  3288  0412  0022               	movlb	2	; select bank2
  3289  0413  0828               	movf	(_DadosLora^(0+256)+8),w	;volatile
  3290  0414  0024               	movlb	4	; select bank4
  3291  0415  00B3               	movwf	??_main^(0+512)
  3292  0416  0833               	movf	??_main^(0+512),w
  3293  0417  0021               	movlb	1	; select bank1
  3294  0418  00C6               	movwf	(_pacoteTRX^(0+128)+6)	;volatile
  3295  0419                     l3520:
  3296                           
  3297                           ;main.c: 473:             pacoteTRX[ 7] = DadosLora[ 9];
  3298  0419  0022               	movlb	2	; select bank2
  3299  041A  0829               	movf	(_DadosLora^(0+256)+9),w	;volatile
  3300  041B  0024               	movlb	4	; select bank4
  3301  041C  00B3               	movwf	??_main^(0+512)
  3302  041D  0833               	movf	??_main^(0+512),w
  3303  041E  0021               	movlb	1	; select bank1
  3304  041F  00C7               	movwf	(_pacoteTRX^(0+128)+7)	;volatile
  3305  0420                     l3522:
  3306                           
  3307                           ;main.c: 474:             pacoteTRX[ 8] = DadosLora[10];
  3308  0420  0022               	movlb	2	; select bank2
  3309  0421  082A               	movf	(_DadosLora^(0+256)+10),w	;volatile
  3310  0422  0024               	movlb	4	; select bank4
  3311  0423  00B3               	movwf	??_main^(0+512)
  3312  0424  0833               	movf	??_main^(0+512),w
  3313  0425  0021               	movlb	1	; select bank1
  3314  0426  00C8               	movwf	(_pacoteTRX^(0+128)+8)	;volatile
  3315  0427                     l3524:
  3316                           
  3317                           ;main.c: 475:             pacoteTRX[ 9] = DadosLora[11];
  3318  0427  0022               	movlb	2	; select bank2
  3319  0428  082B               	movf	(_DadosLora^(0+256)+11),w	;volatile
  3320  0429  0024               	movlb	4	; select bank4
  3321  042A  00B3               	movwf	??_main^(0+512)
  3322  042B  0833               	movf	??_main^(0+512),w
  3323  042C  0021               	movlb	1	; select bank1
  3324  042D  00C9               	movwf	(_pacoteTRX^(0+128)+9)	;volatile
  3325  042E                     l3526:
  3326                           
  3327                           ;main.c: 476:             pacoteTRX[10] = DadosLora[12];
  3328  042E  0022               	movlb	2	; select bank2
  3329  042F  082C               	movf	(_DadosLora^(0+256)+12),w	;volatile
  3330  0430  0024               	movlb	4	; select bank4
  3331  0431  00B3               	movwf	??_main^(0+512)
  3332  0432  0833               	movf	??_main^(0+512),w
  3333  0433  0021               	movlb	1	; select bank1
  3334  0434  00CA               	movwf	(_pacoteTRX^(0+128)+10)	;volatile
  3335  0435                     l3528:
  3336                           
  3337                           ;main.c: 477:             pacoteTRX[11] = DadosLora[13];
  3338  0435  0022               	movlb	2	; select bank2
  3339  0436  082D               	movf	(_DadosLora^(0+256)+13),w	;volatile
  3340  0437  0024               	movlb	4	; select bank4
  3341  0438  00B3               	movwf	??_main^(0+512)
  3342  0439  0833               	movf	??_main^(0+512),w
  3343  043A  0021               	movlb	1	; select bank1
  3344  043B  00CB               	movwf	(_pacoteTRX^(0+128)+11)	;volatile
  3345  043C                     l3530:
  3346                           
  3347                           ;main.c: 478:             pacoteTRX[12] = DadosLora[14];
  3348  043C  0022               	movlb	2	; select bank2
  3349  043D  082E               	movf	(_DadosLora^(0+256)+14),w	;volatile
  3350  043E  0024               	movlb	4	; select bank4
  3351  043F  00B3               	movwf	??_main^(0+512)
  3352  0440  0833               	movf	??_main^(0+512),w
  3353  0441  0021               	movlb	1	; select bank1
  3354  0442  00CC               	movwf	(_pacoteTRX^(0+128)+12)	;volatile
  3355  0443                     l3532:
  3356                           
  3357                           ;main.c: 479:             pacoteTRX[13] = DadosLora[15];
  3358  0443  0022               	movlb	2	; select bank2
  3359  0444  082F               	movf	(_DadosLora^(0+256)+15),w	;volatile
  3360  0445  0024               	movlb	4	; select bank4
  3361  0446  00B3               	movwf	??_main^(0+512)
  3362  0447  0833               	movf	??_main^(0+512),w
  3363  0448  0021               	movlb	1	; select bank1
  3364  0449  00CD               	movwf	(_pacoteTRX^(0+128)+13)	;volatile
  3365  044A                     l3534:
  3366                           
  3367                           ;main.c: 480:             __nop();
  3368  044A  0000               	nop
  3369  044B                     l3536:
  3370                           
  3371                           ;main.c: 483:             if ( enderecoRecebido == endereco.end16 )
  3372  044B  0023               	movlb	3	; select bank3
  3373  044C  0865               	movf	(_enderecoRecebido+1)^(0+384),w
  3374  044D  0663               	xorwf	(_endereco+1)^(0+384),w
  3375  044E  1D03               	skipz
  3376  044F  2C52               	goto	u2195
  3377  0450  0864               	movf	_enderecoRecebido^(0+384),w
  3378  0451  0662               	xorwf	_endereco^(0+384),w
  3379  0452                     u2195:
  3380  0452  1D03               	skipz
  3381  0453  2C55               	goto	u2191
  3382  0454  2C56               	goto	u2190
  3383  0455                     u2191:
  3384  0455  2C5C               	goto	l641
  3385  0456                     u2190:
  3386  0456                     l3538:
  3387                           
  3388                           ;main.c: 484:                 fComandoSirene=1;
  3389  0456  3001               	movlw	1
  3390  0457  0024               	movlb	4	; select bank4
  3391  0458  00B3               	movwf	??_main^(0+512)
  3392  0459  0833               	movf	??_main^(0+512),w
  3393  045A  0022               	movlb	2	; select bank2
  3394  045B  00EE               	movwf	_fComandoSirene^(0+256)	;volatile
  3395  045C                     l641:
  3396                           
  3397                           ;main.c: 487:             endereco.end16 += offset.end16;
  3398  045C  0023               	movlb	3	; select bank3
  3399  045D  0860               	movf	_offset^(0+384),w
  3400  045E  07E2               	addwf	_endereco^(0+384),f
  3401  045F  0861               	movf	(_offset+1)^(0+384),w
  3402  0460  3DE3               	addwfc	(_endereco+1)^(0+384),f
  3403                           
  3404                           ;main.c: 488:             if ( enderecoRecebido == endereco.end16 )
  3405  0461  0865               	movf	(_enderecoRecebido+1)^(0+384),w
  3406  0462  0663               	xorwf	(_endereco+1)^(0+384),w
  3407  0463  1D03               	skipz
  3408  0464  2C67               	goto	u2205
  3409  0465  0864               	movf	_enderecoRecebido^(0+384),w
  3410  0466  0662               	xorwf	_endereco^(0+384),w
  3411  0467                     u2205:
  3412  0467  1D03               	skipz
  3413  0468  2C6A               	goto	u2201
  3414  0469  2C6B               	goto	u2200
  3415  046A                     u2201:
  3416  046A  2C71               	goto	l3542
  3417  046B                     u2200:
  3418  046B                     l3540:
  3419                           
  3420                           ;main.c: 489:                 fComandoSirene=1;
  3421  046B  3001               	movlw	1
  3422  046C  0024               	movlb	4	; select bank4
  3423  046D  00B3               	movwf	??_main^(0+512)
  3424  046E  0833               	movf	??_main^(0+512),w
  3425  046F  0022               	movlb	2	; select bank2
  3426  0470  00EE               	movwf	_fComandoSirene^(0+256)	;volatile
  3427  0471                     l3542:
  3428                           
  3429                           ;main.c: 491:             if (fComandoSirene)
  3430  0471  0022               	movlb	2	; select bank2
  3431  0472  086E               	movf	_fComandoSirene^(0+256),w	;volatile
  3432  0473  1903               	btfsc	3,2
  3433  0474  2C76               	goto	u2211
  3434  0475  2C77               	goto	u2210
  3435  0476                     u2211:
  3436  0476  2CEB               	goto	l3598
  3437  0477                     u2210:
  3438  0477                     l3544:
  3439                           
  3440                           ;main.c: 492:             {;main.c: 493:                 __nop();
  3441  0477  0000               	nop
  3442                           
  3443                           ;main.c: 494:                 __nop();
  3444  0478  0000               	nop
  3445  0479                     l3546:
  3446                           
  3447                           ;main.c: 495:                 fComandoSirene=0;
  3448  0479  0022               	movlb	2	; select bank2
  3449  047A  01EE               	clrf	_fComandoSirene^(0+256)	;volatile
  3450  047B                     l3548:
  3451                           
  3452                           ;main.c: 498:                 if ( (DadosLora[ 8] == '1')&&
  3453  047B  3031               	movlw	49
  3454  047C  0628               	xorwf	(_DadosLora^(0+256)+8),w	;volatile
  3455  047D  1D03               	btfss	3,2
  3456  047E  2C80               	goto	u2221
  3457  047F  2C81               	goto	u2220
  3458  0480                     u2221:
  3459  0480  2CB5               	goto	l3572
  3460  0481                     u2220:
  3461  0481                     l3550:
  3462  0481  3031               	movlw	49
  3463  0482  0629               	xorwf	(_DadosLora^(0+256)+9),w	;volatile
  3464  0483  1D03               	btfss	3,2
  3465  0484  2C86               	goto	u2231
  3466  0485  2C87               	goto	u2230
  3467  0486                     u2231:
  3468  0486  2CB5               	goto	l3572
  3469  0487                     u2230:
  3470  0487                     l3552:
  3471  0487  3032               	movlw	50
  3472  0488  062A               	xorwf	(_DadosLora^(0+256)+10),w	;volatile
  3473  0489  1D03               	btfss	3,2
  3474  048A  2C8C               	goto	u2241
  3475  048B  2C8D               	goto	u2240
  3476  048C                     u2241:
  3477  048C  2CB5               	goto	l3572
  3478  048D                     u2240:
  3479  048D                     l3554:
  3480  048D  3032               	movlw	50
  3481  048E  062B               	xorwf	(_DadosLora^(0+256)+11),w	;volatile
  3482  048F  1D03               	btfss	3,2
  3483  0490  2C92               	goto	u2251
  3484  0491  2C93               	goto	u2250
  3485  0492                     u2251:
  3486  0492  2CB5               	goto	l3572
  3487  0493                     u2250:
  3488  0493                     l3556:
  3489  0493  3033               	movlw	51
  3490  0494  062C               	xorwf	(_DadosLora^(0+256)+12),w	;volatile
  3491  0495  1D03               	btfss	3,2
  3492  0496  2C98               	goto	u2261
  3493  0497  2C99               	goto	u2260
  3494  0498                     u2261:
  3495  0498  2CB5               	goto	l3572
  3496  0499                     u2260:
  3497  0499                     l3558:
  3498  0499  3033               	movlw	51
  3499  049A  062D               	xorwf	(_DadosLora^(0+256)+13),w	;volatile
  3500  049B  1D03               	btfss	3,2
  3501  049C  2C9E               	goto	u2271
  3502  049D  2C9F               	goto	u2270
  3503  049E                     u2271:
  3504  049E  2CB5               	goto	l3572
  3505  049F                     u2270:
  3506  049F                     l3560:
  3507                           
  3508                           ;main.c: 504:                 {;main.c: 505:                     __nop();
  3509  049F  0000               	nop
  3510                           
  3511                           ;main.c: 506:                     __nop();
  3512  04A0  0000               	nop
  3513  04A1                     l3562:
  3514                           
  3515                           ;main.c: 507:                     fLigado = 1;
  3516  04A1  3001               	movlw	1
  3517  04A2  0024               	movlb	4	; select bank4
  3518  04A3  00B3               	movwf	??_main^(0+512)
  3519  04A4  0833               	movf	??_main^(0+512),w
  3520  04A5  0021               	movlb	1	; select bank1
  3521  04A6  00E0               	movwf	_fLigado^(0+128)	;volatile
  3522                           
  3523                           ;main.c: 508:                     fRTX=1;
  3524  04A7  3001               	movlw	1
  3525  04A8  0024               	movlb	4	; select bank4
  3526  04A9  00B3               	movwf	??_main^(0+512)
  3527  04AA  0833               	movf	??_main^(0+512),w
  3528  04AB  0022               	movlb	2	; select bank2
  3529  04AC  00EF               	movwf	_fRTX^(0+256)	;volatile
  3530  04AD                     l3564:
  3531  04AD  170C               	bsf	12,6	;volatile
  3532  04AE                     l3566:
  3533                           
  3534                           ;main.c: 510:                     cicloLED=0;
  3535  04AE  01E2               	clrf	_cicloLED^(0+256)
  3536  04AF  01E3               	clrf	(_cicloLED+1)^(0+256)
  3537  04B0                     l3568:
  3538                           
  3539                           ;main.c: 511:                     tempoRTX=0;
  3540  04B0  0023               	movlb	3	; select bank3
  3541  04B1  01E8               	clrf	_tempoRTX^(0+384)
  3542  04B2  01E9               	clrf	(_tempoRTX+1)^(0+384)
  3543  04B3                     l3570:
  3544  04B3  0022               	movlb	2	; select bank2
  3545  04B4  140C               	bsf	12,0	;volatile
  3546  04B5                     l3572:
  3547                           
  3548                           ;main.c: 516:                 if ( (DadosLora[ 8] == '4')&&
  3549  04B5  3034               	movlw	52
  3550  04B6  0628               	xorwf	(_DadosLora^(0+256)+8),w	;volatile
  3551  04B7  1D03               	btfss	3,2
  3552  04B8  2CBA               	goto	u2281
  3553  04B9  2CBB               	goto	u2280
  3554  04BA                     u2281:
  3555  04BA  2CEB               	goto	l3598
  3556  04BB                     u2280:
  3557  04BB                     l3574:
  3558  04BB  3034               	movlw	52
  3559  04BC  0629               	xorwf	(_DadosLora^(0+256)+9),w	;volatile
  3560  04BD  1D03               	btfss	3,2
  3561  04BE  2CC0               	goto	u2291
  3562  04BF  2CC1               	goto	u2290
  3563  04C0                     u2291:
  3564  04C0  2CEB               	goto	l3598
  3565  04C1                     u2290:
  3566  04C1                     l3576:
  3567  04C1  3035               	movlw	53
  3568  04C2  062A               	xorwf	(_DadosLora^(0+256)+10),w	;volatile
  3569  04C3  1D03               	btfss	3,2
  3570  04C4  2CC6               	goto	u2301
  3571  04C5  2CC7               	goto	u2300
  3572  04C6                     u2301:
  3573  04C6  2CEB               	goto	l3598
  3574  04C7                     u2300:
  3575  04C7                     l3578:
  3576  04C7  3035               	movlw	53
  3577  04C8  062B               	xorwf	(_DadosLora^(0+256)+11),w	;volatile
  3578  04C9  1D03               	btfss	3,2
  3579  04CA  2CCC               	goto	u2311
  3580  04CB  2CCD               	goto	u2310
  3581  04CC                     u2311:
  3582  04CC  2CEB               	goto	l3598
  3583  04CD                     u2310:
  3584  04CD                     l3580:
  3585  04CD  3036               	movlw	54
  3586  04CE  062C               	xorwf	(_DadosLora^(0+256)+12),w	;volatile
  3587  04CF  1D03               	btfss	3,2
  3588  04D0  2CD2               	goto	u2321
  3589  04D1  2CD3               	goto	u2320
  3590  04D2                     u2321:
  3591  04D2  2CEB               	goto	l3598
  3592  04D3                     u2320:
  3593  04D3                     l3582:
  3594  04D3  3036               	movlw	54
  3595  04D4  062D               	xorwf	(_DadosLora^(0+256)+13),w	;volatile
  3596  04D5  1D03               	btfss	3,2
  3597  04D6  2CD8               	goto	u2331
  3598  04D7  2CD9               	goto	u2330
  3599  04D8                     u2331:
  3600  04D8  2CEB               	goto	l3598
  3601  04D9                     u2330:
  3602  04D9                     l3584:
  3603                           
  3604                           ;main.c: 522:                 {;main.c: 523:                     __nop();
  3605  04D9  0000               	nop
  3606                           
  3607                           ;main.c: 524:                     __nop();
  3608  04DA  0000               	nop
  3609  04DB                     l3586:
  3610                           
  3611                           ;main.c: 525:                     fLigado=0;
  3612  04DB  0021               	movlb	1	; select bank1
  3613  04DC  01E0               	clrf	_fLigado^(0+128)	;volatile
  3614  04DD                     l3588:
  3615                           
  3616                           ;main.c: 526:                     fRTX=1;
  3617  04DD  3001               	movlw	1
  3618  04DE  0024               	movlb	4	; select bank4
  3619  04DF  00B3               	movwf	??_main^(0+512)
  3620  04E0  0833               	movf	??_main^(0+512),w
  3621  04E1  0022               	movlb	2	; select bank2
  3622  04E2  00EF               	movwf	_fRTX^(0+256)	;volatile
  3623  04E3                     l3590:
  3624  04E3  170C               	bsf	12,6	;volatile
  3625  04E4                     l3592:
  3626                           
  3627                           ;main.c: 528:                     cicloLED=0;
  3628  04E4  01E2               	clrf	_cicloLED^(0+256)
  3629  04E5  01E3               	clrf	(_cicloLED+1)^(0+256)
  3630  04E6                     l3594:
  3631                           
  3632                           ;main.c: 529:                     tempoRTX=0;
  3633  04E6  0023               	movlb	3	; select bank3
  3634  04E7  01E8               	clrf	_tempoRTX^(0+384)
  3635  04E8  01E9               	clrf	(_tempoRTX+1)^(0+384)
  3636  04E9                     l3596:
  3637  04E9  0022               	movlb	2	; select bank2
  3638  04EA  100C               	bcf	12,0	;volatile
  3639  04EB                     l3598:
  3640                           
  3641                           ;main.c: 535:             SM_CFOFF();
  3642  04EB  318E  26C0  3180   	fcall	_SM_CFOFF
  3643  04EE                     l3600:
  3644                           
  3645                           ;main.c: 536:             __nop();
  3646  04EE  0000               	nop
  3647  04EF                     l3602:
  3648                           
  3649                           ;main.c: 537:             SM_CONFIGRADIO(22);
  3650  04EF  3016               	movlw	22
  3651  04F0  318E  26EF  3180   	fcall	_SM_CONFIGRADIO
  3652  04F3                     l3604:
  3653                           
  3654                           ;main.c: 538:             __nop();
  3655  04F3  0000               	nop
  3656  04F4                     l3606:
  3657                           
  3658                           ;main.c: 539:             SM_MODORX(22);
  3659  04F4  3016               	movlw	22
  3660  04F5  318E  2662  3180   	fcall	_SM_MODORX
  3661  04F8  28FC               	goto	l3328
  3662  04F9  3180  282C         	ljmp	start
  3663  04FB                     __end_of_main:
  3664                           
  3665                           	psect	text1
  3666  0DD6                     __ptext1:	
  3667 ;; *************** function ___wmul *****************
  3668 ;; Defined at:
  3669 ;;		line 15 in file "C:\Program Files\Microchip\xc8\v2.32\pic\sources\c99\common\Umul16.c"
  3670 ;; Parameters:    Size  Location     Type
  3671 ;;  multiplier      2    1[COMMON] unsigned int 
  3672 ;;  multiplicand    2    3[COMMON] unsigned int 
  3673 ;; Auto vars:     Size  Location     Type
  3674 ;;  product         2    5[COMMON] unsigned int 
  3675 ;; Return value:  Size  Location     Type
  3676 ;;                  2    1[COMMON] unsigned int 
  3677 ;; Registers used:
  3678 ;;		wreg, status,2, status,0
  3679 ;; Tracked objects:
  3680 ;;		On entry : 0/0
  3681 ;;		On exit  : 0/0
  3682 ;;		Unchanged: 0/0
  3683 ;; Data sizes:     COMMON   BANK0   BANK1   BANK2   BANK3   BANK4
  3684 ;;      Params:         4       0       0       0       0       0
  3685 ;;      Locals:         2       0       0       0       0       0
  3686 ;;      Temps:          0       0       0       0       0       0
  3687 ;;      Totals:         6       0       0       0       0       0
  3688 ;;Total ram usage:        6 bytes
  3689 ;; Hardware stack levels used: 1
  3690 ;; Hardware stack levels required when called: 4
  3691 ;; This function calls:
  3692 ;;		Nothing
  3693 ;; This function is called by:
  3694 ;;		_main
  3695 ;; This function uses a non-reentrant model
  3696 ;;
  3697                           
  3698                           
  3699                           ;psect for function ___wmul
  3700  0DD6                     ___wmul:
  3701  0DD6                     l2760:	
  3702                           ;incstack = 0
  3703                           ; Regs used in ___wmul: [wreg+status,2+status,0]
  3704                           
  3705  0DD6  01F5               	clrf	___wmul@product
  3706  0DD7  01F6               	clrf	___wmul@product+1
  3707  0DD8                     l2762:
  3708  0DD8  1C71               	btfss	___wmul@multiplier,0
  3709  0DD9  2DDB               	goto	u1481
  3710  0DDA  2DDC               	goto	u1480
  3711  0DDB                     u1481:
  3712  0DDB  2DE0               	goto	l806
  3713  0DDC                     u1480:
  3714  0DDC                     l2764:
  3715  0DDC  0873               	movf	___wmul@multiplicand,w
  3716  0DDD  07F5               	addwf	___wmul@product,f
  3717  0DDE  0874               	movf	___wmul@multiplicand+1,w
  3718  0DDF  3DF6               	addwfc	___wmul@product+1,f
  3719  0DE0                     l806:
  3720  0DE0  3001               	movlw	1
  3721  0DE1                     u1495:
  3722  0DE1  35F3               	lslf	___wmul@multiplicand,f
  3723  0DE2  0DF4               	rlf	___wmul@multiplicand+1,f
  3724  0DE3  0B89               	decfsz	9,f
  3725  0DE4  2DE1               	goto	u1495
  3726  0DE5                     l2766:
  3727  0DE5  3001               	movlw	1
  3728  0DE6                     u1505:
  3729  0DE6  36F2               	lsrf	___wmul@multiplier+1,f
  3730  0DE7  0CF1               	rrf	___wmul@multiplier,f
  3731  0DE8  0B89               	decfsz	9,f
  3732  0DE9  2DE6               	goto	u1505
  3733  0DEA                     l2768:
  3734  0DEA  0871               	movf	___wmul@multiplier,w
  3735  0DEB  0472               	iorwf	___wmul@multiplier+1,w
  3736  0DEC  1D03               	btfss	3,2
  3737  0DED  2DEF               	goto	u1511
  3738  0DEE  2DF0               	goto	u1510
  3739  0DEF                     u1511:
  3740  0DEF  2DD8               	goto	l2762
  3741  0DF0                     u1510:
  3742  0DF0                     l2770:
  3743  0DF0  0876               	movf	___wmul@product+1,w
  3744  0DF1  00F2               	movwf	?___wmul+1
  3745  0DF2  0875               	movf	___wmul@product,w
  3746  0DF3  00F1               	movwf	?___wmul
  3747  0DF4                     l808:
  3748  0DF4  0008               	return
  3749  0DF5                     __end_of___wmul:
  3750                           
  3751                           	psect	text2
  3752  0F52                     __ptext2:	
  3753 ;; *************** function ___lwmod *****************
  3754 ;; Defined at:
  3755 ;;		line 5 in file "C:\Program Files\Microchip\xc8\v2.32\pic\sources\c99\common\lwmod.c"
  3756 ;; Parameters:    Size  Location     Type
  3757 ;;  divisor         2    1[COMMON] unsigned int 
  3758 ;;  dividend        2    3[COMMON] unsigned int 
  3759 ;; Auto vars:     Size  Location     Type
  3760 ;;  counter         1    6[COMMON] unsigned char 
  3761 ;; Return value:  Size  Location     Type
  3762 ;;                  2    1[COMMON] unsigned int 
  3763 ;; Registers used:
  3764 ;;		wreg, status,2, status,0
  3765 ;; Tracked objects:
  3766 ;;		On entry : 0/0
  3767 ;;		On exit  : 0/0
  3768 ;;		Unchanged: 0/0
  3769 ;; Data sizes:     COMMON   BANK0   BANK1   BANK2   BANK3   BANK4
  3770 ;;      Params:         4       0       0       0       0       0
  3771 ;;      Locals:         1       0       0       0       0       0
  3772 ;;      Temps:          1       0       0       0       0       0
  3773 ;;      Totals:         6       0       0       0       0       0
  3774 ;;Total ram usage:        6 bytes
  3775 ;; Hardware stack levels used: 1
  3776 ;; Hardware stack levels required when called: 4
  3777 ;; This function calls:
  3778 ;;		Nothing
  3779 ;; This function is called by:
  3780 ;;		_main
  3781 ;; This function uses a non-reentrant model
  3782 ;;
  3783                           
  3784                           
  3785                           ;psect for function ___lwmod
  3786  0F52                     ___lwmod:
  3787  0F52                     l2800:	
  3788                           ;incstack = 0
  3789                           ; Regs used in ___lwmod: [wreg+status,2+status,0]
  3790                           
  3791  0F52  0871               	movf	___lwmod@divisor,w
  3792  0F53  0472               	iorwf	___lwmod@divisor+1,w
  3793  0F54  1903               	btfsc	3,2
  3794  0F55  2F57               	goto	u1591
  3795  0F56  2F58               	goto	u1590
  3796  0F57                     u1591:
  3797  0F57  2F81               	goto	l2818
  3798  0F58                     u1590:
  3799  0F58                     l2802:
  3800  0F58  01F6               	clrf	___lwmod@counter
  3801  0F59  0AF6               	incf	___lwmod@counter,f
  3802  0F5A  2F64               	goto	l2808
  3803  0F5B                     l2804:
  3804  0F5B  3001               	movlw	1
  3805  0F5C                     u1605:
  3806  0F5C  35F1               	lslf	___lwmod@divisor,f
  3807  0F5D  0DF2               	rlf	___lwmod@divisor+1,f
  3808  0F5E  0B89               	decfsz	9,f
  3809  0F5F  2F5C               	goto	u1605
  3810  0F60                     l2806:
  3811  0F60  3001               	movlw	1
  3812  0F61  00F5               	movwf	??___lwmod
  3813  0F62  0875               	movf	??___lwmod,w
  3814  0F63  07F6               	addwf	___lwmod@counter,f
  3815  0F64                     l2808:
  3816  0F64  1FF2               	btfss	___lwmod@divisor+1,7
  3817  0F65  2F67               	goto	u1611
  3818  0F66  2F68               	goto	u1610
  3819  0F67                     u1611:
  3820  0F67  2F5B               	goto	l2804
  3821  0F68                     u1610:
  3822  0F68                     l2810:
  3823  0F68  0872               	movf	___lwmod@divisor+1,w
  3824  0F69  0274               	subwf	___lwmod@dividend+1,w
  3825  0F6A  1D03               	skipz
  3826  0F6B  2F6E               	goto	u1625
  3827  0F6C  0871               	movf	___lwmod@divisor,w
  3828  0F6D  0273               	subwf	___lwmod@dividend,w
  3829  0F6E                     u1625:
  3830  0F6E  1C03               	skipc
  3831  0F6F  2F71               	goto	u1621
  3832  0F70  2F72               	goto	u1620
  3833  0F71                     u1621:
  3834  0F71  2F76               	goto	l2814
  3835  0F72                     u1620:
  3836  0F72                     l2812:
  3837  0F72  0871               	movf	___lwmod@divisor,w
  3838  0F73  02F3               	subwf	___lwmod@dividend,f
  3839  0F74  0872               	movf	___lwmod@divisor+1,w
  3840  0F75  3BF4               	subwfb	___lwmod@dividend+1,f
  3841  0F76                     l2814:
  3842  0F76  3001               	movlw	1
  3843  0F77                     u1635:
  3844  0F77  36F2               	lsrf	___lwmod@divisor+1,f
  3845  0F78  0CF1               	rrf	___lwmod@divisor,f
  3846  0F79  0B89               	decfsz	9,f
  3847  0F7A  2F77               	goto	u1635
  3848  0F7B                     l2816:
  3849  0F7B  3001               	movlw	1
  3850  0F7C  02F6               	subwf	___lwmod@counter,f
  3851  0F7D  1D03               	btfss	3,2
  3852  0F7E  2F80               	goto	u1641
  3853  0F7F  2F81               	goto	u1640
  3854  0F80                     u1641:
  3855  0F80  2F68               	goto	l2810
  3856  0F81                     u1640:
  3857  0F81                     l2818:
  3858  0F81  0874               	movf	___lwmod@dividend+1,w
  3859  0F82  00F2               	movwf	?___lwmod+1
  3860  0F83  0873               	movf	___lwmod@dividend,w
  3861  0F84  00F1               	movwf	?___lwmod
  3862  0F85                     l1096:
  3863  0F85  0008               	return
  3864  0F86                     __end_of___lwmod:
  3865                           
  3866                           	psect	text3
  3867  0F86                     __ptext3:	
  3868 ;; *************** function ___lwdiv *****************
  3869 ;; Defined at:
  3870 ;;		line 5 in file "C:\Program Files\Microchip\xc8\v2.32\pic\sources\c99\common\lwdiv.c"
  3871 ;; Parameters:    Size  Location     Type
  3872 ;;  divisor         2    1[COMMON] unsigned int 
  3873 ;;  dividend        2    3[COMMON] unsigned int 
  3874 ;; Auto vars:     Size  Location     Type
  3875 ;;  quotient        2    6[COMMON] unsigned int 
  3876 ;;  counter         1    8[COMMON] unsigned char 
  3877 ;; Return value:  Size  Location     Type
  3878 ;;                  2    1[COMMON] unsigned int 
  3879 ;; Registers used:
  3880 ;;		wreg, status,2, status,0
  3881 ;; Tracked objects:
  3882 ;;		On entry : 0/0
  3883 ;;		On exit  : 0/0
  3884 ;;		Unchanged: 0/0
  3885 ;; Data sizes:     COMMON   BANK0   BANK1   BANK2   BANK3   BANK4
  3886 ;;      Params:         4       0       0       0       0       0
  3887 ;;      Locals:         3       0       0       0       0       0
  3888 ;;      Temps:          1       0       0       0       0       0
  3889 ;;      Totals:         8       0       0       0       0       0
  3890 ;;Total ram usage:        8 bytes
  3891 ;; Hardware stack levels used: 1
  3892 ;; Hardware stack levels required when called: 4
  3893 ;; This function calls:
  3894 ;;		Nothing
  3895 ;; This function is called by:
  3896 ;;		_main
  3897 ;; This function uses a non-reentrant model
  3898 ;;
  3899                           
  3900                           
  3901                           ;psect for function ___lwdiv
  3902  0F86                     ___lwdiv:
  3903  0F86                     l2774:	
  3904                           ;incstack = 0
  3905                           ; Regs used in ___lwdiv: [wreg+status,2+status,0]
  3906                           
  3907  0F86  01F6               	clrf	___lwdiv@quotient
  3908  0F87  01F7               	clrf	___lwdiv@quotient+1
  3909  0F88                     l2776:
  3910  0F88  0871               	movf	___lwdiv@divisor,w
  3911  0F89  0472               	iorwf	___lwdiv@divisor+1,w
  3912  0F8A  1903               	btfsc	3,2
  3913  0F8B  2F8D               	goto	u1521
  3914  0F8C  2F8E               	goto	u1520
  3915  0F8D                     u1521:
  3916  0F8D  2FBD               	goto	l2796
  3917  0F8E                     u1520:
  3918  0F8E                     l2778:
  3919  0F8E  01F8               	clrf	___lwdiv@counter
  3920  0F8F  0AF8               	incf	___lwdiv@counter,f
  3921  0F90  2F9A               	goto	l2784
  3922  0F91                     l2780:
  3923  0F91  3001               	movlw	1
  3924  0F92                     u1535:
  3925  0F92  35F1               	lslf	___lwdiv@divisor,f
  3926  0F93  0DF2               	rlf	___lwdiv@divisor+1,f
  3927  0F94  0B89               	decfsz	9,f
  3928  0F95  2F92               	goto	u1535
  3929  0F96                     l2782:
  3930  0F96  3001               	movlw	1
  3931  0F97  00F5               	movwf	??___lwdiv
  3932  0F98  0875               	movf	??___lwdiv,w
  3933  0F99  07F8               	addwf	___lwdiv@counter,f
  3934  0F9A                     l2784:
  3935  0F9A  1FF2               	btfss	___lwdiv@divisor+1,7
  3936  0F9B  2F9D               	goto	u1541
  3937  0F9C  2F9E               	goto	u1540
  3938  0F9D                     u1541:
  3939  0F9D  2F91               	goto	l2780
  3940  0F9E                     u1540:
  3941  0F9E                     l2786:
  3942  0F9E  3001               	movlw	1
  3943  0F9F                     u1555:
  3944  0F9F  35F6               	lslf	___lwdiv@quotient,f
  3945  0FA0  0DF7               	rlf	___lwdiv@quotient+1,f
  3946  0FA1  0B89               	decfsz	9,f
  3947  0FA2  2F9F               	goto	u1555
  3948  0FA3  0872               	movf	___lwdiv@divisor+1,w
  3949  0FA4  0274               	subwf	___lwdiv@dividend+1,w
  3950  0FA5  1D03               	skipz
  3951  0FA6  2FA9               	goto	u1565
  3952  0FA7  0871               	movf	___lwdiv@divisor,w
  3953  0FA8  0273               	subwf	___lwdiv@dividend,w
  3954  0FA9                     u1565:
  3955  0FA9  1C03               	skipc
  3956  0FAA  2FAC               	goto	u1561
  3957  0FAB  2FAD               	goto	u1560
  3958  0FAC                     u1561:
  3959  0FAC  2FB2               	goto	l2792
  3960  0FAD                     u1560:
  3961  0FAD                     l2788:
  3962  0FAD  0871               	movf	___lwdiv@divisor,w
  3963  0FAE  02F3               	subwf	___lwdiv@dividend,f
  3964  0FAF  0872               	movf	___lwdiv@divisor+1,w
  3965  0FB0  3BF4               	subwfb	___lwdiv@dividend+1,f
  3966  0FB1                     l2790:
  3967  0FB1  1476               	bsf	___lwdiv@quotient,0
  3968  0FB2                     l2792:
  3969  0FB2  3001               	movlw	1
  3970  0FB3                     u1575:
  3971  0FB3  36F2               	lsrf	___lwdiv@divisor+1,f
  3972  0FB4  0CF1               	rrf	___lwdiv@divisor,f
  3973  0FB5  0B89               	decfsz	9,f
  3974  0FB6  2FB3               	goto	u1575
  3975  0FB7                     l2794:
  3976  0FB7  3001               	movlw	1
  3977  0FB8  02F8               	subwf	___lwdiv@counter,f
  3978  0FB9  1D03               	btfss	3,2
  3979  0FBA  2FBC               	goto	u1581
  3980  0FBB  2FBD               	goto	u1580
  3981  0FBC                     u1581:
  3982  0FBC  2F9E               	goto	l2786
  3983  0FBD                     u1580:
  3984  0FBD                     l2796:
  3985  0FBD  0877               	movf	___lwdiv@quotient+1,w
  3986  0FBE  00F2               	movwf	?___lwdiv+1
  3987  0FBF  0876               	movf	___lwdiv@quotient,w
  3988  0FC0  00F1               	movwf	?___lwdiv
  3989  0FC1                     l1086:
  3990  0FC1  0008               	return
  3991  0FC2                     __end_of___lwdiv:
  3992                           
  3993                           	psect	text4
  3994  0D7B                     __ptext4:	
  3995 ;; *************** function _WDT_Initialize *****************
  3996 ;; Defined at:
  3997 ;;		line 70 in file "mcc_generated_files/mcc.c"
  3998 ;; Parameters:    Size  Location     Type
  3999 ;;		None
  4000 ;; Auto vars:     Size  Location     Type
  4001 ;;		None
  4002 ;; Return value:  Size  Location     Type
  4003 ;;                  1    wreg      void 
  4004 ;; Registers used:
  4005 ;;		wreg
  4006 ;; Tracked objects:
  4007 ;;		On entry : 0/0
  4008 ;;		On exit  : 0/0
  4009 ;;		Unchanged: 0/0
  4010 ;; Data sizes:     COMMON   BANK0   BANK1   BANK2   BANK3   BANK4
  4011 ;;      Params:         0       0       0       0       0       0
  4012 ;;      Locals:         0       0       0       0       0       0
  4013 ;;      Temps:          0       0       0       0       0       0
  4014 ;;      Totals:         0       0       0       0       0       0
  4015 ;;Total ram usage:        0 bytes
  4016 ;; Hardware stack levels used: 1
  4017 ;; Hardware stack levels required when called: 4
  4018 ;; This function calls:
  4019 ;;		Nothing
  4020 ;; This function is called by:
  4021 ;;		_main
  4022 ;; This function uses a non-reentrant model
  4023 ;;
  4024                           
  4025                           
  4026                           ;psect for function _WDT_Initialize
  4027  0D7B                     _WDT_Initialize:
  4028  0D7B                     l2562:	
  4029                           ;incstack = 0
  4030                           ; Regs used in _WDT_Initialize: [wreg]
  4031                           
  4032                           
  4033                           ;mcc_generated_files/mcc.c: 73:     WDTCON = 0x24;
  4034  0D7B  3024               	movlw	36
  4035  0D7C  0021               	movlb	1	; select bank1
  4036  0D7D  0097               	movwf	23	;volatile
  4037  0D7E                     l17:
  4038  0D7E  0008               	return
  4039  0D7F                     __end_of_WDT_Initialize:
  4040                           
  4041                           	psect	text5
  4042  061F                     __ptext5:	
  4043 ;; *************** function _TX_Lora *****************
  4044 ;; Defined at:
  4045 ;;		line 215 in file "main.c"
  4046 ;; Parameters:    Size  Location     Type
  4047 ;;		None
  4048 ;; Auto vars:     Size  Location     Type
  4049 ;;		None
  4050 ;; Return value:  Size  Location     Type
  4051 ;;                  1    wreg      void 
  4052 ;; Registers used:
  4053 ;;		wreg, fsr0l, fsr0h, fsr1l, fsr1h, status,2, status,0, pclath, cstack
  4054 ;; Tracked objects:
  4055 ;;		On entry : 0/0
  4056 ;;		On exit  : 0/0
  4057 ;;		Unchanged: 0/0
  4058 ;; Data sizes:     COMMON   BANK0   BANK1   BANK2   BANK3   BANK4
  4059 ;;      Params:         0       0       0       0       0       0
  4060 ;;      Locals:         0       0       0       0       0       0
  4061 ;;      Temps:          1       0       0       0       0       0
  4062 ;;      Totals:         1       0       0       0       0       0
  4063 ;;Total ram usage:        1 bytes
  4064 ;; Hardware stack levels used: 1
  4065 ;; Hardware stack levels required when called: 6
  4066 ;; This function calls:
  4067 ;;		_EUSART_Reset
  4068 ;;		_EUSART_Write
  4069 ;;		_Espera_TxOk
  4070 ;;		_ModuloOn
  4071 ;;		_SM_CFOFF
  4072 ;;		_SM_CONFIGRADIO
  4073 ;; This function is called by:
  4074 ;;		_main
  4075 ;; This function uses a non-reentrant model
  4076 ;;
  4077                           
  4078                           
  4079                           ;psect for function _TX_Lora
  4080  061F                     _TX_Lora:
  4081  061F                     l2730:	
  4082                           ;incstack = 0
  4083                           ; Regs used in _TX_Lora: [wreg-fsr1h+status,2+status,0+pclath+cstack]
  4084                           
  4085                           
  4086                           ;main.c: 217:     __nop();
  4087  061F  0000               	nop
  4088  0620                     l566:	
  4089                           ;main.c: 219:     do { LATAbits.LATA7 = 1; } while(0);
  4090                           
  4091  0620  0022               	movlb	2	; select bank2
  4092  0621  178C               	bsf	12,7	;volatile
  4093  0622                     l2732:
  4094                           
  4095                           ;main.c: 222:     ModuloOn();
  4096  0622  318F  271E  3186   	fcall	_ModuloOn
  4097  0625                     l2734:
  4098                           
  4099                           ;main.c: 224:     SM_CFOFF();
  4100  0625  318E  26C0  3186   	fcall	_SM_CFOFF
  4101  0628                     l2736:
  4102                           
  4103                           ;main.c: 225:     __nop();
  4104  0628  0000               	nop
  4105  0629                     l2738:
  4106                           
  4107                           ;main.c: 226:     SM_CONFIGRADIO(22);
  4108  0629  3016               	movlw	22
  4109  062A  318E  26EF  3186   	fcall	_SM_CONFIGRADIO
  4110  062D                     l2740:
  4111                           
  4112                           ;main.c: 227:     __nop();
  4113  062D  0000               	nop
  4114  062E                     l2742:
  4115                           
  4116                           ;main.c: 230:     EUSART_Reset();
  4117  062E  3187  2767  3186   	fcall	_EUSART_Reset
  4118  0631                     l2744:
  4119                           
  4120                           ;main.c: 231:     for (loop=0; _TXSTART22[loop]!=0; loop++) EUSART_Write (_TXSTART22[loo
      +                          p]);
  4121  0631  0024               	movlb	4	; select bank4
  4122  0632  01A8               	clrf	_loop^(0+512)
  4123  0633  2E44               	goto	l2750
  4124  0634                     l2746:
  4125  0634  0828               	movf	_loop^(0+512),w
  4126  0635  3E3E               	addlw	low (__TXSTART22| (0+32768))
  4127  0636  0084               	movwf	4
  4128  0637  3088               	movlw	high (__TXSTART22| (0+32768))
  4129  0638  1803               	skipnc
  4130  0639  3E01               	addlw	1
  4131  063A  0085               	movwf	5
  4132  063B  0800               	movf	0,w	;code access
  4133  063C  318E  2638  3186   	fcall	_EUSART_Write
  4134  063F                     l2748:
  4135  063F  3001               	movlw	1
  4136  0640  00F5               	movwf	??_TX_Lora
  4137  0641  0875               	movf	??_TX_Lora,w
  4138  0642  0024               	movlb	4	; select bank4
  4139  0643  07A8               	addwf	_loop^(0+512),f
  4140  0644                     l2750:
  4141  0644  0828               	movf	_loop^(0+512),w
  4142  0645  3E3E               	addlw	low (__TXSTART22| (0+32768))
  4143  0646  0084               	movwf	4
  4144  0647  3088               	movlw	high (__TXSTART22| (0+32768))
  4145  0648  1803               	skipnc
  4146  0649  3E01               	addlw	1
  4147  064A  0085               	movwf	5
  4148  064B  0012               	moviw fsr0++
  4149  064C  1D03               	btfss	3,2
  4150  064D  2E4F               	goto	u1471
  4151  064E  2E50               	goto	u1470
  4152  064F                     u1471:
  4153  064F  2E34               	goto	l2746
  4154  0650                     u1470:
  4155  0650                     l2752:
  4156                           
  4157                           ;main.c: 233:     EUSART_Write(pacoteTRX[ 0]);
  4158  0650  0021               	movlb	1	; select bank1
  4159  0651  0840               	movf	_pacoteTRX^(0+128),w	;volatile
  4160  0652  318E  2638  3186   	fcall	_EUSART_Write
  4161                           
  4162                           ;main.c: 234:     EUSART_Write(pacoteTRX[ 1]);
  4163  0655  0021               	movlb	1	; select bank1
  4164  0656  0841               	movf	(_pacoteTRX^(0+128)+1),w	;volatile
  4165  0657  318E  2638  3186   	fcall	_EUSART_Write
  4166                           
  4167                           ;main.c: 235:     EUSART_Write(pacoteTRX[ 2]);
  4168  065A  0021               	movlb	1	; select bank1
  4169  065B  0842               	movf	(_pacoteTRX^(0+128)+2),w	;volatile
  4170  065C  318E  2638  3186   	fcall	_EUSART_Write
  4171                           
  4172                           ;main.c: 236:     EUSART_Write(pacoteTRX[ 3]);
  4173  065F  0021               	movlb	1	; select bank1
  4174  0660  0843               	movf	(_pacoteTRX^(0+128)+3),w	;volatile
  4175  0661  318E  2638  3186   	fcall	_EUSART_Write
  4176                           
  4177                           ;main.c: 237:     EUSART_Write(pacoteTRX[ 4]);
  4178  0664  0021               	movlb	1	; select bank1
  4179  0665  0844               	movf	(_pacoteTRX^(0+128)+4),w	;volatile
  4180  0666  318E  2638  3186   	fcall	_EUSART_Write
  4181                           
  4182                           ;main.c: 238:     EUSART_Write(pacoteTRX[ 5]);
  4183  0669  0021               	movlb	1	; select bank1
  4184  066A  0845               	movf	(_pacoteTRX^(0+128)+5),w	;volatile
  4185  066B  318E  2638  3186   	fcall	_EUSART_Write
  4186                           
  4187                           ;main.c: 239:     EUSART_Write(pacoteTRX[ 6]);
  4188  066E  0021               	movlb	1	; select bank1
  4189  066F  0846               	movf	(_pacoteTRX^(0+128)+6),w	;volatile
  4190  0670  318E  2638  3186   	fcall	_EUSART_Write
  4191                           
  4192                           ;main.c: 240:     EUSART_Write(pacoteTRX[ 7]);
  4193  0673  0021               	movlb	1	; select bank1
  4194  0674  0847               	movf	(_pacoteTRX^(0+128)+7),w	;volatile
  4195  0675  318E  2638  3186   	fcall	_EUSART_Write
  4196                           
  4197                           ;main.c: 241:     EUSART_Write(pacoteTRX[ 8]);
  4198  0678  0021               	movlb	1	; select bank1
  4199  0679  0848               	movf	(_pacoteTRX^(0+128)+8),w	;volatile
  4200  067A  318E  2638  3186   	fcall	_EUSART_Write
  4201                           
  4202                           ;main.c: 242:     EUSART_Write(pacoteTRX[ 9]);
  4203  067D  0021               	movlb	1	; select bank1
  4204  067E  0849               	movf	(_pacoteTRX^(0+128)+9),w	;volatile
  4205  067F  318E  2638  3186   	fcall	_EUSART_Write
  4206                           
  4207                           ;main.c: 243:     EUSART_Write(pacoteTRX[10]);
  4208  0682  0021               	movlb	1	; select bank1
  4209  0683  084A               	movf	(_pacoteTRX^(0+128)+10),w	;volatile
  4210  0684  318E  2638  3186   	fcall	_EUSART_Write
  4211                           
  4212                           ;main.c: 244:     EUSART_Write(pacoteTRX[11]);
  4213  0687  0021               	movlb	1	; select bank1
  4214  0688  084B               	movf	(_pacoteTRX^(0+128)+11),w	;volatile
  4215  0689  318E  2638  3186   	fcall	_EUSART_Write
  4216                           
  4217                           ;main.c: 245:     EUSART_Write(pacoteTRX[12]);
  4218  068C  0021               	movlb	1	; select bank1
  4219  068D  084C               	movf	(_pacoteTRX^(0+128)+12),w	;volatile
  4220  068E  318E  2638  3186   	fcall	_EUSART_Write
  4221                           
  4222                           ;main.c: 246:     EUSART_Write(pacoteTRX[13]);
  4223  0691  0021               	movlb	1	; select bank1
  4224  0692  084D               	movf	(_pacoteTRX^(0+128)+13),w	;volatile
  4225  0693  318E  2638  3186   	fcall	_EUSART_Write
  4226                           
  4227                           ;main.c: 248:     EUSART_Write (0x0D);
  4228  0696  300D               	movlw	13
  4229  0697  318E  2638  3186   	fcall	_EUSART_Write
  4230  069A                     l2754:
  4231                           
  4232                           ;main.c: 249:     Espera_TxOk();
  4233  069A  318E  2616  3186   	fcall	_Espera_TxOk
  4234  069D                     l2756:
  4235                           
  4236                           ;main.c: 250:     __nop();
  4237  069D  0000               	nop
  4238  069E                     l2758:
  4239  069E  0022               	movlb	2	; select bank2
  4240  069F  138C               	bcf	12,7	;volatile
  4241  06A0                     l573:
  4242  06A0  0008               	return
  4243  06A1                     __end_of_TX_Lora:
  4244                           
  4245                           	psect	text6
  4246  0EEF                     __ptext6:	
  4247 ;; *************** function _SM_CONFIGRADIO *****************
  4248 ;; Defined at:
  4249 ;;		line 166 in file "main.c"
  4250 ;; Parameters:    Size  Location     Type
  4251 ;;  ch              1    wreg     unsigned char 
  4252 ;; Auto vars:     Size  Location     Type
  4253 ;;  ch              1    0[COMMON] unsigned char 
  4254 ;; Return value:  Size  Location     Type
  4255 ;;                  1    wreg      void 
  4256 ;; Registers used:
  4257 ;;		wreg, fsr0l, fsr0h, fsr1l, fsr1h, status,2, status,0, pclath, cstack
  4258 ;; Tracked objects:
  4259 ;;		On entry : 0/0
  4260 ;;		On exit  : 0/0
  4261 ;;		Unchanged: 0/0
  4262 ;; Data sizes:     COMMON   BANK0   BANK1   BANK2   BANK3   BANK4
  4263 ;;      Params:         0       0       0       0       0       0
  4264 ;;      Locals:         0       0       0       0       0       0
  4265 ;;      Temps:          2       0       0       0       0       0
  4266 ;;      Totals:         2       0       0       0       0       0
  4267 ;;Total ram usage:        2 bytes
  4268 ;; Hardware stack levels used: 1
  4269 ;; Hardware stack levels required when called: 5
  4270 ;; This function calls:
  4271 ;;		_EUSART_Reset
  4272 ;;		_EUSART_Write
  4273 ;; This function is called by:
  4274 ;;		_TX_Lora
  4275 ;;		_main
  4276 ;; This function uses a non-reentrant model
  4277 ;;
  4278                           
  4279                           
  4280                           ;psect for function _SM_CONFIGRADIO
  4281  0EEF                     _SM_CONFIGRADIO:
  4282  0EEF                     l2532:	
  4283                           ;incstack = 0
  4284                           ; Regs used in _SM_CONFIGRADIO: [wreg-fsr1h+status,2+status,0+pclath+cstack]
  4285                           
  4286                           
  4287                           ;main.c: 166: void SM_CONFIGRADIO(uint8_t ch);main.c: 167: {;main.c: 168:     EUSART_Res
      +                          et();
  4288  0EEF  3187  2767  318E   	fcall	_EUSART_Reset
  4289  0EF2                     l2534:
  4290                           
  4291                           ;main.c: 169:     for (loop=0; _CFC22[loop]!=0; loop++) EUSART_Write (_CFC22[loop]);
  4292  0EF2  0024               	movlb	4	; select bank4
  4293  0EF3  01A8               	clrf	_loop^(0+512)
  4294  0EF4  2F05               	goto	l2540
  4295  0EF5                     l2536:
  4296  0EF5  0828               	movf	_loop^(0+512),w
  4297  0EF6  3EF0               	addlw	low (__CFC22| (0+32768))
  4298  0EF7  0084               	movwf	4
  4299  0EF8  3087               	movlw	high (__CFC22| (0+32768))
  4300  0EF9  1803               	skipnc
  4301  0EFA  3E01               	addlw	1
  4302  0EFB  0085               	movwf	5
  4303  0EFC  0800               	movf	0,w	;code access
  4304  0EFD  318E  2638  318E   	fcall	_EUSART_Write
  4305  0F00                     l2538:
  4306  0F00  3001               	movlw	1
  4307  0F01  00F3               	movwf	??_SM_CONFIGRADIO
  4308  0F02  0873               	movf	??_SM_CONFIGRADIO,w
  4309  0F03  0024               	movlb	4	; select bank4
  4310  0F04  07A8               	addwf	_loop^(0+512),f
  4311  0F05                     l2540:
  4312  0F05  0828               	movf	_loop^(0+512),w
  4313  0F06  3EF0               	addlw	low (__CFC22| (0+32768))
  4314  0F07  0084               	movwf	4
  4315  0F08  3087               	movlw	high (__CFC22| (0+32768))
  4316  0F09  1803               	skipnc
  4317  0F0A  3E01               	addlw	1
  4318  0F0B  0085               	movwf	5
  4319  0F0C  0012               	moviw fsr0++
  4320  0F0D  1D03               	btfss	3,2
  4321  0F0E  2F10               	goto	u1351
  4322  0F0F  2F11               	goto	u1350
  4323  0F10                     u1351:
  4324  0F10  2EF5               	goto	l2536
  4325  0F11                     u1350:
  4326  0F11                     l2542:
  4327                           
  4328                           ;main.c: 170:     _delay((unsigned long)((100)*(16000000/4000.0)));
  4329  0F11  3003               	movlw	3
  4330  0F12  00F4               	movwf	??_SM_CONFIGRADIO+1
  4331  0F13  3008               	movlw	8
  4332  0F14  00F3               	movwf	??_SM_CONFIGRADIO
  4333  0F15  3077               	movlw	119
  4334  0F16                     u2437:
  4335  0F16  0B89               	decfsz	9,f
  4336  0F17  2F16               	goto	u2437
  4337  0F18  0BF3               	decfsz	??_SM_CONFIGRADIO,f
  4338  0F19  2F16               	goto	u2437
  4339  0F1A  0BF4               	decfsz	??_SM_CONFIGRADIO+1,f
  4340  0F1B  2F16               	goto	u2437
  4341  0F1C  0000               	nop
  4342  0F1D                     l533:
  4343  0F1D  0008               	return
  4344  0F1E                     __end_of_SM_CONFIGRADIO:
  4345                           
  4346                           	psect	text7
  4347  0EC0                     __ptext7:	
  4348 ;; *************** function _SM_CFOFF *****************
  4349 ;; Defined at:
  4350 ;;		line 178 in file "main.c"
  4351 ;; Parameters:    Size  Location     Type
  4352 ;;		None
  4353 ;; Auto vars:     Size  Location     Type
  4354 ;;		None
  4355 ;; Return value:  Size  Location     Type
  4356 ;;                  1    wreg      void 
  4357 ;; Registers used:
  4358 ;;		wreg, fsr0l, fsr0h, fsr1l, fsr1h, status,2, status,0, pclath, cstack
  4359 ;; Tracked objects:
  4360 ;;		On entry : 0/0
  4361 ;;		On exit  : 0/0
  4362 ;;		Unchanged: 0/0
  4363 ;; Data sizes:     COMMON   BANK0   BANK1   BANK2   BANK3   BANK4
  4364 ;;      Params:         0       0       0       0       0       0
  4365 ;;      Locals:         0       0       0       0       0       0
  4366 ;;      Temps:          2       0       0       0       0       0
  4367 ;;      Totals:         2       0       0       0       0       0
  4368 ;;Total ram usage:        2 bytes
  4369 ;; Hardware stack levels used: 1
  4370 ;; Hardware stack levels required when called: 5
  4371 ;; This function calls:
  4372 ;;		_EUSART_Reset
  4373 ;;		_EUSART_Write
  4374 ;; This function is called by:
  4375 ;;		_TX_Lora
  4376 ;;		_main
  4377 ;; This function uses a non-reentrant model
  4378 ;;
  4379                           
  4380                           
  4381                           ;psect for function _SM_CFOFF
  4382  0EC0                     _SM_CFOFF:
  4383  0EC0                     l2544:	
  4384                           ;incstack = 0
  4385                           ; Regs used in _SM_CFOFF: [wreg-fsr1h+status,2+status,0+pclath+cstack]
  4386                           
  4387                           
  4388                           ;main.c: 180:     EUSART_Reset();
  4389  0EC0  3187  2767  318E   	fcall	_EUSART_Reset
  4390  0EC3                     l2546:
  4391                           
  4392                           ;main.c: 181:     for (loop=0; _CFOFF[loop]!=0; loop++) EUSART_Write (_CFOFF[loop]);
  4393  0EC3  0024               	movlb	4	; select bank4
  4394  0EC4  01A8               	clrf	_loop^(0+512)
  4395  0EC5  2ED6               	goto	l2552
  4396  0EC6                     l2548:
  4397  0EC6  0828               	movf	_loop^(0+512),w
  4398  0EC7  3E51               	addlw	low (__CFOFF| (0+32768))
  4399  0EC8  0084               	movwf	4
  4400  0EC9  3088               	movlw	high (__CFOFF| (0+32768))
  4401  0ECA  1803               	skipnc
  4402  0ECB  3E01               	addlw	1
  4403  0ECC  0085               	movwf	5
  4404  0ECD  0800               	movf	0,w	;code access
  4405  0ECE  318E  2638  318E   	fcall	_EUSART_Write
  4406  0ED1                     l2550:
  4407  0ED1  3001               	movlw	1
  4408  0ED2  00F3               	movwf	??_SM_CFOFF
  4409  0ED3  0873               	movf	??_SM_CFOFF,w
  4410  0ED4  0024               	movlb	4	; select bank4
  4411  0ED5  07A8               	addwf	_loop^(0+512),f
  4412  0ED6                     l2552:
  4413  0ED6  0828               	movf	_loop^(0+512),w
  4414  0ED7  3E51               	addlw	low (__CFOFF| (0+32768))
  4415  0ED8  0084               	movwf	4
  4416  0ED9  3088               	movlw	high (__CFOFF| (0+32768))
  4417  0EDA  1803               	skipnc
  4418  0EDB  3E01               	addlw	1
  4419  0EDC  0085               	movwf	5
  4420  0EDD  0012               	moviw fsr0++
  4421  0EDE  1D03               	btfss	3,2
  4422  0EDF  2EE1               	goto	u1361
  4423  0EE0  2EE2               	goto	u1360
  4424  0EE1                     u1361:
  4425  0EE1  2EC6               	goto	l2548
  4426  0EE2                     u1360:
  4427  0EE2                     l2554:
  4428                           
  4429                           ;main.c: 182:     _delay((unsigned long)((100)*(16000000/4000.0)));
  4430  0EE2  3003               	movlw	3
  4431  0EE3  00F4               	movwf	??_SM_CFOFF+1
  4432  0EE4  3008               	movlw	8
  4433  0EE5  00F3               	movwf	??_SM_CFOFF
  4434  0EE6  3077               	movlw	119
  4435  0EE7                     u2447:
  4436  0EE7  0B89               	decfsz	9,f
  4437  0EE8  2EE7               	goto	u2447
  4438  0EE9  0BF3               	decfsz	??_SM_CFOFF,f
  4439  0EEA  2EE7               	goto	u2447
  4440  0EEB  0BF4               	decfsz	??_SM_CFOFF+1,f
  4441  0EEC  2EE7               	goto	u2447
  4442  0EED  0000               	nop
  4443  0EEE                     l545:
  4444  0EEE  0008               	return
  4445  0EEF                     __end_of_SM_CFOFF:
  4446                           
  4447                           	psect	text8
  4448  0E16                     __ptext8:	
  4449 ;; *************** function _Espera_TxOk *****************
  4450 ;; Defined at:
  4451 ;;		line 145 in file "main.c"
  4452 ;; Parameters:    Size  Location     Type
  4453 ;;		None
  4454 ;; Auto vars:     Size  Location     Type
  4455 ;;		None
  4456 ;; Return value:  Size  Location     Type
  4457 ;;                  1    wreg      unsigned char 
  4458 ;; Registers used:
  4459 ;;		wreg, status,2
  4460 ;; Tracked objects:
  4461 ;;		On entry : 0/0
  4462 ;;		On exit  : 0/0
  4463 ;;		Unchanged: 0/0
  4464 ;; Data sizes:     COMMON   BANK0   BANK1   BANK2   BANK3   BANK4
  4465 ;;      Params:         0       0       0       0       0       0
  4466 ;;      Locals:         0       0       0       0       0       0
  4467 ;;      Temps:          1       0       0       0       0       0
  4468 ;;      Totals:         1       0       0       0       0       0
  4469 ;;Total ram usage:        1 bytes
  4470 ;; Hardware stack levels used: 1
  4471 ;; Hardware stack levels required when called: 4
  4472 ;; This function calls:
  4473 ;;		Nothing
  4474 ;; This function is called by:
  4475 ;;		_TX_Lora
  4476 ;; This function uses a non-reentrant model
  4477 ;;
  4478                           
  4479                           
  4480                           ;psect for function _Espera_TxOk
  4481  0E16                     _Espera_TxOk:
  4482  0E16                     l2512:	
  4483                           ;incstack = 0
  4484                           ; Regs used in _Espera_TxOk: [wreg+status,2]
  4485                           
  4486                           
  4487                           ;main.c: 147:     temp16=0;
  4488  0E16  0023               	movlb	3	; select bank3
  4489  0E17  01E6               	clrf	_temp16^(0+384)
  4490  0E18  01E7               	clrf	(_temp16+1)^(0+384)
  4491                           
  4492                           ;main.c: 148:     while (indice<36)
  4493  0E19  2E31               	goto	l2518
  4494  0E1A                     l2514:
  4495                           
  4496                           ;main.c: 149:     {;main.c: 150:         _delay((unsigned long)((1)*(16000000/4000.0)));
  4497  0E1A  3006               	movlw	6
  4498  0E1B  00F1               	movwf	??_Espera_TxOk
  4499  0E1C  3030               	movlw	48
  4500  0E1D                     u2457:
  4501  0E1D  0B89               	decfsz	9,f
  4502  0E1E  2E1D               	goto	u2457
  4503  0E1F  0BF1               	decfsz	??_Espera_TxOk,f
  4504  0E20  2E1D               	goto	u2457
  4505  0E21  3200               	nop2
  4506                           
  4507                           ;main.c: 151:         if (++temp16>5000)
  4508  0E22  3001               	movlw	1
  4509  0E23  0023               	movlb	3	; select bank3
  4510  0E24  07E6               	addwf	_temp16^(0+384),f
  4511  0E25  3000               	movlw	0
  4512  0E26  3DE7               	addwfc	(_temp16+1)^(0+384),f
  4513  0E27  3013               	movlw	19
  4514  0E28  0267               	subwf	(_temp16+1)^(0+384),w
  4515  0E29  3089               	movlw	137
  4516  0E2A  1903               	skipnz
  4517  0E2B  0266               	subwf	_temp16^(0+384),w
  4518  0E2C  1C03               	skipc
  4519  0E2D  2E2F               	goto	u1321
  4520  0E2E  2E30               	goto	u1320
  4521  0E2F                     u1321:
  4522  0E2F  2E31               	goto	l2518
  4523  0E30                     u1320:
  4524  0E30  2E37               	goto	l520
  4525  0E31                     l2518:
  4526                           
  4527                           ;main.c: 148:     while (indice<36)
  4528  0E31  3024               	movlw	36
  4529  0E32  0279               	subwf	_indice,w	;volatile
  4530  0E33  1C03               	skipc
  4531  0E34  2E36               	goto	u1331
  4532  0E35  2E37               	goto	u1330
  4533  0E36                     u1331:
  4534  0E36  2E1A               	goto	l2514
  4535  0E37                     u1330:
  4536  0E37                     l520:
  4537  0E37  0008               	return
  4538  0E38                     __end_of_Espera_TxOk:
  4539                           
  4540                           	psect	text9
  4541  071C                     __ptext9:	
  4542 ;; *************** function _SM_START *****************
  4543 ;; Defined at:
  4544 ;;		line 191 in file "main.c"
  4545 ;; Parameters:    Size  Location     Type
  4546 ;;		None
  4547 ;; Auto vars:     Size  Location     Type
  4548 ;;		None
  4549 ;; Return value:  Size  Location     Type
  4550 ;;                  1    wreg      unsigned char 
  4551 ;; Registers used:
  4552 ;;		wreg, fsr0l, fsr0h, fsr1l, fsr1h, status,2, status,0, pclath, cstack
  4553 ;; Tracked objects:
  4554 ;;		On entry : 0/0
  4555 ;;		On exit  : 0/0
  4556 ;;		Unchanged: 0/0
  4557 ;; Data sizes:     COMMON   BANK0   BANK1   BANK2   BANK3   BANK4
  4558 ;;      Params:         0       0       0       0       0       0
  4559 ;;      Locals:         0       0       0       0       0       0
  4560 ;;      Temps:          1       0       0       0       0       0
  4561 ;;      Totals:         1       0       0       0       0       0
  4562 ;;Total ram usage:        1 bytes
  4563 ;; Hardware stack levels used: 1
  4564 ;; Hardware stack levels required when called: 6
  4565 ;; This function calls:
  4566 ;;		_EUSART_Reset
  4567 ;;		_ModuloOn
  4568 ;;		_SM_RESET
  4569 ;; This function is called by:
  4570 ;;		_main
  4571 ;; This function uses a non-reentrant model
  4572 ;;
  4573                           
  4574                           
  4575                           ;psect for function _SM_START
  4576  071C                     _SM_START:
  4577  071C                     l2696:	
  4578                           ;incstack = 0
  4579                           ; Regs used in _SM_START: [wreg-fsr1h+status,2+status,0+pclath+cstack]
  4580                           
  4581                           
  4582                           ;main.c: 193:     EUSART_Reset();
  4583  071C  3187  2767  3187   	fcall	_EUSART_Reset
  4584  071F                     l2698:
  4585                           
  4586                           ;main.c: 194:     ModuloOn();
  4587  071F  318F  271E  3187   	fcall	_ModuloOn
  4588  0722                     l2700:
  4589                           
  4590                           ;main.c: 195:     __nop();
  4591  0722  0000               	nop
  4592  0723                     l2702:
  4593                           
  4594                           ;main.c: 196:     temp8=0;
  4595  0723  0024               	movlb	4	; select bank4
  4596  0724  01A3               	clrf	_temp8^(0+512)
  4597                           
  4598                           ;main.c: 197:     while (temp8<3)
  4599  0725  2F5F               	goto	l2724
  4600  0726                     l2704:
  4601                           
  4602                           ;main.c: 198:     {;main.c: 199:         SM_RESET();
  4603  0726  318E  2691  3187   	fcall	_SM_RESET
  4604  0729                     l2706:
  4605                           
  4606                           ;main.c: 200:         temp16=0;
  4607  0729  0023               	movlb	3	; select bank3
  4608  072A  01E6               	clrf	_temp16^(0+384)
  4609  072B  01E7               	clrf	(_temp16+1)^(0+384)
  4610                           
  4611                           ;main.c: 201:         while (TotalSerial<185)
  4612  072C  2F44               	goto	l2712
  4613  072D                     l2708:
  4614                           
  4615                           ;main.c: 202:         {;main.c: 203:             _delay((unsigned long)((1)*(16000000/40
      +                          00.0)));
  4616  072D  3006               	movlw	6
  4617  072E  00F5               	movwf	??_SM_START
  4618  072F  3030               	movlw	48
  4619  0730                     u2467:
  4620  0730  0B89               	decfsz	9,f
  4621  0731  2F30               	goto	u2467
  4622  0732  0BF5               	decfsz	??_SM_START,f
  4623  0733  2F30               	goto	u2467
  4624  0734  3200               	nop2
  4625                           
  4626                           ;main.c: 204:             if (++temp16>5000)
  4627  0735  3001               	movlw	1
  4628  0736  0023               	movlb	3	; select bank3
  4629  0737  07E6               	addwf	_temp16^(0+384),f
  4630  0738  3000               	movlw	0
  4631  0739  3DE7               	addwfc	(_temp16+1)^(0+384),f
  4632  073A  3013               	movlw	19
  4633  073B  0267               	subwf	(_temp16+1)^(0+384),w
  4634  073C  3089               	movlw	137
  4635  073D  1903               	skipnz
  4636  073E  0266               	subwf	_temp16^(0+384),w
  4637  073F  1C03               	skipc
  4638  0740  2F42               	goto	u1431
  4639  0741  2F43               	goto	u1430
  4640  0742                     u1431:
  4641  0742  2F44               	goto	l2712
  4642  0743                     u1430:
  4643  0743  2F4E               	goto	l2714
  4644  0744                     l2712:
  4645                           
  4646                           ;main.c: 201:         while (TotalSerial<185)
  4647  0744  3000               	movlw	0
  4648  0745  0020               	movlb	0	; select bank0
  4649  0746  0267               	subwf	_TotalSerial+1,w	;volatile
  4650  0747  30B9               	movlw	185
  4651  0748  1903               	skipnz
  4652  0749  0266               	subwf	_TotalSerial,w	;volatile
  4653  074A  1C03               	skipc
  4654  074B  2F4D               	goto	u1441
  4655  074C  2F4E               	goto	u1440
  4656  074D                     u1441:
  4657  074D  2F2D               	goto	l2708
  4658  074E                     u1440:
  4659  074E                     l2714:
  4660                           
  4661                           ;main.c: 207:         if (TotalSerial>184)
  4662  074E  3000               	movlw	0
  4663  074F  0020               	movlb	0	; select bank0
  4664  0750  0267               	subwf	_TotalSerial+1,w	;volatile
  4665  0751  30B9               	movlw	185
  4666  0752  1903               	skipnz
  4667  0753  0266               	subwf	_TotalSerial,w	;volatile
  4668  0754  1C03               	skipc
  4669  0755  2F57               	goto	u1451
  4670  0756  2F58               	goto	u1450
  4671  0757                     u1451:
  4672  0757  2F5A               	goto	l2722
  4673  0758                     u1450:
  4674  0758                     l2716:
  4675                           
  4676                           ;main.c: 208:             return fSM_OK;
  4677  0758  3001               	movlw	1
  4678  0759  2F66               	goto	l561
  4679  075A                     l2722:
  4680                           
  4681                           ;main.c: 210:             temp8++;
  4682  075A  3001               	movlw	1
  4683  075B  00F5               	movwf	??_SM_START
  4684  075C  0875               	movf	??_SM_START,w
  4685  075D  0024               	movlb	4	; select bank4
  4686  075E  07A3               	addwf	_temp8^(0+512),f
  4687  075F                     l2724:
  4688                           
  4689                           ;main.c: 197:     while (temp8<3)
  4690  075F  3003               	movlw	3
  4691  0760  0223               	subwf	_temp8^(0+512),w
  4692  0761  1C03               	skipc
  4693  0762  2F64               	goto	u1461
  4694  0763  2F65               	goto	u1460
  4695  0764                     u1461:
  4696  0764  2F26               	goto	l2704
  4697  0765                     u1460:
  4698  0765                     l2726:
  4699                           
  4700                           ;main.c: 212:     return fSM_TOUT;
  4701  0765  3003               	movlw	3
  4702  0766                     l561:
  4703  0766  0008               	return
  4704  0767                     __end_of_SM_START:
  4705                           
  4706                           	psect	text10
  4707  0E91                     __ptext10:	
  4708 ;; *************** function _SM_RESET *****************
  4709 ;; Defined at:
  4710 ;;		line 160 in file "main.c"
  4711 ;; Parameters:    Size  Location     Type
  4712 ;;		None
  4713 ;; Auto vars:     Size  Location     Type
  4714 ;;		None
  4715 ;; Return value:  Size  Location     Type
  4716 ;;                  1    wreg      void 
  4717 ;; Registers used:
  4718 ;;		wreg, fsr0l, fsr0h, fsr1l, fsr1h, status,2, status,0, pclath, cstack
  4719 ;; Tracked objects:
  4720 ;;		On entry : 0/0
  4721 ;;		On exit  : 0/0
  4722 ;;		Unchanged: 0/0
  4723 ;; Data sizes:     COMMON   BANK0   BANK1   BANK2   BANK3   BANK4
  4724 ;;      Params:         0       0       0       0       0       0
  4725 ;;      Locals:         0       0       0       0       0       0
  4726 ;;      Temps:          2       0       0       0       0       0
  4727 ;;      Totals:         2       0       0       0       0       0
  4728 ;;Total ram usage:        2 bytes
  4729 ;; Hardware stack levels used: 1
  4730 ;; Hardware stack levels required when called: 5
  4731 ;; This function calls:
  4732 ;;		_EUSART_Reset
  4733 ;;		_EUSART_Write
  4734 ;; This function is called by:
  4735 ;;		_SM_START
  4736 ;; This function uses a non-reentrant model
  4737 ;;
  4738                           
  4739                           
  4740                           ;psect for function _SM_RESET
  4741  0E91                     _SM_RESET:
  4742  0E91                     l2520:	
  4743                           ;incstack = 0
  4744                           ; Regs used in _SM_RESET: [wreg-fsr1h+status,2+status,0+pclath+cstack]
  4745                           
  4746                           
  4747                           ;main.c: 162:     EUSART_Reset();
  4748  0E91  3187  2767  318E   	fcall	_EUSART_Reset
  4749  0E94                     l2522:
  4750                           
  4751                           ;main.c: 163:     for (loop=0; _RESET[loop]!=0; loop++) EUSART_Write (_RESET[loop]);
  4752  0E94  0024               	movlb	4	; select bank4
  4753  0E95  01A8               	clrf	_loop^(0+512)
  4754  0E96  2EA7               	goto	l2528
  4755  0E97                     l2524:
  4756  0E97  0828               	movf	_loop^(0+512),w
  4757  0E98  3E5A               	addlw	low (__RESET| (0+32768))
  4758  0E99  0084               	movwf	4
  4759  0E9A  3088               	movlw	high (__RESET| (0+32768))
  4760  0E9B  1803               	skipnc
  4761  0E9C  3E01               	addlw	1
  4762  0E9D  0085               	movwf	5
  4763  0E9E  0800               	movf	0,w	;code access
  4764  0E9F  318E  2638  318E   	fcall	_EUSART_Write
  4765  0EA2                     l2526:
  4766  0EA2  3001               	movlw	1
  4767  0EA3  00F3               	movwf	??_SM_RESET
  4768  0EA4  0873               	movf	??_SM_RESET,w
  4769  0EA5  0024               	movlb	4	; select bank4
  4770  0EA6  07A8               	addwf	_loop^(0+512),f
  4771  0EA7                     l2528:
  4772  0EA7  0828               	movf	_loop^(0+512),w
  4773  0EA8  3E5A               	addlw	low (__RESET| (0+32768))
  4774  0EA9  0084               	movwf	4
  4775  0EAA  3088               	movlw	high (__RESET| (0+32768))
  4776  0EAB  1803               	skipnc
  4777  0EAC  3E01               	addlw	1
  4778  0EAD  0085               	movwf	5
  4779  0EAE  0012               	moviw fsr0++
  4780  0EAF  1D03               	btfss	3,2
  4781  0EB0  2EB2               	goto	u1341
  4782  0EB1  2EB3               	goto	u1340
  4783  0EB2                     u1341:
  4784  0EB2  2E97               	goto	l2524
  4785  0EB3                     u1340:
  4786  0EB3                     l2530:
  4787                           
  4788                           ;main.c: 164:     _delay((unsigned long)((100)*(16000000/4000.0)));
  4789  0EB3  3003               	movlw	3
  4790  0EB4  00F4               	movwf	??_SM_RESET+1
  4791  0EB5  3008               	movlw	8
  4792  0EB6  00F3               	movwf	??_SM_RESET
  4793  0EB7  3077               	movlw	119
  4794  0EB8                     u2477:
  4795  0EB8  0B89               	decfsz	9,f
  4796  0EB9  2EB8               	goto	u2477
  4797  0EBA  0BF3               	decfsz	??_SM_RESET,f
  4798  0EBB  2EB8               	goto	u2477
  4799  0EBC  0BF4               	decfsz	??_SM_RESET+1,f
  4800  0EBD  2EB8               	goto	u2477
  4801  0EBE  0000               	nop
  4802  0EBF                     l527:
  4803  0EBF  0008               	return
  4804  0EC0                     __end_of_SM_RESET:
  4805                           
  4806                           	psect	text11
  4807  0F1E                     __ptext11:	
  4808 ;; *************** function _ModuloOn *****************
  4809 ;; Defined at:
  4810 ;;		line 99 in file "main.c"
  4811 ;; Parameters:    Size  Location     Type
  4812 ;;		None
  4813 ;; Auto vars:     Size  Location     Type
  4814 ;;		None
  4815 ;; Return value:  Size  Location     Type
  4816 ;;                  1    wreg      void 
  4817 ;; Registers used:
  4818 ;;		wreg
  4819 ;; Tracked objects:
  4820 ;;		On entry : 0/0
  4821 ;;		On exit  : 0/0
  4822 ;;		Unchanged: 0/0
  4823 ;; Data sizes:     COMMON   BANK0   BANK1   BANK2   BANK3   BANK4
  4824 ;;      Params:         0       0       0       0       0       0
  4825 ;;      Locals:         0       0       0       0       0       0
  4826 ;;      Temps:          2       0       0       0       0       0
  4827 ;;      Totals:         2       0       0       0       0       0
  4828 ;;Total ram usage:        2 bytes
  4829 ;; Hardware stack levels used: 1
  4830 ;; Hardware stack levels required when called: 4
  4831 ;; This function calls:
  4832 ;;		Nothing
  4833 ;; This function is called by:
  4834 ;;		_SM_START
  4835 ;;		_TX_Lora
  4836 ;; This function uses a non-reentrant model
  4837 ;;
  4838                           
  4839                           
  4840                           ;psect for function _ModuloOn
  4841  0F1E                     _ModuloOn:
  4842  0F1E                     l472:	
  4843                           ;incstack = 0
  4844                           ; Regs used in _ModuloOn: [wreg]
  4845                           ;main.c: 101:     do { LATBbits.LATB3 = 0; } while(0); _delay((unsigned long)((10)*(1600
      +                          0000/4000.0)));
  4846                           
  4847  0F1E  0022               	movlb	2	; select bank2
  4848  0F1F  118D               	bcf	13,3	;volatile
  4849  0F20                     l2486:
  4850  0F20  3034               	movlw	52
  4851  0F21  00F1               	movwf	??_ModuloOn
  4852  0F22  30F2               	movlw	242
  4853  0F23                     u2487:
  4854  0F23  0B89               	decfsz	9,f
  4855  0F24  2F23               	goto	u2487
  4856  0F25  0BF1               	decfsz	??_ModuloOn,f
  4857  0F26  2F23               	goto	u2487
  4858  0F27                     l2488:
  4859  0F27  0021               	movlb	1	; select bank1
  4860  0F28  118D               	bcf	13,3	;volatile
  4861  0F29                     l475:
  4862  0F29  3034               	movlw	52
  4863  0F2A  00F1               	movwf	??_ModuloOn
  4864  0F2B  30F2               	movlw	242
  4865  0F2C                     u2497:
  4866  0F2C  0B89               	decfsz	9,f
  4867  0F2D  2F2C               	goto	u2497
  4868  0F2E  0BF1               	decfsz	??_ModuloOn,f
  4869  0F2F  2F2C               	goto	u2497
  4870                           
  4871                           ;main.c: 103:     _delay((unsigned long)((500)*(16000000/4000.0)));
  4872  0F30  300B               	movlw	11
  4873  0F31  00F2               	movwf	??_ModuloOn+1
  4874  0F32  3026               	movlw	38
  4875  0F33  00F1               	movwf	??_ModuloOn
  4876  0F34  305E               	movlw	94
  4877  0F35                     u2507:
  4878  0F35  0B89               	decfsz	9,f
  4879  0F36  2F35               	goto	u2507
  4880  0F37  0BF1               	decfsz	??_ModuloOn,f
  4881  0F38  2F35               	goto	u2507
  4882  0F39  0BF2               	decfsz	??_ModuloOn+1,f
  4883  0F3A  2F35               	goto	u2507
  4884  0F3B                     l2490:
  4885                           
  4886                           ;main.c: 104:     __nop(); __nop(); __nop(); __nop();
  4887  0F3B  0000               	nop
  4888  0F3C                     l2492:
  4889  0F3C  0000               	nop
  4890  0F3D                     l2494:
  4891  0F3D  0000               	nop
  4892  0F3E                     l2496:
  4893  0F3E  0000               	nop
  4894  0F3F                     l2498:
  4895  0F3F  0022               	movlb	2	; select bank2
  4896  0F40  158D               	bsf	13,3	;volatile
  4897  0F41                     l2500:
  4898                           
  4899                           ;main.c: 106:     __nop(); __nop(); __nop(); __nop();
  4900  0F41  0000               	nop
  4901  0F42                     l2502:
  4902  0F42  0000               	nop
  4903  0F43                     l2504:
  4904  0F43  0000               	nop
  4905  0F44                     l2506:
  4906  0F44  0000               	nop
  4907                           
  4908                           ;main.c: 107:     _delay((unsigned long)((1000)*(16000000/4000.0)));
  4909  0F45  3015               	movlw	21
  4910  0F46  00F2               	movwf	??_ModuloOn+1
  4911  0F47  304B               	movlw	75
  4912  0F48  00F1               	movwf	??_ModuloOn
  4913  0F49  30BE               	movlw	190
  4914  0F4A                     u2517:
  4915  0F4A  0B89               	decfsz	9,f
  4916  0F4B  2F4A               	goto	u2517
  4917  0F4C  0BF1               	decfsz	??_ModuloOn,f
  4918  0F4D  2F4A               	goto	u2517
  4919  0F4E  0BF2               	decfsz	??_ModuloOn+1,f
  4920  0F4F  2F4A               	goto	u2517
  4921  0F50  3200               	nop2
  4922  0F51                     l478:
  4923  0F51  0008               	return
  4924  0F52                     __end_of_ModuloOn:
  4925                           
  4926                           	psect	text12
  4927  0E62                     __ptext12:	
  4928 ;; *************** function _SM_MODORX *****************
  4929 ;; Defined at:
  4930 ;;		line 172 in file "main.c"
  4931 ;; Parameters:    Size  Location     Type
  4932 ;;  ch              1    wreg     unsigned char 
  4933 ;; Auto vars:     Size  Location     Type
  4934 ;;  ch              1    0[COMMON] unsigned char 
  4935 ;; Return value:  Size  Location     Type
  4936 ;;                  1    wreg      void 
  4937 ;; Registers used:
  4938 ;;		wreg, fsr0l, fsr0h, fsr1l, fsr1h, status,2, status,0, pclath, cstack
  4939 ;; Tracked objects:
  4940 ;;		On entry : 0/0
  4941 ;;		On exit  : 0/0
  4942 ;;		Unchanged: 0/0
  4943 ;; Data sizes:     COMMON   BANK0   BANK1   BANK2   BANK3   BANK4
  4944 ;;      Params:         0       0       0       0       0       0
  4945 ;;      Locals:         0       0       0       0       0       0
  4946 ;;      Temps:          2       0       0       0       0       0
  4947 ;;      Totals:         2       0       0       0       0       0
  4948 ;;Total ram usage:        2 bytes
  4949 ;; Hardware stack levels used: 1
  4950 ;; Hardware stack levels required when called: 5
  4951 ;; This function calls:
  4952 ;;		_EUSART_Reset
  4953 ;;		_EUSART_Write
  4954 ;; This function is called by:
  4955 ;;		_main
  4956 ;; This function uses a non-reentrant model
  4957 ;;
  4958                           
  4959                           
  4960                           ;psect for function _SM_MODORX
  4961  0E62                     _SM_MODORX:
  4962  0E62                     l2684:	
  4963                           ;incstack = 0
  4964                           ; Regs used in _SM_MODORX: [wreg-fsr1h+status,2+status,0+pclath+cstack]
  4965                           
  4966                           
  4967                           ;main.c: 172: void SM_MODORX(uint8_t ch);main.c: 173: {;main.c: 174:     EUSART_Reset();
  4968  0E62  3187  2767  318E   	fcall	_EUSART_Reset
  4969  0E65                     l2686:
  4970                           
  4971                           ;main.c: 175:     for (loop=0; _RXC22[loop]!=0; loop++) EUSART_Write (_RXC22[loop]);
  4972  0E65  0024               	movlb	4	; select bank4
  4973  0E66  01A8               	clrf	_loop^(0+512)
  4974  0E67  2E78               	goto	l2692
  4975  0E68                     l2688:
  4976  0E68  0828               	movf	_loop^(0+512),w
  4977  0E69  3E2B               	addlw	low (__RXC22| (0+32768))
  4978  0E6A  0084               	movwf	4
  4979  0E6B  3088               	movlw	high (__RXC22| (0+32768))
  4980  0E6C  1803               	skipnc
  4981  0E6D  3E01               	addlw	1
  4982  0E6E  0085               	movwf	5
  4983  0E6F  0800               	movf	0,w	;code access
  4984  0E70  318E  2638  318E   	fcall	_EUSART_Write
  4985  0E73                     l2690:
  4986  0E73  3001               	movlw	1
  4987  0E74  00F3               	movwf	??_SM_MODORX
  4988  0E75  0873               	movf	??_SM_MODORX,w
  4989  0E76  0024               	movlb	4	; select bank4
  4990  0E77  07A8               	addwf	_loop^(0+512),f
  4991  0E78                     l2692:
  4992  0E78  0828               	movf	_loop^(0+512),w
  4993  0E79  3E2B               	addlw	low (__RXC22| (0+32768))
  4994  0E7A  0084               	movwf	4
  4995  0E7B  3088               	movlw	high (__RXC22| (0+32768))
  4996  0E7C  1803               	skipnc
  4997  0E7D  3E01               	addlw	1
  4998  0E7E  0085               	movwf	5
  4999  0E7F  0012               	moviw fsr0++
  5000  0E80  1D03               	btfss	3,2
  5001  0E81  2E83               	goto	u1421
  5002  0E82  2E84               	goto	u1420
  5003  0E83                     u1421:
  5004  0E83  2E68               	goto	l2688
  5005  0E84                     u1420:
  5006  0E84                     l2694:
  5007                           
  5008                           ;main.c: 176:     _delay((unsigned long)((100)*(16000000/4000.0)));
  5009  0E84  3003               	movlw	3
  5010  0E85  00F4               	movwf	??_SM_MODORX+1
  5011  0E86  3008               	movlw	8
  5012  0E87  00F3               	movwf	??_SM_MODORX
  5013  0E88  3077               	movlw	119
  5014  0E89                     u2527:
  5015  0E89  0B89               	decfsz	9,f
  5016  0E8A  2E89               	goto	u2527
  5017  0E8B  0BF3               	decfsz	??_SM_MODORX,f
  5018  0E8C  2E89               	goto	u2527
  5019  0E8D  0BF4               	decfsz	??_SM_MODORX+1,f
  5020  0E8E  2E89               	goto	u2527
  5021  0E8F  0000               	nop
  5022  0E90                     l539:
  5023  0E90  0008               	return
  5024  0E91                     __end_of_SM_MODORX:
  5025                           
  5026                           	psect	text13
  5027  0E38                     __ptext13:	
  5028 ;; *************** function _EUSART_Write *****************
  5029 ;; Defined at:
  5030 ;;		line 161 in file "mcc_generated_files/eusart.c"
  5031 ;; Parameters:    Size  Location     Type
  5032 ;;  txData          1    wreg     unsigned char 
  5033 ;; Auto vars:     Size  Location     Type
  5034 ;;  txData          1    2[COMMON] unsigned char 
  5035 ;; Return value:  Size  Location     Type
  5036 ;;                  1    wreg      void 
  5037 ;; Registers used:
  5038 ;;		wreg, fsr1l, fsr1h, status,2, status,0
  5039 ;; Tracked objects:
  5040 ;;		On entry : 0/0
  5041 ;;		On exit  : 0/0
  5042 ;;		Unchanged: 0/0
  5043 ;; Data sizes:     COMMON   BANK0   BANK1   BANK2   BANK3   BANK4
  5044 ;;      Params:         0       0       0       0       0       0
  5045 ;;      Locals:         1       0       0       0       0       0
  5046 ;;      Temps:          1       0       0       0       0       0
  5047 ;;      Totals:         2       0       0       0       0       0
  5048 ;;Total ram usage:        2 bytes
  5049 ;; Hardware stack levels used: 1
  5050 ;; Hardware stack levels required when called: 4
  5051 ;; This function calls:
  5052 ;;		Nothing
  5053 ;; This function is called by:
  5054 ;;		_SM_RESET
  5055 ;;		_SM_CONFIGRADIO
  5056 ;;		_SM_MODORX
  5057 ;;		_SM_CFOFF
  5058 ;;		_TX_Lora
  5059 ;;		_main
  5060 ;;		_SM_PING
  5061 ;; This function uses a non-reentrant model
  5062 ;;
  5063                           
  5064                           
  5065                           ;psect for function _EUSART_Write
  5066  0E38                     _EUSART_Write:
  5067                           
  5068                           ;incstack = 0
  5069                           ; Regs used in _EUSART_Write: [wreg+fsr1l+fsr1h+status,2+status,0]
  5070                           ;EUSART_Write@txData stored from wreg
  5071  0E38  00F2               	movwf	EUSART_Write@txData
  5072  0E39                     l2352:
  5073                           
  5074                           ;mcc_generated_files/eusart.c: 161: void EUSART_Write(uint8_t txData);mcc_generated_file
      +                          s/eusart.c: 162: {;mcc_generated_files/eusart.c: 163:     while(0 == eusartTxBufferRemai
      +                          ning)
  5075  0E39  2E3B               	goto	l2354
  5076  0E3A                     l169:
  5077  0E3A  0064               	clrwdt	;# 
  5078  0E3B                     l2354:
  5079                           
  5080                           ;mcc_generated_files/eusart.c: 163:     while(0 == eusartTxBufferRemaining)
  5081  0E3B  0021               	movlb	1	; select bank1
  5082  0E3C  0869               	movf	_eusartTxBufferRemaining^(0+128),w	;volatile
  5083  0E3D  1903               	btfsc	3,2
  5084  0E3E  2E40               	goto	u1021
  5085  0E3F  2E41               	goto	u1020
  5086  0E40                     u1021:
  5087  0E40  2E3A               	goto	l169
  5088  0E41                     u1020:
  5089  0E41                     l170:
  5090                           
  5091                           ;mcc_generated_files/eusart.c: 168:     if(0 == PIE1bits.TXIE)
  5092  0E41  1A11               	btfsc	17,4	;volatile
  5093  0E42  2E44               	goto	u1031
  5094  0E43  2E45               	goto	u1030
  5095  0E44                     u1031:
  5096  0E44  2E49               	goto	l171
  5097  0E45                     u1030:
  5098  0E45                     l2356:
  5099                           
  5100                           ;mcc_generated_files/eusart.c: 169:     {;mcc_generated_files/eusart.c: 170:         TXR
      +                          EG = txData;
  5101  0E45  0872               	movf	EUSART_Write@txData,w
  5102  0E46  0023               	movlb	3	; select bank3
  5103  0E47  009A               	movwf	26	;volatile
  5104                           
  5105                           ;mcc_generated_files/eusart.c: 171:     }
  5106  0E48  2E5F               	goto	l2368
  5107  0E49                     l171:	
  5108                           ;mcc_generated_files/eusart.c: 172:     else
  5109                           
  5110                           
  5111                           ;mcc_generated_files/eusart.c: 173:     {;mcc_generated_files/eusart.c: 174:         PIE
      +                          1bits.TXIE = 0;
  5112  0E49  1211               	bcf	17,4	;volatile
  5113  0E4A                     l2358:
  5114                           
  5115                           ;mcc_generated_files/eusart.c: 175:         eusartTxBuffer[eusartTxHead++] = txData;
  5116  0E4A  0872               	movf	EUSART_Write@txData,w
  5117  0E4B  00F1               	movwf	??_EUSART_Write
  5118  0E4C  086B               	movf	_eusartTxHead^(0+128),w
  5119  0E4D  3EA0               	addlw	(low (_eusartTxBuffer| 0))& (0+255)
  5120  0E4E  0086               	movwf	6
  5121  0E4F  0187               	clrf	7
  5122  0E50  0871               	movf	??_EUSART_Write,w
  5123  0E51  0081               	movwf	1
  5124  0E52                     l2360:
  5125  0E52  3001               	movlw	1
  5126  0E53  00F1               	movwf	??_EUSART_Write
  5127  0E54  0871               	movf	??_EUSART_Write,w
  5128  0E55  07EB               	addwf	_eusartTxHead^(0+128),f	;volatile
  5129  0E56                     l2362:
  5130                           
  5131                           ;mcc_generated_files/eusart.c: 176:         if(sizeof(eusartTxBuffer) <= eusartTxHead)
  5132  0E56  3020               	movlw	32
  5133  0E57  026B               	subwf	_eusartTxHead^(0+128),w	;volatile
  5134  0E58  1C03               	skipc
  5135  0E59  2E5B               	goto	u1041
  5136  0E5A  2E5C               	goto	u1040
  5137  0E5B                     u1041:
  5138  0E5B  2E5D               	goto	l2366
  5139  0E5C                     u1040:
  5140  0E5C                     l2364:
  5141                           
  5142                           ;mcc_generated_files/eusart.c: 177:         {;mcc_generated_files/eusart.c: 178:        
      +                               eusartTxHead = 0;
  5143  0E5C  01EB               	clrf	_eusartTxHead^(0+128)	;volatile
  5144  0E5D                     l2366:
  5145                           
  5146                           ;mcc_generated_files/eusart.c: 180:         eusartTxBufferRemaining--;
  5147  0E5D  3001               	movlw	1
  5148  0E5E  02E9               	subwf	_eusartTxBufferRemaining^(0+128),f	;volatile
  5149  0E5F                     l2368:
  5150                           
  5151                           ;mcc_generated_files/eusart.c: 182:     PIE1bits.TXIE = 1;
  5152  0E5F  0021               	movlb	1	; select bank1
  5153  0E60  1611               	bsf	17,4	;volatile
  5154  0E61                     l174:
  5155  0E61  0008               	return
  5156  0E62                     __end_of_EUSART_Write:
  5157                           
  5158                           	psect	text14
  5159  0767                     __ptext14:	
  5160 ;; *************** function _EUSART_Reset *****************
  5161 ;; Defined at:
  5162 ;;		line 59 in file "mcc_generated_files/eusart.c"
  5163 ;; Parameters:    Size  Location     Type
  5164 ;;		None
  5165 ;; Auto vars:     Size  Location     Type
  5166 ;;		None
  5167 ;; Return value:  Size  Location     Type
  5168 ;;                  1    wreg      void 
  5169 ;; Registers used:
  5170 ;;		wreg, fsr1l, fsr1h, status,2, status,0
  5171 ;; Tracked objects:
  5172 ;;		On entry : 0/0
  5173 ;;		On exit  : 0/0
  5174 ;;		Unchanged: 0/0
  5175 ;; Data sizes:     COMMON   BANK0   BANK1   BANK2   BANK3   BANK4
  5176 ;;      Params:         0       0       0       0       0       0
  5177 ;;      Locals:         0       0       0       0       0       0
  5178 ;;      Temps:          1       0       0       0       0       0
  5179 ;;      Totals:         1       0       0       0       0       0
  5180 ;;Total ram usage:        1 bytes
  5181 ;; Hardware stack levels used: 1
  5182 ;; Hardware stack levels required when called: 4
  5183 ;; This function calls:
  5184 ;;		Nothing
  5185 ;; This function is called by:
  5186 ;;		_SM_RESET
  5187 ;;		_SM_CONFIGRADIO
  5188 ;;		_SM_MODORX
  5189 ;;		_SM_CFOFF
  5190 ;;		_SM_START
  5191 ;;		_TX_Lora
  5192 ;;		_main
  5193 ;;		_SM_PING
  5194 ;; This function uses a non-reentrant model
  5195 ;;
  5196                           
  5197                           
  5198                           ;psect for function _EUSART_Reset
  5199  0767                     _EUSART_Reset:
  5200  0767                     l2324:	
  5201                           ;incstack = 0
  5202                           ; Regs used in _EUSART_Reset: [wreg+fsr1l+fsr1h+status,2+status,0]
  5203                           
  5204                           
  5205                           ;mcc_generated_files/eusart.c: 61:     for (indice=0;indice<64;indice++)
  5206  0767  01F9               	clrf	_indice	;volatile
  5207  0768                     l2326:
  5208  0768  3040               	movlw	64
  5209  0769  0279               	subwf	_indice,w	;volatile
  5210  076A  1C03               	skipc
  5211  076B  2F6D               	goto	u1011
  5212  076C  2F6E               	goto	u1010
  5213  076D                     u1011:
  5214  076D  2F6F               	goto	l2330
  5215  076E                     u1010:
  5216  076E  2F85               	goto	l2336
  5217  076F                     l2330:
  5218                           
  5219                           ;mcc_generated_files/eusart.c: 62:     {;mcc_generated_files/eusart.c: 63:         Dados
      +                          Lora[indice]=0x20;
  5220  076F  3020               	movlw	32
  5221  0770  00F1               	movwf	??_EUSART_Reset
  5222  0771  0879               	movf	_indice,w
  5223  0772  3E20               	addlw	(low (_DadosLora| (0+256)))& (0+255)
  5224  0773  0086               	movwf	6
  5225  0774  3001               	movlw	1	; select bank2/3
  5226  0775  0087               	movwf	7
  5227  0776  0871               	movf	??_EUSART_Reset,w
  5228  0777  0081               	movwf	1
  5229                           
  5230                           ;mcc_generated_files/eusart.c: 64:         eusartRxBuffer[indice]=0x20;
  5231  0778  3020               	movlw	32
  5232  0779  00F1               	movwf	??_EUSART_Reset
  5233  077A  0879               	movf	_indice,w
  5234  077B  3E20               	addlw	(low (_eusartRxBuffer| 0))& (0+255)
  5235  077C  0086               	movwf	6
  5236  077D  0187               	clrf	7
  5237  077E  0871               	movf	??_EUSART_Reset,w
  5238  077F  0081               	movwf	1
  5239  0780                     l2332:
  5240                           
  5241                           ;mcc_generated_files/eusart.c: 65:     }
  5242  0780  3001               	movlw	1
  5243  0781  00F1               	movwf	??_EUSART_Reset
  5244  0782  0871               	movf	??_EUSART_Reset,w
  5245  0783  07F9               	addwf	_indice,f	;volatile
  5246  0784  2F68               	goto	l2326
  5247  0785                     l2336:
  5248                           
  5249                           ;mcc_generated_files/eusart.c: 66:     eusartTxBuffer[0]=0x20; eusartTxBuffer[1]=0x20; e
      +                          usartTxBuffer[2]=0x20;
  5250  0785  3020               	movlw	32
  5251  0786  00F1               	movwf	??_EUSART_Reset
  5252  0787  0871               	movf	??_EUSART_Reset,w
  5253  0788  0021               	movlb	1	; select bank1
  5254  0789  00A0               	movwf	_eusartTxBuffer^(0+128)	;volatile
  5255  078A  3020               	movlw	32
  5256  078B  00F1               	movwf	??_EUSART_Reset
  5257  078C  0871               	movf	??_EUSART_Reset,w
  5258  078D  00A1               	movwf	(_eusartTxBuffer^(0+128)+1)	;volatile
  5259  078E  3020               	movlw	32
  5260  078F  00F1               	movwf	??_EUSART_Reset
  5261  0790  0871               	movf	??_EUSART_Reset,w
  5262  0791  00A2               	movwf	(_eusartTxBuffer^(0+128)+2)	;volatile
  5263                           
  5264                           ;mcc_generated_files/eusart.c: 67:     eusartTxBuffer[3]=0x20; eusartTxBuffer[4]=0x20; e
      +                          usartTxBuffer[5]=0x20;
  5265  0792  3020               	movlw	32
  5266  0793  00F1               	movwf	??_EUSART_Reset
  5267  0794  0871               	movf	??_EUSART_Reset,w
  5268  0795  00A3               	movwf	(_eusartTxBuffer^(0+128)+3)	;volatile
  5269  0796  3020               	movlw	32
  5270  0797  00F1               	movwf	??_EUSART_Reset
  5271  0798  0871               	movf	??_EUSART_Reset,w
  5272  0799  00A4               	movwf	(_eusartTxBuffer^(0+128)+4)	;volatile
  5273  079A  3020               	movlw	32
  5274  079B  00F1               	movwf	??_EUSART_Reset
  5275  079C  0871               	movf	??_EUSART_Reset,w
  5276  079D  00A5               	movwf	(_eusartTxBuffer^(0+128)+5)	;volatile
  5277                           
  5278                           ;mcc_generated_files/eusart.c: 68:     eusartTxBuffer[6]=0x20; eusartTxBuffer[7]=0x20;
  5279  079E  3020               	movlw	32
  5280  079F  00F1               	movwf	??_EUSART_Reset
  5281  07A0  0871               	movf	??_EUSART_Reset,w
  5282  07A1  00A6               	movwf	(_eusartTxBuffer^(0+128)+6)	;volatile
  5283  07A2  3020               	movlw	32
  5284  07A3  00F1               	movwf	??_EUSART_Reset
  5285  07A4  0871               	movf	??_EUSART_Reset,w
  5286  07A5  00A7               	movwf	(_eusartTxBuffer^(0+128)+7)	;volatile
  5287  07A6                     l2338:
  5288                           
  5289                           ;mcc_generated_files/eusart.c: 69:     indice=0;
  5290  07A6  01F9               	clrf	_indice	;volatile
  5291  07A7                     l2340:
  5292                           
  5293                           ;mcc_generated_files/eusart.c: 70:     TotalSerial=0;
  5294  07A7  0020               	movlb	0	; select bank0
  5295  07A8  01E6               	clrf	_TotalSerial	;volatile
  5296  07A9  01E7               	clrf	_TotalSerial+1	;volatile
  5297  07AA                     l2342:
  5298                           
  5299                           ;mcc_generated_files/eusart.c: 71:     fOK=0; fATerr=0;
  5300  07AA  01EF               	clrf	_fOK	;volatile
  5301  07AB                     l2344:
  5302  07AB  01EE               	clrf	_fATerr	;volatile
  5303  07AC                     l2346:
  5304                           
  5305                           ;mcc_generated_files/eusart.c: 72:     fBusy=0;fParm=0;fTxOk=0;
  5306  07AC  01ED               	clrf	_fBusy	;volatile
  5307  07AD                     l2348:
  5308  07AD  01EC               	clrf	_fParm	;volatile
  5309  07AE                     l2350:
  5310  07AE  0021               	movlb	1	; select bank1
  5311  07AF  01EF               	clrf	_fTxOk^(0+128)	;volatile
  5312  07B0                     l143:
  5313  07B0  0008               	return
  5314  07B1                     __end_of_EUSART_Reset:
  5315                           
  5316                           	psect	text15
  5317  0DBD                     __ptext15:	
  5318 ;; *************** function _PIN_MANAGER_Initialize *****************
  5319 ;; Defined at:
  5320 ;;		line 55 in file "mcc_generated_files/pin_manager.c"
  5321 ;; Parameters:    Size  Location     Type
  5322 ;;		None
  5323 ;; Auto vars:     Size  Location     Type
  5324 ;;		None
  5325 ;; Return value:  Size  Location     Type
  5326 ;;                  1    wreg      void 
  5327 ;; Registers used:
  5328 ;;		wreg, status,2
  5329 ;; Tracked objects:
  5330 ;;		On entry : 0/0
  5331 ;;		On exit  : 0/0
  5332 ;;		Unchanged: 0/0
  5333 ;; Data sizes:     COMMON   BANK0   BANK1   BANK2   BANK3   BANK4
  5334 ;;      Params:         0       0       0       0       0       0
  5335 ;;      Locals:         0       0       0       0       0       0
  5336 ;;      Temps:          0       0       0       0       0       0
  5337 ;;      Totals:         0       0       0       0       0       0
  5338 ;;Total ram usage:        0 bytes
  5339 ;; Hardware stack levels used: 1
  5340 ;; Hardware stack levels required when called: 4
  5341 ;; This function calls:
  5342 ;;		Nothing
  5343 ;; This function is called by:
  5344 ;;		_main
  5345 ;; This function uses a non-reentrant model
  5346 ;;
  5347                           
  5348                           
  5349                           ;psect for function _PIN_MANAGER_Initialize
  5350  0DBD                     _PIN_MANAGER_Initialize:
  5351  0DBD                     l2628:	
  5352                           ;incstack = 0
  5353                           ; Regs used in _PIN_MANAGER_Initialize: [wreg+status,2]
  5354                           
  5355                           
  5356                           ;mcc_generated_files/pin_manager.c: 60:     LATA = 0x00;
  5357  0DBD  0022               	movlb	2	; select bank2
  5358  0DBE  018C               	clrf	12	;volatile
  5359  0DBF                     l2630:
  5360                           
  5361                           ;mcc_generated_files/pin_manager.c: 61:     LATB = 0x08;
  5362  0DBF  3008               	movlw	8
  5363  0DC0  008D               	movwf	13	;volatile
  5364  0DC1                     l2632:
  5365                           
  5366                           ;mcc_generated_files/pin_manager.c: 66:     TRISA = 0x3E;
  5367  0DC1  303E               	movlw	62
  5368  0DC2  0021               	movlb	1	; select bank1
  5369  0DC3  008C               	movwf	12	;volatile
  5370  0DC4                     l2634:
  5371                           
  5372                           ;mcc_generated_files/pin_manager.c: 67:     TRISB = 0xD7;
  5373  0DC4  30D7               	movlw	215
  5374  0DC5  008D               	movwf	13	;volatile
  5375  0DC6                     l2636:
  5376                           
  5377                           ;mcc_generated_files/pin_manager.c: 72:     ANSELB = 0xD2;
  5378  0DC6  30D2               	movlw	210
  5379  0DC7  0023               	movlb	3	; select bank3
  5380  0DC8  008D               	movwf	13	;volatile
  5381                           
  5382                           ;mcc_generated_files/pin_manager.c: 73:     ANSELA = 0x00;
  5383  0DC9  018C               	clrf	12	;volatile
  5384  0DCA                     l2638:
  5385                           
  5386                           ;mcc_generated_files/pin_manager.c: 78:     WPUB = 0x11;
  5387  0DCA  3011               	movlw	17
  5388  0DCB  0024               	movlb	4	; select bank4
  5389  0DCC  008D               	movwf	13	;volatile
  5390  0DCD                     l2640:
  5391                           
  5392                           ;mcc_generated_files/pin_manager.c: 79:     WPUA = 0x00;
  5393  0DCD  018C               	clrf	12	;volatile
  5394  0DCE                     l2642:
  5395                           
  5396                           ;mcc_generated_files/pin_manager.c: 80:     OPTION_REGbits.nWPUEN = 0;
  5397  0DCE  0021               	movlb	1	; select bank1
  5398  0DCF  1395               	bcf	21,7	;volatile
  5399                           
  5400                           ;mcc_generated_files/pin_manager.c: 86:     APFCON0 = 0x80;
  5401  0DD0  3080               	movlw	128
  5402  0DD1  0022               	movlb	2	; select bank2
  5403  0DD2  009D               	movwf	29	;volatile
  5404                           
  5405                           ;mcc_generated_files/pin_manager.c: 87:     APFCON1 = 0x01;
  5406  0DD3  3001               	movlw	1
  5407  0DD4  009E               	movwf	30	;volatile
  5408  0DD5                     l252:
  5409  0DD5  0008               	return
  5410  0DD6                     __end_of_PIN_MANAGER_Initialize:
  5411                           
  5412                           	psect	text16
  5413  0DA3                     __ptext16:	
  5414 ;; *************** function _OSCILLATOR_Initialize *****************
  5415 ;; Defined at:
  5416 ;;		line 60 in file "mcc_generated_files/mcc.c"
  5417 ;; Parameters:    Size  Location     Type
  5418 ;;		None
  5419 ;; Auto vars:     Size  Location     Type
  5420 ;;		None
  5421 ;; Return value:  Size  Location     Type
  5422 ;;                  1    wreg      void 
  5423 ;; Registers used:
  5424 ;;		wreg, status,2
  5425 ;; Tracked objects:
  5426 ;;		On entry : 0/0
  5427 ;;		On exit  : 0/0
  5428 ;;		Unchanged: 0/0
  5429 ;; Data sizes:     COMMON   BANK0   BANK1   BANK2   BANK3   BANK4
  5430 ;;      Params:         0       0       0       0       0       0
  5431 ;;      Locals:         0       0       0       0       0       0
  5432 ;;      Temps:          0       0       0       0       0       0
  5433 ;;      Totals:         0       0       0       0       0       0
  5434 ;;Total ram usage:        0 bytes
  5435 ;; Hardware stack levels used: 1
  5436 ;; Hardware stack levels required when called: 4
  5437 ;; This function calls:
  5438 ;;		Nothing
  5439 ;; This function is called by:
  5440 ;;		_main
  5441 ;; This function uses a non-reentrant model
  5442 ;;
  5443                           
  5444                           
  5445                           ;psect for function _OSCILLATOR_Initialize
  5446  0DA3                     _OSCILLATOR_Initialize:
  5447  0DA3                     l2556:	
  5448                           ;incstack = 0
  5449                           ; Regs used in _OSCILLATOR_Initialize: [wreg+status,2]
  5450                           
  5451                           
  5452                           ;mcc_generated_files/mcc.c: 63:     OSCCON = 0x7A;
  5453  0DA3  307A               	movlw	122
  5454  0DA4  0021               	movlb	1	; select bank1
  5455  0DA5  0099               	movwf	25	;volatile
  5456  0DA6                     l2558:
  5457                           
  5458                           ;mcc_generated_files/mcc.c: 65:     OSCTUNE = 0x00;
  5459  0DA6  0198               	clrf	24	;volatile
  5460  0DA7                     l2560:
  5461                           
  5462                           ;mcc_generated_files/mcc.c: 67:     BORCON = 0x00;
  5463  0DA7  0022               	movlb	2	; select bank2
  5464  0DA8  0196               	clrf	22	;volatile
  5465  0DA9                     l14:
  5466  0DA9  0008               	return
  5467  0DAA                     __end_of_OSCILLATOR_Initialize:
  5468                           
  5469                           	psect	text17
  5470  06A1                     __ptext17:	
  5471 ;; *************** function _ErrCode *****************
  5472 ;; Defined at:
  5473 ;;		line 118 in file "main.c"
  5474 ;; Parameters:    Size  Location     Type
  5475 ;;  code            1    wreg     unsigned char 
  5476 ;; Auto vars:     Size  Location     Type
  5477 ;;  code            1    4[COMMON] unsigned char 
  5478 ;;  qual            1    0        unsigned char 
  5479 ;; Return value:  Size  Location     Type
  5480 ;;                  1    wreg      void 
  5481 ;; Registers used:
  5482 ;;		wreg, status,2, status,0, pclath, cstack
  5483 ;; Tracked objects:
  5484 ;;		On entry : 0/0
  5485 ;;		On exit  : 0/0
  5486 ;;		Unchanged: 0/0
  5487 ;; Data sizes:     COMMON   BANK0   BANK1   BANK2   BANK3   BANK4
  5488 ;;      Params:         0       0       0       0       0       0
  5489 ;;      Locals:         1       0       0       0       0       0
  5490 ;;      Temps:          2       0       0       0       0       0
  5491 ;;      Totals:         3       0       0       0       0       0
  5492 ;;Total ram usage:        3 bytes
  5493 ;; Hardware stack levels used: 1
  5494 ;; Hardware stack levels required when called: 5
  5495 ;; This function calls:
  5496 ;;		_ModuloOff
  5497 ;; This function is called by:
  5498 ;;		_main
  5499 ;; This function uses a non-reentrant model
  5500 ;;
  5501                           
  5502                           
  5503                           ;psect for function _ErrCode
  5504  06A1                     _ErrCode:
  5505                           
  5506                           ;incstack = 0
  5507                           ; Regs used in _ErrCode: [wreg+status,2+status,0+pclath+cstack]
  5508                           ;ErrCode@code stored from wreg
  5509  06A1  00F4               	movwf	ErrCode@code
  5510  06A2                     l2644:
  5511  06A2                     l2646:
  5512                           
  5513                           ;main.c: 121:     __nop();
  5514  06A2  0000               	nop
  5515  06A3                     l2648:
  5516                           
  5517                           ;main.c: 122:     ModuloOff();
  5518  06A3  318D  25AA  3186   	fcall	_ModuloOff
  5519  06A6                     l2650:
  5520  06A6  0022               	movlb	2	; select bank2
  5521  06A7  178C               	bsf	12,7	;volatile
  5522  06A8                     l2652:
  5523  06A8  3006               	movlw	6
  5524  06A9  00F3               	movwf	??_ErrCode+1
  5525  06AA  3013               	movlw	19
  5526  06AB  00F2               	movwf	??_ErrCode
  5527  06AC  30AE               	movlw	174
  5528  06AD                     u2537:
  5529  06AD  0B89               	decfsz	9,f
  5530  06AE  2EAD               	goto	u2537
  5531  06AF  0BF2               	decfsz	??_ErrCode,f
  5532  06B0  2EAD               	goto	u2537
  5533  06B1  0BF3               	decfsz	??_ErrCode+1,f
  5534  06B2  2EAD               	goto	u2537
  5535  06B3                     l2654:
  5536  06B3  0022               	movlb	2	; select bank2
  5537  06B4  138C               	bcf	12,7	;volatile
  5538  06B5                     l2656:
  5539  06B5  3006               	movlw	6
  5540  06B6  00F3               	movwf	??_ErrCode+1
  5541  06B7  3013               	movlw	19
  5542  06B8  00F2               	movwf	??_ErrCode
  5543  06B9  30AE               	movlw	174
  5544  06BA                     u2547:
  5545  06BA  0B89               	decfsz	9,f
  5546  06BB  2EBA               	goto	u2547
  5547  06BC  0BF2               	decfsz	??_ErrCode,f
  5548  06BD  2EBA               	goto	u2547
  5549  06BE  0BF3               	decfsz	??_ErrCode+1,f
  5550  06BF  2EBA               	goto	u2547
  5551  06C0                     l2658:
  5552  06C0  0022               	movlb	2	; select bank2
  5553  06C1  178C               	bsf	12,7	;volatile
  5554  06C2                     l2660:
  5555  06C2  3006               	movlw	6
  5556  06C3  00F3               	movwf	??_ErrCode+1
  5557  06C4  3013               	movlw	19
  5558  06C5  00F2               	movwf	??_ErrCode
  5559  06C6  30AE               	movlw	174
  5560  06C7                     u2557:
  5561  06C7  0B89               	decfsz	9,f
  5562  06C8  2EC7               	goto	u2557
  5563  06C9  0BF2               	decfsz	??_ErrCode,f
  5564  06CA  2EC7               	goto	u2557
  5565  06CB  0BF3               	decfsz	??_ErrCode+1,f
  5566  06CC  2EC7               	goto	u2557
  5567  06CD                     l2662:
  5568  06CD  0022               	movlb	2	; select bank2
  5569  06CE  138C               	bcf	12,7	;volatile
  5570  06CF                     l2664:
  5571  06CF  3006               	movlw	6
  5572  06D0  00F3               	movwf	??_ErrCode+1
  5573  06D1  3013               	movlw	19
  5574  06D2  00F2               	movwf	??_ErrCode
  5575  06D3  30AE               	movlw	174
  5576  06D4                     u2567:
  5577  06D4  0B89               	decfsz	9,f
  5578  06D5  2ED4               	goto	u2567
  5579  06D6  0BF2               	decfsz	??_ErrCode,f
  5580  06D7  2ED4               	goto	u2567
  5581  06D8  0BF3               	decfsz	??_ErrCode+1,f
  5582  06D9  2ED4               	goto	u2567
  5583  06DA                     l2666:
  5584  06DA  0022               	movlb	2	; select bank2
  5585  06DB  170C               	bsf	12,6	;volatile
  5586  06DC                     l2668:
  5587  06DC  3006               	movlw	6
  5588  06DD  00F3               	movwf	??_ErrCode+1
  5589  06DE  3013               	movlw	19
  5590  06DF  00F2               	movwf	??_ErrCode
  5591  06E0  30AE               	movlw	174
  5592  06E1                     u2577:
  5593  06E1  0B89               	decfsz	9,f
  5594  06E2  2EE1               	goto	u2577
  5595  06E3  0BF2               	decfsz	??_ErrCode,f
  5596  06E4  2EE1               	goto	u2577
  5597  06E5  0BF3               	decfsz	??_ErrCode+1,f
  5598  06E6  2EE1               	goto	u2577
  5599  06E7                     l2670:
  5600  06E7  0022               	movlb	2	; select bank2
  5601  06E8  130C               	bcf	12,6	;volatile
  5602  06E9                     l2672:
  5603  06E9  3006               	movlw	6
  5604  06EA  00F3               	movwf	??_ErrCode+1
  5605  06EB  3013               	movlw	19
  5606  06EC  00F2               	movwf	??_ErrCode
  5607  06ED  30AE               	movlw	174
  5608  06EE                     u2587:
  5609  06EE  0B89               	decfsz	9,f
  5610  06EF  2EEE               	goto	u2587
  5611  06F0  0BF2               	decfsz	??_ErrCode,f
  5612  06F1  2EEE               	goto	u2587
  5613  06F2  0BF3               	decfsz	??_ErrCode+1,f
  5614  06F3  2EEE               	goto	u2587
  5615  06F4                     l2674:
  5616  06F4  0022               	movlb	2	; select bank2
  5617  06F5  170C               	bsf	12,6	;volatile
  5618  06F6                     l2676:
  5619  06F6  3006               	movlw	6
  5620  06F7  00F3               	movwf	??_ErrCode+1
  5621  06F8  3013               	movlw	19
  5622  06F9  00F2               	movwf	??_ErrCode
  5623  06FA  30AE               	movlw	174
  5624  06FB                     u2597:
  5625  06FB  0B89               	decfsz	9,f
  5626  06FC  2EFB               	goto	u2597
  5627  06FD  0BF2               	decfsz	??_ErrCode,f
  5628  06FE  2EFB               	goto	u2597
  5629  06FF  0BF3               	decfsz	??_ErrCode+1,f
  5630  0700  2EFB               	goto	u2597
  5631  0701                     l2678:
  5632  0701  0022               	movlb	2	; select bank2
  5633  0702  130C               	bcf	12,6	;volatile
  5634  0703                     l2680:
  5635  0703  3006               	movlw	6
  5636  0704  00F3               	movwf	??_ErrCode+1
  5637  0705  3013               	movlw	19
  5638  0706  00F2               	movwf	??_ErrCode
  5639  0707  30AE               	movlw	174
  5640  0708                     u2607:
  5641  0708  0B89               	decfsz	9,f
  5642  0709  2F08               	goto	u2607
  5643  070A  0BF2               	decfsz	??_ErrCode,f
  5644  070B  2F08               	goto	u2607
  5645  070C  0BF3               	decfsz	??_ErrCode+1,f
  5646  070D  2F08               	goto	u2607
  5647  070E                     l2682:
  5648                           
  5649                           ;main.c: 129:         _delay((unsigned long)((1000)*(16000000/4000.0)));
  5650  070E  3015               	movlw	21
  5651  070F  00F3               	movwf	??_ErrCode+1
  5652  0710  304B               	movlw	75
  5653  0711  00F2               	movwf	??_ErrCode
  5654  0712  30BE               	movlw	190
  5655  0713                     u2617:
  5656  0713  0B89               	decfsz	9,f
  5657  0714  2F13               	goto	u2617
  5658  0715  0BF2               	decfsz	??_ErrCode,f
  5659  0716  2F13               	goto	u2617
  5660  0717  0BF3               	decfsz	??_ErrCode+1,f
  5661  0718  2F13               	goto	u2617
  5662  0719  3200               	nop2
  5663                           
  5664                           ;main.c: 130:     }
  5665  071A  2EA6               	goto	l2650
  5666  071B  0008               	return
  5667  071C                     __end_of_ErrCode:
  5668                           
  5669                           	psect	text18
  5670  0DAA                     __ptext18:	
  5671 ;; *************** function _ModuloOff *****************
  5672 ;; Defined at:
  5673 ;;		line 109 in file "main.c"
  5674 ;; Parameters:    Size  Location     Type
  5675 ;;		None
  5676 ;; Auto vars:     Size  Location     Type
  5677 ;;		None
  5678 ;; Return value:  Size  Location     Type
  5679 ;;                  1    wreg      void 
  5680 ;; Registers used:
  5681 ;;		wreg
  5682 ;; Tracked objects:
  5683 ;;		On entry : 0/0
  5684 ;;		On exit  : 0/0
  5685 ;;		Unchanged: 0/0
  5686 ;; Data sizes:     COMMON   BANK0   BANK1   BANK2   BANK3   BANK4
  5687 ;;      Params:         0       0       0       0       0       0
  5688 ;;      Locals:         0       0       0       0       0       0
  5689 ;;      Temps:          1       0       0       0       0       0
  5690 ;;      Totals:         1       0       0       0       0       0
  5691 ;;Total ram usage:        1 bytes
  5692 ;; Hardware stack levels used: 1
  5693 ;; Hardware stack levels required when called: 4
  5694 ;; This function calls:
  5695 ;;		Nothing
  5696 ;; This function is called by:
  5697 ;;		_ErrCode
  5698 ;;		_main
  5699 ;; This function uses a non-reentrant model
  5700 ;;
  5701                           
  5702                           
  5703                           ;psect for function _ModuloOff
  5704  0DAA                     _ModuloOff:
  5705  0DAA                     l481:	
  5706                           ;incstack = 0
  5707                           ; Regs used in _ModuloOff: [wreg]
  5708                           ;main.c: 111:     do { LATBbits.LATB3 = 0; } while(0); _delay((unsigned long)((10)*(1600
      +                          0000/4000.0)));
  5709                           
  5710  0DAA  0022               	movlb	2	; select bank2
  5711  0DAB  118D               	bcf	13,3	;volatile
  5712  0DAC                     l2508:
  5713  0DAC  3034               	movlw	52
  5714  0DAD  00F1               	movwf	??_ModuloOff
  5715  0DAE  30F2               	movlw	242
  5716  0DAF                     u2627:
  5717  0DAF  0B89               	decfsz	9,f
  5718  0DB0  2DAF               	goto	u2627
  5719  0DB1  0BF1               	decfsz	??_ModuloOff,f
  5720  0DB2  2DAF               	goto	u2627
  5721  0DB3                     l2510:
  5722  0DB3  0021               	movlb	1	; select bank1
  5723  0DB4  118D               	bcf	13,3	;volatile
  5724  0DB5                     l484:
  5725  0DB5  3034               	movlw	52
  5726  0DB6  00F1               	movwf	??_ModuloOff
  5727  0DB7  30F2               	movlw	242
  5728  0DB8                     u2637:
  5729  0DB8  0B89               	decfsz	9,f
  5730  0DB9  2DB8               	goto	u2637
  5731  0DBA  0BF1               	decfsz	??_ModuloOff,f
  5732  0DBB  2DB8               	goto	u2637
  5733  0DBC                     l485:
  5734  0DBC  0008               	return
  5735  0DBD                     __end_of_ModuloOff:
  5736                           
  5737                           	psect	text19
  5738  07B1                     __ptext19:	
  5739 ;; *************** function _EUSART_Initialize *****************
  5740 ;; Defined at:
  5741 ;;		line 75 in file "mcc_generated_files/eusart.c"
  5742 ;; Parameters:    Size  Location     Type
  5743 ;;		None
  5744 ;; Auto vars:     Size  Location     Type
  5745 ;;		None
  5746 ;; Return value:  Size  Location     Type
  5747 ;;                  1    wreg      void 
  5748 ;; Registers used:
  5749 ;;		wreg, status,2, status,0, pclath, cstack
  5750 ;; Tracked objects:
  5751 ;;		On entry : 0/0
  5752 ;;		On exit  : 0/0
  5753 ;;		Unchanged: 0/0
  5754 ;; Data sizes:     COMMON   BANK0   BANK1   BANK2   BANK3   BANK4
  5755 ;;      Params:         0       0       0       0       0       0
  5756 ;;      Locals:         0       0       0       0       0       0
  5757 ;;      Temps:          1       0       0       0       0       0
  5758 ;;      Totals:         1       0       0       0       0       0
  5759 ;;Total ram usage:        1 bytes
  5760 ;; Hardware stack levels used: 1
  5761 ;; Hardware stack levels required when called: 5
  5762 ;; This function calls:
  5763 ;;		_EUSART_SetErrorHandler
  5764 ;;		_EUSART_SetFramingErrorHandler
  5765 ;;		_EUSART_SetOverrunErrorHandler
  5766 ;;		_EUSART_SetRxInterruptHandler
  5767 ;;		_EUSART_SetTxInterruptHandler
  5768 ;; This function is called by:
  5769 ;;		_main
  5770 ;; This function uses a non-reentrant model
  5771 ;;
  5772                           
  5773                           
  5774                           ;psect for function _EUSART_Initialize
  5775  07B1                     _EUSART_Initialize:
  5776  07B1                     l2564:	
  5777                           ;incstack = 0
  5778                           ; Regs used in _EUSART_Initialize: [wreg+status,2+status,0+pclath+cstack]
  5779                           
  5780                           
  5781                           ;mcc_generated_files/eusart.c: 78:     PIE1bits.RCIE = 0;
  5782  07B1  0021               	movlb	1	; select bank1
  5783  07B2  1291               	bcf	17,5	;volatile
  5784  07B3                     l2566:
  5785                           
  5786                           ;mcc_generated_files/eusart.c: 79:     EUSART_SetRxInterruptHandler(EUSART_Receive_ISR);
  5787  07B3  30C2               	movlw	low _EUSART_Receive_ISR
  5788  07B4  00F1               	movwf	EUSART_SetRxInterruptHandler@interruptHandler
  5789  07B5  300F               	movlw	high _EUSART_Receive_ISR
  5790  07B6  00F2               	movwf	EUSART_SetRxInterruptHandler@interruptHandler+1
  5791  07B7  318D  2591  3187   	fcall	_EUSART_SetRxInterruptHandler
  5792  07BA                     l2568:
  5793                           
  5794                           ;mcc_generated_files/eusart.c: 80:     PIE1bits.TXIE = 0;
  5795  07BA  0021               	movlb	1	; select bank1
  5796  07BB  1211               	bcf	17,4	;volatile
  5797                           
  5798                           ;mcc_generated_files/eusart.c: 81:     EUSART_SetTxInterruptHandler(EUSART_Transmit_ISR)
      +                          ;
  5799  07BC  30F5               	movlw	low _EUSART_Transmit_ISR
  5800  07BD  00F1               	movwf	EUSART_SetTxInterruptHandler@interruptHandler
  5801  07BE  300D               	movlw	high _EUSART_Transmit_ISR
  5802  07BF  00F2               	movwf	EUSART_SetTxInterruptHandler@interruptHandler+1
  5803  07C0  318D  2597  3187   	fcall	_EUSART_SetTxInterruptHandler
  5804  07C3                     l2570:
  5805                           
  5806                           ;mcc_generated_files/eusart.c: 85:     BAUDCON = 0x08;
  5807  07C3  3008               	movlw	8
  5808  07C4  0023               	movlb	3	; select bank3
  5809  07C5  009F               	movwf	31	;volatile
  5810  07C6                     l2572:
  5811                           
  5812                           ;mcc_generated_files/eusart.c: 88:     RCSTA = 0x90;
  5813  07C6  3090               	movlw	144
  5814  07C7  009D               	movwf	29	;volatile
  5815  07C8                     l2574:
  5816                           
  5817                           ;mcc_generated_files/eusart.c: 91:     TXSTA = 0x24;
  5818  07C8  3024               	movlw	36
  5819  07C9  009E               	movwf	30	;volatile
  5820  07CA                     l2576:
  5821                           
  5822                           ;mcc_generated_files/eusart.c: 94:     SPBRGL = 0xA0;
  5823  07CA  30A0               	movlw	160
  5824  07CB  009B               	movwf	27	;volatile
  5825  07CC                     l2578:
  5826                           
  5827                           ;mcc_generated_files/eusart.c: 97:     SPBRGH = 0x01;
  5828  07CC  3001               	movlw	1
  5829  07CD  009C               	movwf	28	;volatile
  5830  07CE                     l2580:
  5831                           
  5832                           ;mcc_generated_files/eusart.c: 100:     EUSART_SetFramingErrorHandler(EUSART_DefaultFram
      +                          ingErrorHandler);
  5833  07CE  3003               	movlw	low _EUSART_DefaultFramingErrorHandler
  5834  07CF  00F1               	movwf	EUSART_SetFramingErrorHandler@interruptHandler
  5835  07D0  3000               	movlw	high _EUSART_DefaultFramingErrorHandler
  5836  07D1  00F2               	movwf	EUSART_SetFramingErrorHandler@interruptHandler+1
  5837  07D2  318D  2585  3187   	fcall	_EUSART_SetFramingErrorHandler
  5838  07D5                     l2582:
  5839                           
  5840                           ;mcc_generated_files/eusart.c: 101:     EUSART_SetOverrunErrorHandler(EUSART_DefaultOver
      +                          runErrorHandler);
  5841  07D5  3077               	movlw	low _EUSART_DefaultOverrunErrorHandler
  5842  07D6  00F1               	movwf	EUSART_SetOverrunErrorHandler@interruptHandler
  5843  07D7  300D               	movlw	high _EUSART_DefaultOverrunErrorHandler
  5844  07D8  00F2               	movwf	EUSART_SetOverrunErrorHandler@interruptHandler+1
  5845  07D9  318D  258B  3187   	fcall	_EUSART_SetOverrunErrorHandler
  5846  07DC                     l2584:
  5847                           
  5848                           ;mcc_generated_files/eusart.c: 102:     EUSART_SetErrorHandler(EUSART_DefaultErrorHandle
      +                          r);
  5849  07DC  3073               	movlw	low _EUSART_DefaultErrorHandler
  5850  07DD  00F1               	movwf	EUSART_SetErrorHandler@interruptHandler
  5851  07DE  300D               	movlw	high _EUSART_DefaultErrorHandler
  5852  07DF  00F2               	movwf	EUSART_SetErrorHandler@interruptHandler+1
  5853  07E0  318D  257F  3187   	fcall	_EUSART_SetErrorHandler
  5854  07E3                     l2586:
  5855                           
  5856                           ;mcc_generated_files/eusart.c: 104:     eusartRxLastError.status = 0;
  5857  07E3  0021               	movlb	1	; select bank1
  5858  07E4  01E5               	clrf	_eusartRxLastError^(0+128)	;volatile
  5859  07E5                     l2588:
  5860                           
  5861                           ;mcc_generated_files/eusart.c: 107:     eusartTxHead = 0;
  5862  07E5  01EB               	clrf	_eusartTxHead^(0+128)	;volatile
  5863  07E6                     l2590:
  5864                           
  5865                           ;mcc_generated_files/eusart.c: 108:     eusartTxTail = 0;
  5866  07E6  01EA               	clrf	_eusartTxTail^(0+128)	;volatile
  5867  07E7                     l2592:
  5868                           
  5869                           ;mcc_generated_files/eusart.c: 109:     eusartTxBufferRemaining = sizeof(eusartTxBuffer)
      +                          ;
  5870  07E7  3020               	movlw	32
  5871  07E8  00F3               	movwf	??_EUSART_Initialize
  5872  07E9  0873               	movf	??_EUSART_Initialize,w
  5873  07EA  00E9               	movwf	_eusartTxBufferRemaining^(0+128)	;volatile
  5874                           
  5875                           ;mcc_generated_files/eusart.c: 111:     eusartRxHead = 0;
  5876  07EB  01E8               	clrf	_eusartRxHead^(0+128)	;volatile
  5877                           
  5878                           ;mcc_generated_files/eusart.c: 112:     eusartRxTail = 0;
  5879  07EC  01E7               	clrf	_eusartRxTail^(0+128)	;volatile
  5880                           
  5881                           ;mcc_generated_files/eusart.c: 113:     eusartRxCount = 0;
  5882  07ED  01E6               	clrf	_eusartRxCount^(0+128)	;volatile
  5883  07EE                     l2594:
  5884                           
  5885                           ;mcc_generated_files/eusart.c: 116:     PIE1bits.RCIE = 1;
  5886  07EE  1691               	bsf	17,5	;volatile
  5887  07EF                     l146:
  5888  07EF  0008               	return
  5889  07F0                     __end_of_EUSART_Initialize:
  5890                           
  5891                           	psect	text20
  5892  0D97                     __ptext20:	
  5893 ;; *************** function _EUSART_SetTxInterruptHandler *****************
  5894 ;; Defined at:
  5895 ;;		line 255 in file "mcc_generated_files/eusart.c"
  5896 ;; Parameters:    Size  Location     Type
  5897 ;;  interruptHan    2    1[COMMON] PTR FTN()void 
  5898 ;;		 -> EUSART_Transmit_ISR(1), 
  5899 ;; Auto vars:     Size  Location     Type
  5900 ;;		None
  5901 ;; Return value:  Size  Location     Type
  5902 ;;                  1    wreg      void 
  5903 ;; Registers used:
  5904 ;;		wreg
  5905 ;; Tracked objects:
  5906 ;;		On entry : 0/0
  5907 ;;		On exit  : 0/0
  5908 ;;		Unchanged: 0/0
  5909 ;; Data sizes:     COMMON   BANK0   BANK1   BANK2   BANK3   BANK4
  5910 ;;      Params:         2       0       0       0       0       0
  5911 ;;      Locals:         0       0       0       0       0       0
  5912 ;;      Temps:          0       0       0       0       0       0
  5913 ;;      Totals:         2       0       0       0       0       0
  5914 ;;Total ram usage:        2 bytes
  5915 ;; Hardware stack levels used: 1
  5916 ;; Hardware stack levels required when called: 4
  5917 ;; This function calls:
  5918 ;;		Nothing
  5919 ;; This function is called by:
  5920 ;;		_EUSART_Initialize
  5921 ;; This function uses a non-reentrant model
  5922 ;;
  5923                           
  5924                           
  5925                           ;psect for function _EUSART_SetTxInterruptHandler
  5926  0D97                     _EUSART_SetTxInterruptHandler:
  5927  0D97                     l2474:	
  5928                           ;incstack = 0
  5929                           ; Regs used in _EUSART_SetTxInterruptHandler: [wreg]
  5930                           
  5931                           
  5932                           ;mcc_generated_files/eusart.c: 256:     EUSART_TxDefaultInterruptHandler = interruptHand
      +                          ler;
  5933  0D97  0872               	movf	EUSART_SetTxInterruptHandler@interruptHandler+1,w
  5934  0D98  0020               	movlb	0	; select bank0
  5935  0D99  00EB               	movwf	_EUSART_TxDefaultInterruptHandler+1
  5936  0D9A  0871               	movf	EUSART_SetTxInterruptHandler@interruptHandler,w
  5937  0D9B  00EA               	movwf	_EUSART_TxDefaultInterruptHandler
  5938  0D9C                     l208:
  5939  0D9C  0008               	return
  5940  0D9D                     __end_of_EUSART_SetTxInterruptHandler:
  5941                           
  5942                           	psect	text21
  5943  0D91                     __ptext21:	
  5944 ;; *************** function _EUSART_SetRxInterruptHandler *****************
  5945 ;; Defined at:
  5946 ;;		line 259 in file "mcc_generated_files/eusart.c"
  5947 ;; Parameters:    Size  Location     Type
  5948 ;;  interruptHan    2    1[COMMON] PTR FTN()void 
  5949 ;;		 -> EUSART_Receive_ISR(1), 
  5950 ;; Auto vars:     Size  Location     Type
  5951 ;;		None
  5952 ;; Return value:  Size  Location     Type
  5953 ;;                  1    wreg      void 
  5954 ;; Registers used:
  5955 ;;		wreg
  5956 ;; Tracked objects:
  5957 ;;		On entry : 0/0
  5958 ;;		On exit  : 0/0
  5959 ;;		Unchanged: 0/0
  5960 ;; Data sizes:     COMMON   BANK0   BANK1   BANK2   BANK3   BANK4
  5961 ;;      Params:         2       0       0       0       0       0
  5962 ;;      Locals:         0       0       0       0       0       0
  5963 ;;      Temps:          0       0       0       0       0       0
  5964 ;;      Totals:         2       0       0       0       0       0
  5965 ;;Total ram usage:        2 bytes
  5966 ;; Hardware stack levels used: 1
  5967 ;; Hardware stack levels required when called: 4
  5968 ;; This function calls:
  5969 ;;		Nothing
  5970 ;; This function is called by:
  5971 ;;		_EUSART_Initialize
  5972 ;; This function uses a non-reentrant model
  5973 ;;
  5974                           
  5975                           
  5976                           ;psect for function _EUSART_SetRxInterruptHandler
  5977  0D91                     _EUSART_SetRxInterruptHandler:
  5978  0D91                     l2472:	
  5979                           ;incstack = 0
  5980                           ; Regs used in _EUSART_SetRxInterruptHandler: [wreg]
  5981                           
  5982                           
  5983                           ;mcc_generated_files/eusart.c: 260:     EUSART_RxDefaultInterruptHandler = interruptHand
      +                          ler;
  5984  0D91  0872               	movf	EUSART_SetRxInterruptHandler@interruptHandler+1,w
  5985  0D92  0020               	movlb	0	; select bank0
  5986  0D93  00E9               	movwf	_EUSART_RxDefaultInterruptHandler+1
  5987  0D94  0871               	movf	EUSART_SetRxInterruptHandler@interruptHandler,w
  5988  0D95  00E8               	movwf	_EUSART_RxDefaultInterruptHandler
  5989  0D96                     l211:
  5990  0D96  0008               	return
  5991  0D97                     __end_of_EUSART_SetRxInterruptHandler:
  5992                           
  5993                           	psect	text22
  5994  0D8B                     __ptext22:	
  5995 ;; *************** function _EUSART_SetOverrunErrorHandler *****************
  5996 ;; Defined at:
  5997 ;;		line 247 in file "mcc_generated_files/eusart.c"
  5998 ;; Parameters:    Size  Location     Type
  5999 ;;  interruptHan    2    1[COMMON] PTR FTN()void 
  6000 ;;		 -> EUSART_DefaultOverrunErrorHandler(1), 
  6001 ;; Auto vars:     Size  Location     Type
  6002 ;;		None
  6003 ;; Return value:  Size  Location     Type
  6004 ;;                  1    wreg      void 
  6005 ;; Registers used:
  6006 ;;		wreg
  6007 ;; Tracked objects:
  6008 ;;		On entry : 0/0
  6009 ;;		On exit  : 0/0
  6010 ;;		Unchanged: 0/0
  6011 ;; Data sizes:     COMMON   BANK0   BANK1   BANK2   BANK3   BANK4
  6012 ;;      Params:         2       0       0       0       0       0
  6013 ;;      Locals:         0       0       0       0       0       0
  6014 ;;      Temps:          0       0       0       0       0       0
  6015 ;;      Totals:         2       0       0       0       0       0
  6016 ;;Total ram usage:        2 bytes
  6017 ;; Hardware stack levels used: 1
  6018 ;; Hardware stack levels required when called: 4
  6019 ;; This function calls:
  6020 ;;		Nothing
  6021 ;; This function is called by:
  6022 ;;		_EUSART_Initialize
  6023 ;; This function uses a non-reentrant model
  6024 ;;
  6025                           
  6026                           
  6027                           ;psect for function _EUSART_SetOverrunErrorHandler
  6028  0D8B                     _EUSART_SetOverrunErrorHandler:
  6029  0D8B                     l2478:	
  6030                           ;incstack = 0
  6031                           ; Regs used in _EUSART_SetOverrunErrorHandler: [wreg]
  6032                           
  6033                           
  6034                           ;mcc_generated_files/eusart.c: 248:     EUSART_OverrunErrorHandler = interruptHandler;
  6035  0D8B  0872               	movf	EUSART_SetOverrunErrorHandler@interruptHandler+1,w
  6036  0D8C  0021               	movlb	1	; select bank1
  6037  0D8D  00DD               	movwf	(_EUSART_OverrunErrorHandler+1)^(0+128)
  6038  0D8E  0871               	movf	EUSART_SetOverrunErrorHandler@interruptHandler,w
  6039  0D8F  00DC               	movwf	_EUSART_OverrunErrorHandler^(0+128)
  6040  0D90                     l202:
  6041  0D90  0008               	return
  6042  0D91                     __end_of_EUSART_SetOverrunErrorHandler:
  6043                           
  6044                           	psect	text23
  6045  0D85                     __ptext23:	
  6046 ;; *************** function _EUSART_SetFramingErrorHandler *****************
  6047 ;; Defined at:
  6048 ;;		line 243 in file "mcc_generated_files/eusart.c"
  6049 ;; Parameters:    Size  Location     Type
  6050 ;;  interruptHan    2    1[COMMON] PTR FTN()void 
  6051 ;;		 -> EUSART_DefaultFramingErrorHandler(1), 
  6052 ;; Auto vars:     Size  Location     Type
  6053 ;;		None
  6054 ;; Return value:  Size  Location     Type
  6055 ;;                  1    wreg      void 
  6056 ;; Registers used:
  6057 ;;		wreg
  6058 ;; Tracked objects:
  6059 ;;		On entry : 0/0
  6060 ;;		On exit  : 0/0
  6061 ;;		Unchanged: 0/0
  6062 ;; Data sizes:     COMMON   BANK0   BANK1   BANK2   BANK3   BANK4
  6063 ;;      Params:         2       0       0       0       0       0
  6064 ;;      Locals:         0       0       0       0       0       0
  6065 ;;      Temps:          0       0       0       0       0       0
  6066 ;;      Totals:         2       0       0       0       0       0
  6067 ;;Total ram usage:        2 bytes
  6068 ;; Hardware stack levels used: 1
  6069 ;; Hardware stack levels required when called: 4
  6070 ;; This function calls:
  6071 ;;		Nothing
  6072 ;; This function is called by:
  6073 ;;		_EUSART_Initialize
  6074 ;; This function uses a non-reentrant model
  6075 ;;
  6076                           
  6077                           
  6078                           ;psect for function _EUSART_SetFramingErrorHandler
  6079  0D85                     _EUSART_SetFramingErrorHandler:
  6080  0D85                     l2476:	
  6081                           ;incstack = 0
  6082                           ; Regs used in _EUSART_SetFramingErrorHandler: [wreg]
  6083                           
  6084                           
  6085                           ;mcc_generated_files/eusart.c: 244:     EUSART_FramingErrorHandler = interruptHandler;
  6086  0D85  0872               	movf	EUSART_SetFramingErrorHandler@interruptHandler+1,w
  6087  0D86  0021               	movlb	1	; select bank1
  6088  0D87  00DF               	movwf	(_EUSART_FramingErrorHandler+1)^(0+128)
  6089  0D88  0871               	movf	EUSART_SetFramingErrorHandler@interruptHandler,w
  6090  0D89  00DE               	movwf	_EUSART_FramingErrorHandler^(0+128)
  6091  0D8A                     l199:
  6092  0D8A  0008               	return
  6093  0D8B                     __end_of_EUSART_SetFramingErrorHandler:
  6094                           
  6095                           	psect	text24
  6096  0D7F                     __ptext24:	
  6097 ;; *************** function _EUSART_SetErrorHandler *****************
  6098 ;; Defined at:
  6099 ;;		line 251 in file "mcc_generated_files/eusart.c"
  6100 ;; Parameters:    Size  Location     Type
  6101 ;;  interruptHan    2    1[COMMON] PTR FTN()void 
  6102 ;;		 -> EUSART_DefaultErrorHandler(1), 
  6103 ;; Auto vars:     Size  Location     Type
  6104 ;;		None
  6105 ;; Return value:  Size  Location     Type
  6106 ;;                  1    wreg      void 
  6107 ;; Registers used:
  6108 ;;		wreg
  6109 ;; Tracked objects:
  6110 ;;		On entry : 0/0
  6111 ;;		On exit  : 0/0
  6112 ;;		Unchanged: 0/0
  6113 ;; Data sizes:     COMMON   BANK0   BANK1   BANK2   BANK3   BANK4
  6114 ;;      Params:         2       0       0       0       0       0
  6115 ;;      Locals:         0       0       0       0       0       0
  6116 ;;      Temps:          0       0       0       0       0       0
  6117 ;;      Totals:         2       0       0       0       0       0
  6118 ;;Total ram usage:        2 bytes
  6119 ;; Hardware stack levels used: 1
  6120 ;; Hardware stack levels required when called: 4
  6121 ;; This function calls:
  6122 ;;		Nothing
  6123 ;; This function is called by:
  6124 ;;		_EUSART_Initialize
  6125 ;; This function uses a non-reentrant model
  6126 ;;
  6127                           
  6128                           
  6129                           ;psect for function _EUSART_SetErrorHandler
  6130  0D7F                     _EUSART_SetErrorHandler:
  6131  0D7F                     l2480:	
  6132                           ;incstack = 0
  6133                           ; Regs used in _EUSART_SetErrorHandler: [wreg]
  6134                           
  6135                           
  6136                           ;mcc_generated_files/eusart.c: 252:     EUSART_ErrorHandler = interruptHandler;
  6137  0D7F  0872               	movf	EUSART_SetErrorHandler@interruptHandler+1,w
  6138  0D80  0021               	movlb	1	; select bank1
  6139  0D81  00DB               	movwf	(_EUSART_ErrorHandler+1)^(0+128)
  6140  0D82  0871               	movf	EUSART_SetErrorHandler@interruptHandler,w
  6141  0D83  00DA               	movwf	_EUSART_ErrorHandler^(0+128)
  6142  0D84                     l205:
  6143  0D84  0008               	return
  6144  0D85                     __end_of_EUSART_SetErrorHandler:
  6145                           
  6146                           	psect	intentry
  6147  0004                     __pintentry:	
  6148 ;; *************** function _INTERRUPT_InterruptManager *****************
  6149 ;; Defined at:
  6150 ;;		line 52 in file "mcc_generated_files/interrupt_manager.c"
  6151 ;; Parameters:    Size  Location     Type
  6152 ;;		None
  6153 ;; Auto vars:     Size  Location     Type
  6154 ;;		None
  6155 ;; Return value:  Size  Location     Type
  6156 ;;                  1    wreg      void 
  6157 ;; Registers used:
  6158 ;;		wreg, fsr1l, fsr1h, status,2, status,0, pclath, cstack
  6159 ;; Tracked objects:
  6160 ;;		On entry : 0/0
  6161 ;;		On exit  : 0/0
  6162 ;;		Unchanged: 0/0
  6163 ;; Data sizes:     COMMON   BANK0   BANK1   BANK2   BANK3   BANK4
  6164 ;;      Params:         0       0       0       0       0       0
  6165 ;;      Locals:         0       0       0       0       0       0
  6166 ;;      Temps:          0       0       0       0       0       0
  6167 ;;      Totals:         0       0       0       0       0       0
  6168 ;;Total ram usage:        0 bytes
  6169 ;; Hardware stack levels used: 1
  6170 ;; Hardware stack levels required when called: 3
  6171 ;; This function calls:
  6172 ;;		Absolute function
  6173 ;;		_EUSART_Receive_ISR
  6174 ;;		_EUSART_Transmit_ISR
  6175 ;; This function is called by:
  6176 ;;		Interrupt level 1
  6177 ;; This function uses a non-reentrant model
  6178 ;;
  6179                           
  6180  0004                     _INTERRUPT_InterruptManager:
  6181                           
  6182                           ;incstack = 0
  6183  0004  147E               	bsf	int$flags,0	;set compiler interrupt flag (level 1)
  6184                           
  6185                           ; Regs used in _INTERRUPT_InterruptManager: [wreg+fsr1l+fsr1h+status,2+status,0+pclath+c
      +                          stack]
  6186  0005  3180               	pagesel	$
  6187  0006                     i1l2822:
  6188                           
  6189                           ;mcc_generated_files/interrupt_manager.c: 55:     if(INTCONbits.PEIE == 1)
  6190  0006  1F0B               	btfss	11,6	;volatile
  6191  0007  2809               	goto	u165_21
  6192  0008  280A               	goto	u165_20
  6193  0009                     u165_21:
  6194  0009  282A               	goto	i1l38
  6195  000A                     u165_20:
  6196  000A                     i1l2824:
  6197                           
  6198                           ;mcc_generated_files/interrupt_manager.c: 56:     {;mcc_generated_files/interrupt_manage
      +                          r.c: 57:         if(PIE1bits.TXIE == 1 && PIR1bits.TXIF == 1)
  6199  000A  0021               	movlb	1	; select bank1
  6200  000B  1E11               	btfss	17,4	;volatile
  6201  000C  280E               	goto	u166_21
  6202  000D  280F               	goto	u166_20
  6203  000E                     u166_21:
  6204  000E  281A               	goto	i1l33
  6205  000F                     u166_20:
  6206  000F                     i1l2826:
  6207  000F  0020               	movlb	0	; select bank0
  6208  0010  1E11               	btfss	17,4	;volatile
  6209  0011  2813               	goto	u167_21
  6210  0012  2814               	goto	u167_20
  6211  0013                     u167_21:
  6212  0013  281A               	goto	i1l33
  6213  0014                     u167_20:
  6214  0014                     i1l2828:
  6215                           
  6216                           ;mcc_generated_files/interrupt_manager.c: 58:         {;mcc_generated_files/interrupt_ma
      +                          nager.c: 59:             EUSART_TxDefaultInterruptHandler();
  6217  0014  086B               	movf	_EUSART_TxDefaultInterruptHandler+1,w
  6218  0015  008A               	movwf	10
  6219  0016  086A               	movf	_EUSART_TxDefaultInterruptHandler,w
  6220  0017  000A               	callw
  6221  0018  3180               	pagesel	$
  6222                           
  6223                           ;mcc_generated_files/interrupt_manager.c: 60:         }
  6224  0019  282A               	goto	i1l38
  6225  001A                     i1l33:	
  6226                           ;mcc_generated_files/interrupt_manager.c: 61:         else if(PIE1bits.RCIE == 1 && PIR1
      +                          bits.RCIF == 1)
  6227                           
  6228  001A  0021               	movlb	1	; select bank1
  6229  001B  1E91               	btfss	17,5	;volatile
  6230  001C  281E               	goto	u168_21
  6231  001D  281F               	goto	u168_20
  6232  001E                     u168_21:
  6233  001E  282A               	goto	i1l34
  6234  001F                     u168_20:
  6235  001F                     i1l2830:
  6236  001F  0020               	movlb	0	; select bank0
  6237  0020  1E91               	btfss	17,5	;volatile
  6238  0021  2823               	goto	u169_21
  6239  0022  2824               	goto	u169_20
  6240  0023                     u169_21:
  6241  0023  282A               	goto	i1l34
  6242  0024                     u169_20:
  6243  0024                     i1l2832:
  6244                           
  6245                           ;mcc_generated_files/interrupt_manager.c: 62:         {;mcc_generated_files/interrupt_ma
      +                          nager.c: 63:             EUSART_RxDefaultInterruptHandler();
  6246  0024  0869               	movf	_EUSART_RxDefaultInterruptHandler+1,w
  6247  0025  008A               	movwf	10
  6248  0026  0868               	movf	_EUSART_RxDefaultInterruptHandler,w
  6249  0027  000A               	callw
  6250  0028  3180               	pagesel	$
  6251                           
  6252                           ;mcc_generated_files/interrupt_manager.c: 64:         }
  6253  0029  282A               	goto	i1l38
  6254  002A                     i1l34:
  6255  002A                     i1l38:	
  6256                           ;mcc_generated_files/interrupt_manager.c: 69:     }
  6257                           
  6258  002A  107E               	bcf	int$flags,0	;clear compiler interrupt flag (level 1)
  6259  002B  0009               	retfie
  6260  002C                     __end_of_INTERRUPT_InterruptManager:
  6261                           
  6262                           	psect	text26
  6263  0DF5                     __ptext26:	
  6264 ;; *************** function _EUSART_Transmit_ISR *****************
  6265 ;; Defined at:
  6266 ;;		line 186 in file "mcc_generated_files/eusart.c"
  6267 ;; Parameters:    Size  Location     Type
  6268 ;;		None
  6269 ;; Auto vars:     Size  Location     Type
  6270 ;;		None
  6271 ;; Return value:  Size  Location     Type
  6272 ;;                  1    wreg      void 
  6273 ;; Registers used:
  6274 ;;		wreg, fsr1l, fsr1h, status,2, status,0
  6275 ;; Tracked objects:
  6276 ;;		On entry : 0/0
  6277 ;;		On exit  : 0/0
  6278 ;;		Unchanged: 0/0
  6279 ;; Data sizes:     COMMON   BANK0   BANK1   BANK2   BANK3   BANK4
  6280 ;;      Params:         0       0       0       0       0       0
  6281 ;;      Locals:         0       0       0       0       0       0
  6282 ;;      Temps:          1       0       0       0       0       0
  6283 ;;      Totals:         1       0       0       0       0       0
  6284 ;;Total ram usage:        1 bytes
  6285 ;; Hardware stack levels used: 1
  6286 ;; This function calls:
  6287 ;;		Nothing
  6288 ;; This function is called by:
  6289 ;;		_EUSART_Initialize
  6290 ;;		_INTERRUPT_InterruptManager
  6291 ;; This function uses a non-reentrant model
  6292 ;;
  6293                           
  6294                           
  6295                           ;psect for function _EUSART_Transmit_ISR
  6296  0DF5                     _EUSART_Transmit_ISR:
  6297  0DF5                     i1l2596:	
  6298                           ;incstack = 0
  6299                           ; Regs used in _EUSART_Transmit_ISR: [wreg+fsr1l+fsr1h+status,2+status,0]
  6300                           
  6301                           
  6302                           ;mcc_generated_files/eusart.c: 190:     if(sizeof(eusartTxBuffer) > eusartTxBufferRemain
      +                          ing)
  6303  0DF5  3020               	movlw	32
  6304  0DF6  0021               	movlb	1	; select bank1
  6305  0DF7  0269               	subwf	_eusartTxBufferRemaining^(0+128),w	;volatile
  6306  0DF8  1803               	skipnc
  6307  0DF9  2DFB               	goto	u137_21
  6308  0DFA  2DFC               	goto	u137_20
  6309  0DFB                     u137_21:
  6310  0DFB  2E14               	goto	i1l177
  6311  0DFC                     u137_20:
  6312  0DFC                     i1l2598:
  6313                           
  6314                           ;mcc_generated_files/eusart.c: 191:     {;mcc_generated_files/eusart.c: 192:         TXR
      +                          EG = eusartTxBuffer[eusartTxTail++];
  6315  0DFC  086A               	movf	_eusartTxTail^(0+128),w
  6316  0DFD  3EA0               	addlw	(low (_eusartTxBuffer| 0))& (0+255)
  6317  0DFE  0086               	movwf	6
  6318  0DFF  0187               	clrf	7
  6319  0E00  0801               	movf	1,w
  6320  0E01  0023               	movlb	3	; select bank3
  6321  0E02  009A               	movwf	26	;volatile
  6322  0E03                     i1l2600:
  6323  0E03  3001               	movlw	1
  6324  0E04  00F0               	movwf	??_EUSART_Transmit_ISR
  6325  0E05  0870               	movf	??_EUSART_Transmit_ISR,w
  6326  0E06  0021               	movlb	1	; select bank1
  6327  0E07  07EA               	addwf	_eusartTxTail^(0+128),f	;volatile
  6328  0E08                     i1l2602:
  6329                           
  6330                           ;mcc_generated_files/eusart.c: 193:         if(sizeof(eusartTxBuffer) <= eusartTxTail)
  6331  0E08  3020               	movlw	32
  6332  0E09  026A               	subwf	_eusartTxTail^(0+128),w	;volatile
  6333  0E0A  1C03               	skipc
  6334  0E0B  2E0D               	goto	u138_21
  6335  0E0C  2E0E               	goto	u138_20
  6336  0E0D                     u138_21:
  6337  0E0D  2E0F               	goto	i1l2606
  6338  0E0E                     u138_20:
  6339  0E0E                     i1l2604:
  6340                           
  6341                           ;mcc_generated_files/eusart.c: 194:         {;mcc_generated_files/eusart.c: 195:        
      +                               eusartTxTail = 0;
  6342  0E0E  01EA               	clrf	_eusartTxTail^(0+128)	;volatile
  6343  0E0F                     i1l2606:
  6344                           
  6345                           ;mcc_generated_files/eusart.c: 197:         eusartTxBufferRemaining++;
  6346  0E0F  3001               	movlw	1
  6347  0E10  00F0               	movwf	??_EUSART_Transmit_ISR
  6348  0E11  0870               	movf	??_EUSART_Transmit_ISR,w
  6349  0E12  07E9               	addwf	_eusartTxBufferRemaining^(0+128),f	;volatile
  6350                           
  6351                           ;mcc_generated_files/eusart.c: 198:     }
  6352  0E13  2E15               	goto	i1l180
  6353  0E14                     i1l177:	
  6354                           ;mcc_generated_files/eusart.c: 199:     else
  6355                           
  6356                           
  6357                           ;mcc_generated_files/eusart.c: 200:     {;mcc_generated_files/eusart.c: 201:         PIE
      +                          1bits.TXIE = 0;
  6358  0E14  1211               	bcf	17,4	;volatile
  6359  0E15                     i1l180:
  6360  0E15  0008               	return
  6361  0E16                     __end_of_EUSART_Transmit_ISR:
  6362                           
  6363                           	psect	text27
  6364  0FC2                     __ptext27:	
  6365 ;; *************** function _EUSART_Receive_ISR *****************
  6366 ;; Defined at:
  6367 ;;		line 205 in file "mcc_generated_files/eusart.c"
  6368 ;; Parameters:    Size  Location     Type
  6369 ;;		None
  6370 ;; Auto vars:     Size  Location     Type
  6371 ;;		None
  6372 ;; Return value:  Size  Location     Type
  6373 ;;                  1    wreg      void 
  6374 ;; Registers used:
  6375 ;;		wreg, fsr1l, fsr1h, status,2, status,0, pclath, cstack
  6376 ;; Tracked objects:
  6377 ;;		On entry : 0/0
  6378 ;;		On exit  : 0/0
  6379 ;;		Unchanged: 0/0
  6380 ;; Data sizes:     COMMON   BANK0   BANK1   BANK2   BANK3   BANK4
  6381 ;;      Params:         0       0       0       0       0       0
  6382 ;;      Locals:         0       0       0       0       0       0
  6383 ;;      Temps:          0       0       0       0       0       0
  6384 ;;      Totals:         0       0       0       0       0       0
  6385 ;;Total ram usage:        0 bytes
  6386 ;; Hardware stack levels used: 1
  6387 ;; Hardware stack levels required when called: 2
  6388 ;; This function calls:
  6389 ;;		Absolute function
  6390 ;;		_EUSART_DefaultErrorHandler
  6391 ;;		_EUSART_DefaultFramingErrorHandler
  6392 ;;		_EUSART_DefaultOverrunErrorHandler
  6393 ;;		_EUSART_RxDataHandler
  6394 ;; This function is called by:
  6395 ;;		_EUSART_Initialize
  6396 ;;		_INTERRUPT_InterruptManager
  6397 ;; This function uses a non-reentrant model
  6398 ;;
  6399                           
  6400                           
  6401                           ;psect for function _EUSART_Receive_ISR
  6402  0FC2                     _EUSART_Receive_ISR:
  6403  0FC2                     i1l2608:	
  6404                           ;incstack = 0
  6405                           ; Regs used in _EUSART_Receive_ISR: [wreg+fsr1l+fsr1h+status,2+status,0+pclath+cstack]
  6406                           
  6407                           
  6408                           ;mcc_generated_files/eusart.c: 208:     eusartRxStatusBuffer[eusartRxHead].status = 0;
  6409  0FC2  0021               	movlb	1	; select bank1
  6410  0FC3  0868               	movf	_eusartRxHead^(0+128),w	;volatile
  6411  0FC4  3EA0               	addlw	(low (_eusartRxStatusBuffer| (0+256)))& (0+255)
  6412  0FC5  0086               	movwf	6
  6413  0FC6  3001               	movlw	1	; select bank3/4
  6414  0FC7  0087               	movwf	7
  6415  0FC8  0181               	clrf	1
  6416  0FC9                     i1l2610:
  6417                           
  6418                           ;mcc_generated_files/eusart.c: 210:     if(RCSTAbits.FERR){
  6419  0FC9  0023               	movlb	3	; select bank3
  6420  0FCA  1D1D               	btfss	29,2	;volatile
  6421  0FCB  2FCD               	goto	u139_21
  6422  0FCC  2FCE               	goto	u139_20
  6423  0FCD                     u139_21:
  6424  0FCD  2FDA               	goto	i1l2616
  6425  0FCE                     u139_20:
  6426  0FCE                     i1l2612:
  6427                           
  6428                           ;mcc_generated_files/eusart.c: 211:         eusartRxStatusBuffer[eusartRxHead].ferr = 1;
  6429  0FCE  0021               	movlb	1	; select bank1
  6430  0FCF  0868               	movf	_eusartRxHead^(0+128),w	;volatile
  6431  0FD0  3EA0               	addlw	(low (_eusartRxStatusBuffer| (0+256)))& (0+255)
  6432  0FD1  0086               	movwf	6
  6433  0FD2  3001               	movlw	1	; select bank3/4
  6434  0FD3  0087               	movwf	7
  6435  0FD4  1481               	bsf	1,1
  6436  0FD5                     i1l2614:
  6437                           
  6438                           ;mcc_generated_files/eusart.c: 212:         EUSART_FramingErrorHandler();
  6439  0FD5  085F               	movf	(_EUSART_FramingErrorHandler+1)^(0+128),w
  6440  0FD6  008A               	movwf	10
  6441  0FD7  085E               	movf	_EUSART_FramingErrorHandler^(0+128),w
  6442  0FD8  000A               	callw
  6443  0FD9  318F               	pagesel	$
  6444  0FDA                     i1l2616:
  6445                           
  6446                           ;mcc_generated_files/eusart.c: 215:     if(RCSTAbits.OERR){
  6447  0FDA  0023               	movlb	3	; select bank3
  6448  0FDB  1C9D               	btfss	29,1	;volatile
  6449  0FDC  2FDE               	goto	u140_21
  6450  0FDD  2FDF               	goto	u140_20
  6451  0FDE                     u140_21:
  6452  0FDE  2FEB               	goto	i1l2622
  6453  0FDF                     u140_20:
  6454  0FDF                     i1l2618:
  6455                           
  6456                           ;mcc_generated_files/eusart.c: 216:         eusartRxStatusBuffer[eusartRxHead].oerr = 1;
  6457  0FDF  0021               	movlb	1	; select bank1
  6458  0FE0  0868               	movf	_eusartRxHead^(0+128),w	;volatile
  6459  0FE1  3EA0               	addlw	(low (_eusartRxStatusBuffer| (0+256)))& (0+255)
  6460  0FE2  0086               	movwf	6
  6461  0FE3  3001               	movlw	1	; select bank3/4
  6462  0FE4  0087               	movwf	7
  6463  0FE5  1501               	bsf	1,2
  6464  0FE6                     i1l2620:
  6465                           
  6466                           ;mcc_generated_files/eusart.c: 217:         EUSART_OverrunErrorHandler();
  6467  0FE6  085D               	movf	(_EUSART_OverrunErrorHandler+1)^(0+128),w
  6468  0FE7  008A               	movwf	10
  6469  0FE8  085C               	movf	_EUSART_OverrunErrorHandler^(0+128),w
  6470  0FE9  000A               	callw
  6471  0FEA  318F               	pagesel	$
  6472  0FEB                     i1l2622:
  6473                           
  6474                           ;mcc_generated_files/eusart.c: 220:     if(eusartRxStatusBuffer[eusartRxHead].status){
  6475  0FEB  0021               	movlb	1	; select bank1
  6476  0FEC  0868               	movf	_eusartRxHead^(0+128),w	;volatile
  6477  0FED  3EA0               	addlw	(low (_eusartRxStatusBuffer| (0+256)))& (0+255)
  6478  0FEE  0086               	movwf	6
  6479  0FEF  3001               	movlw	1	; select bank3/4
  6480  0FF0  0087               	movwf	7
  6481  0FF1  0801               	movf	1,w
  6482  0FF2  1903               	btfsc	3,2
  6483  0FF3  2FF5               	goto	u141_21
  6484  0FF4  2FF6               	goto	u141_20
  6485  0FF5                     u141_21:
  6486  0FF5  2FFC               	goto	i1l2626
  6487  0FF6                     u141_20:
  6488  0FF6                     i1l2624:
  6489                           
  6490                           ;mcc_generated_files/eusart.c: 221:         EUSART_ErrorHandler();
  6491  0FF6  085B               	movf	(_EUSART_ErrorHandler+1)^(0+128),w
  6492  0FF7  008A               	movwf	10
  6493  0FF8  085A               	movf	_EUSART_ErrorHandler^(0+128),w
  6494  0FF9  000A               	callw
  6495  0FFA  318F               	pagesel	$
  6496                           
  6497                           ;mcc_generated_files/eusart.c: 222:     } else {
  6498  0FFB  2FFF               	goto	i1l187
  6499  0FFC                     i1l2626:
  6500                           
  6501                           ;mcc_generated_files/eusart.c: 223:         EUSART_RxDataHandler();
  6502  0FFC  3184  24FB  318F   	fcall	_EUSART_RxDataHandler
  6503  0FFF                     i1l187:
  6504  0FFF  0008               	return
  6505  1000                     __end_of_EUSART_Receive_ISR:
  6506                           
  6507                           	psect	text28
  6508  0D77                     __ptext28:	
  6509 ;; *************** function _EUSART_DefaultOverrunErrorHandler *****************
  6510 ;; Defined at:
  6511 ;;		line 231 in file "mcc_generated_files/eusart.c"
  6512 ;; Parameters:    Size  Location     Type
  6513 ;;		None
  6514 ;; Auto vars:     Size  Location     Type
  6515 ;;		None
  6516 ;; Return value:  Size  Location     Type
  6517 ;;                  1    wreg      void 
  6518 ;; Registers used:
  6519 ;;		None
  6520 ;; Tracked objects:
  6521 ;;		On entry : 0/0
  6522 ;;		On exit  : 0/0
  6523 ;;		Unchanged: 0/0
  6524 ;; Data sizes:     COMMON   BANK0   BANK1   BANK2   BANK3   BANK4
  6525 ;;      Params:         0       0       0       0       0       0
  6526 ;;      Locals:         0       0       0       0       0       0
  6527 ;;      Temps:          0       0       0       0       0       0
  6528 ;;      Totals:         0       0       0       0       0       0
  6529 ;;Total ram usage:        0 bytes
  6530 ;; Hardware stack levels used: 1
  6531 ;; This function calls:
  6532 ;;		Nothing
  6533 ;; This function is called by:
  6534 ;;		_EUSART_Initialize
  6535 ;;		_EUSART_Receive_ISR
  6536 ;; This function uses a non-reentrant model
  6537 ;;
  6538                           
  6539                           
  6540                           ;psect for function _EUSART_DefaultOverrunErrorHandler
  6541  0D77                     _EUSART_DefaultOverrunErrorHandler:
  6542  0D77                     i1l2482:	
  6543                           ;incstack = 0
  6544                           ; Regs used in _EUSART_DefaultOverrunErrorHandler: []
  6545                           
  6546                           
  6547                           ;mcc_generated_files/eusart.c: 234:     RCSTAbits.CREN = 0;
  6548  0D77  0023               	movlb	3	; select bank3
  6549  0D78  121D               	bcf	29,4	;volatile
  6550                           
  6551                           ;mcc_generated_files/eusart.c: 235:     RCSTAbits.CREN = 1;
  6552  0D79  161D               	bsf	29,4	;volatile
  6553  0D7A                     i1l193:
  6554  0D7A  0008               	return
  6555  0D7B                     __end_of_EUSART_DefaultOverrunErrorHandler:
  6556                           
  6557                           	psect	text29
  6558  0003                     __ptext29:	
  6559 ;; *************** function _EUSART_DefaultFramingErrorHandler *****************
  6560 ;; Defined at:
  6561 ;;		line 229 in file "mcc_generated_files/eusart.c"
  6562 ;; Parameters:    Size  Location     Type
  6563 ;;		None
  6564 ;; Auto vars:     Size  Location     Type
  6565 ;;		None
  6566 ;; Return value:  Size  Location     Type
  6567 ;;                  1    wreg      void 
  6568 ;; Registers used:
  6569 ;;		None
  6570 ;; Tracked objects:
  6571 ;;		On entry : 0/0
  6572 ;;		On exit  : 0/0
  6573 ;;		Unchanged: 0/0
  6574 ;; Data sizes:     COMMON   BANK0   BANK1   BANK2   BANK3   BANK4
  6575 ;;      Params:         0       0       0       0       0       0
  6576 ;;      Locals:         0       0       0       0       0       0
  6577 ;;      Temps:          0       0       0       0       0       0
  6578 ;;      Totals:         0       0       0       0       0       0
  6579 ;;Total ram usage:        0 bytes
  6580 ;; Hardware stack levels used: 1
  6581 ;; This function calls:
  6582 ;;		Nothing
  6583 ;; This function is called by:
  6584 ;;		_EUSART_Initialize
  6585 ;;		_EUSART_Receive_ISR
  6586 ;; This function uses a non-reentrant model
  6587 ;;
  6588                           
  6589                           
  6590                           ;psect for function _EUSART_DefaultFramingErrorHandler
  6591  0003                     _EUSART_DefaultFramingErrorHandler:
  6592  0003                     i1l190:	
  6593                           ;incstack = 0
  6594                           ; Regs used in _EUSART_DefaultFramingErrorHandler: []
  6595                           
  6596  0003  0008               	return
  6597  0004                     __end_of_EUSART_DefaultFramingErrorHandler:
  6598                           
  6599                           	psect	text30
  6600  0D73                     __ptext30:	
  6601 ;; *************** function _EUSART_DefaultErrorHandler *****************
  6602 ;; Defined at:
  6603 ;;		line 239 in file "mcc_generated_files/eusart.c"
  6604 ;; Parameters:    Size  Location     Type
  6605 ;;		None
  6606 ;; Auto vars:     Size  Location     Type
  6607 ;;		None
  6608 ;; Return value:  Size  Location     Type
  6609 ;;                  1    wreg      void 
  6610 ;; Registers used:
  6611 ;;		wreg, fsr1l, fsr1h, status,2, status,0, pclath, cstack
  6612 ;; Tracked objects:
  6613 ;;		On entry : 0/0
  6614 ;;		On exit  : 0/0
  6615 ;;		Unchanged: 0/0
  6616 ;; Data sizes:     COMMON   BANK0   BANK1   BANK2   BANK3   BANK4
  6617 ;;      Params:         0       0       0       0       0       0
  6618 ;;      Locals:         0       0       0       0       0       0
  6619 ;;      Temps:          0       0       0       0       0       0
  6620 ;;      Totals:         0       0       0       0       0       0
  6621 ;;Total ram usage:        0 bytes
  6622 ;; Hardware stack levels used: 1
  6623 ;; Hardware stack levels required when called: 1
  6624 ;; This function calls:
  6625 ;;		_EUSART_RxDataHandler
  6626 ;; This function is called by:
  6627 ;;		_EUSART_Initialize
  6628 ;;		_EUSART_Receive_ISR
  6629 ;; This function uses a non-reentrant model
  6630 ;;
  6631                           
  6632                           
  6633                           ;psect for function _EUSART_DefaultErrorHandler
  6634  0D73                     _EUSART_DefaultErrorHandler:
  6635  0D73                     i1l2484:	
  6636                           ;incstack = 0
  6637                           ; Regs used in _EUSART_DefaultErrorHandler: [wreg+fsr1l+fsr1h+status,2+status,0+pclath+c
      +                          stack]
  6638                           
  6639                           
  6640                           ;mcc_generated_files/eusart.c: 240:     EUSART_RxDataHandler();
  6641  0D73  3184  24FB  318D   	fcall	_EUSART_RxDataHandler
  6642  0D76                     i1l196:
  6643  0D76  0008               	return
  6644  0D77                     __end_of_EUSART_DefaultErrorHandler:
  6645                           
  6646                           	psect	text31
  6647  04FB                     __ptext31:	
  6648 ;; *************** function _EUSART_RxDataHandler *****************
  6649 ;; Defined at:
  6650 ;;		line 264 in file "mcc_generated_files/eusart.c"
  6651 ;; Parameters:    Size  Location     Type
  6652 ;;		None
  6653 ;; Auto vars:     Size  Location     Type
  6654 ;;		None
  6655 ;; Return value:  Size  Location     Type
  6656 ;;                  1    wreg      void 
  6657 ;; Registers used:
  6658 ;;		wreg, fsr1l, fsr1h, status,2, status,0
  6659 ;; Tracked objects:
  6660 ;;		On entry : 0/0
  6661 ;;		On exit  : 0/0
  6662 ;;		Unchanged: 0/0
  6663 ;; Data sizes:     COMMON   BANK0   BANK1   BANK2   BANK3   BANK4
  6664 ;;      Params:         0       0       0       0       0       0
  6665 ;;      Locals:         0       0       0       0       0       0
  6666 ;;      Temps:          1       0       0       0       0       0
  6667 ;;      Totals:         1       0       0       0       0       0
  6668 ;;Total ram usage:        1 bytes
  6669 ;; Hardware stack levels used: 1
  6670 ;; This function calls:
  6671 ;;		Nothing
  6672 ;; This function is called by:
  6673 ;;		_EUSART_Receive_ISR
  6674 ;;		_EUSART_DefaultErrorHandler
  6675 ;; This function uses a non-reentrant model
  6676 ;;
  6677                           
  6678                           
  6679                           ;psect for function _EUSART_RxDataHandler
  6680  04FB                     _EUSART_RxDataHandler:
  6681  04FB                     i1l2370:	
  6682                           ;incstack = 0
  6683                           ; Regs used in _EUSART_RxDataHandler: [wreg+fsr1l+fsr1h+status,2+status,0]
  6684                           
  6685                           
  6686                           ;mcc_generated_files/eusart.c: 266:     TotalSerial++;
  6687  04FB  3001               	movlw	1
  6688  04FC  0020               	movlb	0	; select bank0
  6689  04FD  07E6               	addwf	_TotalSerial,f	;volatile
  6690  04FE  3000               	movlw	0
  6691  04FF  3DE7               	addwfc	_TotalSerial+1,f	;volatile
  6692                           
  6693                           ;mcc_generated_files/eusart.c: 267:     UltimoDadoRecebido = RCREG;
  6694  0500  0023               	movlb	3	; select bank3
  6695  0501  0819               	movf	25,w	;volatile
  6696  0502  00F0               	movwf	??_EUSART_RxDataHandler
  6697  0503  0870               	movf	??_EUSART_RxDataHandler,w
  6698  0504  0021               	movlb	1	; select bank1
  6699  0505  00EE               	movwf	_UltimoDadoRecebido^(0+128)	;volatile
  6700  0506                     i1l2372:
  6701                           
  6702                           ;mcc_generated_files/eusart.c: 268:     if (UltimoDadoRecebido == '>')
  6703  0506  303E               	movlw	62
  6704  0507  066E               	xorwf	_UltimoDadoRecebido^(0+128),w	;volatile
  6705  0508  1D03               	btfss	3,2
  6706  0509  2D0B               	goto	u105_21
  6707  050A  2D0C               	goto	u105_20
  6708  050B                     u105_21:
  6709  050B  2D0D               	goto	i1l2376
  6710  050C                     u105_20:
  6711  050C                     i1l2374:
  6712                           
  6713                           ;mcc_generated_files/eusart.c: 269:         indice=0;
  6714  050C  01F9               	clrf	_indice	;volatile
  6715  050D                     i1l2376:
  6716                           
  6717                           ;mcc_generated_files/eusart.c: 270:     flags[0]=flags[1];
  6718  050D  0020               	movlb	0	; select bank0
  6719  050E  0861               	movf	_flags+1,w	;volatile
  6720  050F  00F0               	movwf	??_EUSART_RxDataHandler
  6721  0510  0870               	movf	??_EUSART_RxDataHandler,w
  6722  0511  00E0               	movwf	_flags	;volatile
  6723  0512                     i1l2378:
  6724                           
  6725                           ;mcc_generated_files/eusart.c: 271:     flags[1]=flags[2];
  6726  0512  0862               	movf	_flags+2,w	;volatile
  6727  0513  00F0               	movwf	??_EUSART_RxDataHandler
  6728  0514  0870               	movf	??_EUSART_RxDataHandler,w
  6729  0515  00E1               	movwf	_flags+1	;volatile
  6730  0516                     i1l2380:
  6731                           
  6732                           ;mcc_generated_files/eusart.c: 272:     flags[2]=flags[3];
  6733  0516  0863               	movf	_flags+3,w	;volatile
  6734  0517  00F0               	movwf	??_EUSART_RxDataHandler
  6735  0518  0870               	movf	??_EUSART_RxDataHandler,w
  6736  0519  00E2               	movwf	_flags+2	;volatile
  6737  051A                     i1l2382:
  6738                           
  6739                           ;mcc_generated_files/eusart.c: 273:     flags[3]=flags[4];
  6740  051A  0864               	movf	_flags+4,w	;volatile
  6741  051B  00F0               	movwf	??_EUSART_RxDataHandler
  6742  051C  0870               	movf	??_EUSART_RxDataHandler,w
  6743  051D  00E3               	movwf	_flags+3	;volatile
  6744  051E                     i1l2384:
  6745                           
  6746                           ;mcc_generated_files/eusart.c: 274:     flags[4]=flags[5];
  6747  051E  0865               	movf	_flags+5,w	;volatile
  6748  051F  00F0               	movwf	??_EUSART_RxDataHandler
  6749  0520  0870               	movf	??_EUSART_RxDataHandler,w
  6750  0521  00E4               	movwf	_flags+4	;volatile
  6751  0522                     i1l2386:
  6752                           
  6753                           ;mcc_generated_files/eusart.c: 275:     flags[5]=UltimoDadoRecebido;
  6754  0522  0021               	movlb	1	; select bank1
  6755  0523  086E               	movf	_UltimoDadoRecebido^(0+128),w	;volatile
  6756  0524  00F0               	movwf	??_EUSART_RxDataHandler
  6757  0525  0870               	movf	??_EUSART_RxDataHandler,w
  6758  0526  0020               	movlb	0	; select bank0
  6759  0527  00E5               	movwf	_flags+5	;volatile
  6760  0528                     i1l2388:
  6761                           
  6762                           ;mcc_generated_files/eusart.c: 277:     if (indice<64)
  6763  0528  3040               	movlw	64
  6764  0529  0279               	subwf	_indice,w	;volatile
  6765  052A  1803               	skipnc
  6766  052B  2D2D               	goto	u106_21
  6767  052C  2D2E               	goto	u106_20
  6768  052D                     u106_21:
  6769  052D  2D3C               	goto	i1l2394
  6770  052E                     u106_20:
  6771  052E                     i1l2390:
  6772                           
  6773                           ;mcc_generated_files/eusart.c: 278:     {;mcc_generated_files/eusart.c: 279:         Dad
      +                          osLora[indice]= UltimoDadoRecebido;
  6774  052E  0021               	movlb	1	; select bank1
  6775  052F  086E               	movf	_UltimoDadoRecebido^(0+128),w	;volatile
  6776  0530  00F0               	movwf	??_EUSART_RxDataHandler
  6777  0531  0879               	movf	_indice,w
  6778  0532  3E20               	addlw	(low (_DadosLora| (0+256)))& (0+255)
  6779  0533  0086               	movwf	6
  6780  0534  3001               	movlw	1	; select bank2/3
  6781  0535  0087               	movwf	7
  6782  0536  0870               	movf	??_EUSART_RxDataHandler,w
  6783  0537  0081               	movwf	1
  6784  0538                     i1l2392:
  6785                           
  6786                           ;mcc_generated_files/eusart.c: 280:         indice++;
  6787  0538  3001               	movlw	1
  6788  0539  00F0               	movwf	??_EUSART_RxDataHandler
  6789  053A  0870               	movf	??_EUSART_RxDataHandler,w
  6790  053B  07F9               	addwf	_indice,f	;volatile
  6791  053C                     i1l2394:
  6792                           
  6793                           ;mcc_generated_files/eusart.c: 283:     if ((flags[1]=='t')&&(flags[2]=='x')&&(flags[4]=
      +                          ='o')&&(flags[5]=='k'))
  6794  053C  3074               	movlw	116
  6795  053D  0020               	movlb	0	; select bank0
  6796  053E  0661               	xorwf	_flags+1,w	;volatile
  6797  053F  1D03               	btfss	3,2
  6798  0540  2D42               	goto	u107_21
  6799  0541  2D43               	goto	u107_20
  6800  0542                     u107_21:
  6801  0542  2D5B               	goto	i1l2404
  6802  0543                     u107_20:
  6803  0543                     i1l2396:
  6804  0543  3078               	movlw	120
  6805  0544  0662               	xorwf	_flags+2,w	;volatile
  6806  0545  1D03               	btfss	3,2
  6807  0546  2D48               	goto	u108_21
  6808  0547  2D49               	goto	u108_20
  6809  0548                     u108_21:
  6810  0548  2D5B               	goto	i1l2404
  6811  0549                     u108_20:
  6812  0549                     i1l2398:
  6813  0549  306F               	movlw	111
  6814  054A  0664               	xorwf	_flags+4,w	;volatile
  6815  054B  1D03               	btfss	3,2
  6816  054C  2D4E               	goto	u109_21
  6817  054D  2D4F               	goto	u109_20
  6818  054E                     u109_21:
  6819  054E  2D5B               	goto	i1l2404
  6820  054F                     u109_20:
  6821  054F                     i1l2400:
  6822  054F  306B               	movlw	107
  6823  0550  0665               	xorwf	_flags+5,w	;volatile
  6824  0551  1D03               	btfss	3,2
  6825  0552  2D54               	goto	u110_21
  6826  0553  2D55               	goto	u110_20
  6827  0554                     u110_21:
  6828  0554  2D5B               	goto	i1l2404
  6829  0555                     u110_20:
  6830  0555                     i1l2402:
  6831                           
  6832                           ;mcc_generated_files/eusart.c: 284:         fTxOk=1;
  6833  0555  3001               	movlw	1
  6834  0556  00F0               	movwf	??_EUSART_RxDataHandler
  6835  0557  0870               	movf	??_EUSART_RxDataHandler,w
  6836  0558  0021               	movlb	1	; select bank1
  6837  0559  00EF               	movwf	_fTxOk^(0+128)	;volatile
  6838  055A  2DB4               	goto	i1l2436
  6839  055B                     i1l2404:
  6840  055B  3074               	movlw	116
  6841  055C  0662               	xorwf	_flags+2,w	;volatile
  6842  055D  1D03               	btfss	3,2
  6843  055E  2D60               	goto	u111_21
  6844  055F  2D61               	goto	u111_20
  6845  0560                     u111_21:
  6846  0560  2D74               	goto	i1l2414
  6847  0561                     u111_20:
  6848  0561                     i1l2406:
  6849  0561  3065               	movlw	101
  6850  0562  0663               	xorwf	_flags+3,w	;volatile
  6851  0563  1D03               	btfss	3,2
  6852  0564  2D66               	goto	u112_21
  6853  0565  2D67               	goto	u112_20
  6854  0566                     u112_21:
  6855  0566  2D74               	goto	i1l2414
  6856  0567                     u112_20:
  6857  0567                     i1l2408:
  6858  0567  3072               	movlw	114
  6859  0568  0664               	xorwf	_flags+4,w	;volatile
  6860  0569  1D03               	btfss	3,2
  6861  056A  2D6C               	goto	u113_21
  6862  056B  2D6D               	goto	u113_20
  6863  056C                     u113_21:
  6864  056C  2D74               	goto	i1l2414
  6865  056D                     u113_20:
  6866  056D                     i1l2410:
  6867  056D  303D               	movlw	61
  6868  056E  0665               	xorwf	_flags+5,w	;volatile
  6869  056F  1D03               	btfss	3,2
  6870  0570  2D72               	goto	u114_21
  6871  0571  2D73               	goto	u114_20
  6872  0572                     u114_21:
  6873  0572  2D74               	goto	i1l2414
  6874  0573                     u114_20:
  6875  0573  2D55               	goto	i1l2402
  6876  0574                     i1l2414:
  6877  0574  300D               	movlw	13
  6878  0575  0662               	xorwf	_flags+2,w	;volatile
  6879  0576  1D03               	btfss	3,2
  6880  0577  2D79               	goto	u115_21
  6881  0578  2D7A               	goto	u115_20
  6882  0579                     u115_21:
  6883  0579  2D91               	goto	i1l2424
  6884  057A                     u115_20:
  6885  057A                     i1l2416:
  6886  057A  300A               	movlw	10
  6887  057B  0663               	xorwf	_flags+3,w	;volatile
  6888  057C  1D03               	btfss	3,2
  6889  057D  2D7F               	goto	u116_21
  6890  057E  2D80               	goto	u116_20
  6891  057F                     u116_21:
  6892  057F  2D91               	goto	i1l2424
  6893  0580                     u116_20:
  6894  0580                     i1l2418:
  6895  0580  304F               	movlw	79
  6896  0581  0664               	xorwf	_flags+4,w	;volatile
  6897  0582  1D03               	btfss	3,2
  6898  0583  2D85               	goto	u117_21
  6899  0584  2D86               	goto	u117_20
  6900  0585                     u117_21:
  6901  0585  2D91               	goto	i1l2424
  6902  0586                     u117_20:
  6903  0586                     i1l2420:
  6904  0586  304B               	movlw	75
  6905  0587  0665               	xorwf	_flags+5,w	;volatile
  6906  0588  1D03               	btfss	3,2
  6907  0589  2D8B               	goto	u118_21
  6908  058A  2D8C               	goto	u118_20
  6909  058B                     u118_21:
  6910  058B  2D91               	goto	i1l2424
  6911  058C                     u118_20:
  6912  058C                     i1l2422:
  6913                           
  6914                           ;mcc_generated_files/eusart.c: 288:         fOK=1;
  6915  058C  3001               	movlw	1
  6916  058D  00F0               	movwf	??_EUSART_RxDataHandler
  6917  058E  0870               	movf	??_EUSART_RxDataHandler,w
  6918  058F  00EF               	movwf	_fOK	;volatile
  6919  0590  2DB4               	goto	i1l2436
  6920  0591                     i1l2424:
  6921  0591  3041               	movlw	65
  6922  0592  0661               	xorwf	_flags+1,w	;volatile
  6923  0593  1D03               	btfss	3,2
  6924  0594  2D96               	goto	u119_21
  6925  0595  2D97               	goto	u119_20
  6926  0596                     u119_21:
  6927  0596  2DB4               	goto	i1l219
  6928  0597                     u119_20:
  6929  0597                     i1l2426:
  6930  0597  3054               	movlw	84
  6931  0598  0662               	xorwf	_flags+2,w	;volatile
  6932  0599  1D03               	btfss	3,2
  6933  059A  2D9C               	goto	u120_21
  6934  059B  2D9D               	goto	u120_20
  6935  059C                     u120_21:
  6936  059C  2DB4               	goto	i1l219
  6937  059D                     u120_20:
  6938  059D                     i1l2428:
  6939  059D  305F               	movlw	95
  6940  059E  0663               	xorwf	_flags+3,w	;volatile
  6941  059F  1D03               	btfss	3,2
  6942  05A0  2DA2               	goto	u121_21
  6943  05A1  2DA3               	goto	u121_20
  6944  05A2                     u121_21:
  6945  05A2  2DB4               	goto	i1l219
  6946  05A3                     u121_20:
  6947  05A3                     i1l2430:
  6948  05A3  3045               	movlw	69
  6949  05A4  0664               	xorwf	_flags+4,w	;volatile
  6950  05A5  1D03               	btfss	3,2
  6951  05A6  2DA8               	goto	u122_21
  6952  05A7  2DA9               	goto	u122_20
  6953  05A8                     u122_21:
  6954  05A8  2DB4               	goto	i1l219
  6955  05A9                     u122_20:
  6956  05A9                     i1l2432:
  6957  05A9  3052               	movlw	82
  6958  05AA  0665               	xorwf	_flags+5,w	;volatile
  6959  05AB  1D03               	btfss	3,2
  6960  05AC  2DAE               	goto	u123_21
  6961  05AD  2DAF               	goto	u123_20
  6962  05AE                     u123_21:
  6963  05AE  2DB4               	goto	i1l219
  6964  05AF                     u123_20:
  6965  05AF                     i1l2434:
  6966                           
  6967                           ;mcc_generated_files/eusart.c: 290:         fATerr=1;
  6968  05AF  3001               	movlw	1
  6969  05B0  00F0               	movwf	??_EUSART_RxDataHandler
  6970  05B1  0870               	movf	??_EUSART_RxDataHandler,w
  6971  05B2  00EE               	movwf	_fATerr	;volatile
  6972  05B3  2DB4               	goto	i1l2436
  6973  05B4                     i1l219:
  6974  05B4                     i1l2436:
  6975                           
  6976                           ;mcc_generated_files/eusart.c: 292:     if (indice==17)
  6977  05B4  3011               	movlw	17
  6978  05B5  0679               	xorwf	_indice,w	;volatile
  6979  05B6  1D03               	btfss	3,2
  6980  05B7  2DB9               	goto	u124_21
  6981  05B8  2DBA               	goto	u124_20
  6982  05B9                     u124_21:
  6983  05B9  2DD9               	goto	i1l2450
  6984  05BA                     u124_20:
  6985  05BA                     i1l2438:
  6986                           
  6987                           ;mcc_generated_files/eusart.c: 293:     {;mcc_generated_files/eusart.c: 294:         __n
      +                          op();
  6988  05BA  0000               	nop
  6989  05BB                     i1l2440:
  6990                           
  6991                           ;mcc_generated_files/eusart.c: 295:         if ( (DadosLora[ 2] == 'E')&&
  6992  05BB  3045               	movlw	69
  6993  05BC  0022               	movlb	2	; select bank2
  6994  05BD  0622               	xorwf	(_DadosLora^(0+256)+2),w	;volatile
  6995  05BE  1D03               	btfss	3,2
  6996  05BF  2DC1               	goto	u125_21
  6997  05C0  2DC2               	goto	u125_20
  6998  05C1                     u125_21:
  6999  05C1  2DD9               	goto	i1l2450
  7000  05C2                     u125_20:
  7001  05C2                     i1l2442:
  7002  05C2  3041               	movlw	65
  7003  05C3  0623               	xorwf	(_DadosLora^(0+256)+3),w	;volatile
  7004  05C4  1D03               	btfss	3,2
  7005  05C5  2DC7               	goto	u126_21
  7006  05C6  2DC8               	goto	u126_20
  7007  05C7                     u126_21:
  7008  05C7  2DD9               	goto	i1l2450
  7009  05C8                     u126_20:
  7010  05C8                     i1l2444:
  7011  05C8  3045               	movlw	69
  7012  05C9  062E               	xorwf	(_DadosLora^(0+256)+14),w	;volatile
  7013  05CA  1D03               	btfss	3,2
  7014  05CB  2DCD               	goto	u127_21
  7015  05CC  2DCE               	goto	u127_20
  7016  05CD                     u127_21:
  7017  05CD  2DD9               	goto	i1l2450
  7018  05CE                     u127_20:
  7019  05CE                     i1l2446:
  7020  05CE  3042               	movlw	66
  7021  05CF  062F               	xorwf	(_DadosLora^(0+256)+15),w	;volatile
  7022  05D0  1D03               	btfss	3,2
  7023  05D1  2DD3               	goto	u128_21
  7024  05D2  2DD4               	goto	u128_20
  7025  05D3                     u128_21:
  7026  05D3  2DD9               	goto	i1l2450
  7027  05D4                     u128_20:
  7028  05D4                     i1l2448:
  7029                           
  7030                           ;mcc_generated_files/eusart.c: 299:         {;mcc_generated_files/eusart.c: 300:        
      +                               fRetLora=1;
  7031  05D4  3001               	movlw	1
  7032  05D5  00F0               	movwf	??_EUSART_RxDataHandler
  7033  05D6  0870               	movf	??_EUSART_RxDataHandler,w
  7034  05D7  0021               	movlb	1	; select bank1
  7035  05D8  00ED               	movwf	_fRetLora^(0+128)	;volatile
  7036  05D9                     i1l2450:
  7037                           
  7038                           ;mcc_generated_files/eusart.c: 304:     if ( (DadosLora[2]=='I')&&(DadosLora[7]=='D') )
  7039  05D9  3049               	movlw	73
  7040  05DA  0022               	movlb	2	; select bank2
  7041  05DB  0622               	xorwf	(_DadosLora^(0+256)+2),w	;volatile
  7042  05DC  1D03               	btfss	3,2
  7043  05DD  2DDF               	goto	u129_21
  7044  05DE  2DE0               	goto	u129_20
  7045  05DF                     u129_21:
  7046  05DF  2E03               	goto	i1l2456
  7047  05E0                     u129_20:
  7048  05E0                     i1l2452:
  7049  05E0  3044               	movlw	68
  7050  05E1  0627               	xorwf	(_DadosLora^(0+256)+7),w	;volatile
  7051  05E2  1D03               	btfss	3,2
  7052  05E3  2DE5               	goto	u130_21
  7053  05E4  2DE6               	goto	u130_20
  7054  05E5                     u130_21:
  7055  05E5  2E03               	goto	i1l2456
  7056  05E6                     u130_20:
  7057  05E6                     i1l2454:
  7058                           
  7059                           ;mcc_generated_files/eusart.c: 305:     {;mcc_generated_files/eusart.c: 306:         fPr
      +                          ogID=1;
  7060  05E6  3001               	movlw	1
  7061  05E7  00F0               	movwf	??_EUSART_RxDataHandler
  7062  05E8  0870               	movf	??_EUSART_RxDataHandler,w
  7063  05E9  0021               	movlb	1	; select bank1
  7064  05EA  00EC               	movwf	_fProgID^(0+128)	;volatile
  7065                           
  7066                           ;mcc_generated_files/eusart.c: 307:         ID[0] = DadosLora[3]; ID[1] = DadosLora[4];
  7067  05EB  0022               	movlb	2	; select bank2
  7068  05EC  0823               	movf	(_DadosLora^(0+256)+3),w	;volatile
  7069  05ED  00F0               	movwf	??_EUSART_RxDataHandler
  7070  05EE  0870               	movf	??_EUSART_RxDataHandler,w
  7071  05EF  0021               	movlb	1	; select bank1
  7072  05F0  00D6               	movwf	_ID^(0+128)	;volatile
  7073  05F1  0022               	movlb	2	; select bank2
  7074  05F2  0824               	movf	(_DadosLora^(0+256)+4),w	;volatile
  7075  05F3  00F0               	movwf	??_EUSART_RxDataHandler
  7076  05F4  0870               	movf	??_EUSART_RxDataHandler,w
  7077  05F5  0021               	movlb	1	; select bank1
  7078  05F6  00D7               	movwf	(_ID^(0+128)+1)	;volatile
  7079                           
  7080                           ;mcc_generated_files/eusart.c: 308:         ID[2] = DadosLora[5]; ID[3] = DadosLora[6];
  7081  05F7  0022               	movlb	2	; select bank2
  7082  05F8  0825               	movf	(_DadosLora^(0+256)+5),w	;volatile
  7083  05F9  00F0               	movwf	??_EUSART_RxDataHandler
  7084  05FA  0870               	movf	??_EUSART_RxDataHandler,w
  7085  05FB  0021               	movlb	1	; select bank1
  7086  05FC  00D8               	movwf	(_ID^(0+128)+2)	;volatile
  7087  05FD  0022               	movlb	2	; select bank2
  7088  05FE  0826               	movf	(_DadosLora^(0+256)+6),w	;volatile
  7089  05FF  00F0               	movwf	??_EUSART_RxDataHandler
  7090  0600  0870               	movf	??_EUSART_RxDataHandler,w
  7091  0601  0021               	movlb	1	; select bank1
  7092  0602  00D9               	movwf	(_ID^(0+128)+3)	;volatile
  7093  0603                     i1l2456:
  7094                           
  7095                           ;mcc_generated_files/eusart.c: 310:     __nop();
  7096  0603  0000               	nop
  7097  0604                     i1l2458:
  7098                           
  7099                           ;mcc_generated_files/eusart.c: 311:     __nop();
  7100  0604  0000               	nop
  7101  0605                     i1l2460:
  7102                           
  7103                           ;mcc_generated_files/eusart.c: 312:     __nop();
  7104  0605  0000               	nop
  7105  0606                     i1l2462:
  7106                           
  7107                           ;mcc_generated_files/eusart.c: 314:     eusartRxBuffer[eusartRxHead++] = UltimoDadoReceb
      +                          ido;
  7108  0606  0021               	movlb	1	; select bank1
  7109  0607  086E               	movf	_UltimoDadoRecebido^(0+128),w	;volatile
  7110  0608  00F0               	movwf	??_EUSART_RxDataHandler
  7111  0609  0868               	movf	_eusartRxHead^(0+128),w
  7112  060A  3E20               	addlw	(low (_eusartRxBuffer| 0))& (0+255)
  7113  060B  0086               	movwf	6
  7114  060C  0187               	clrf	7
  7115  060D  0870               	movf	??_EUSART_RxDataHandler,w
  7116  060E  0081               	movwf	1
  7117  060F                     i1l2464:
  7118  060F  3001               	movlw	1
  7119  0610  00F0               	movwf	??_EUSART_RxDataHandler
  7120  0611  0870               	movf	??_EUSART_RxDataHandler,w
  7121  0612  07E8               	addwf	_eusartRxHead^(0+128),f	;volatile
  7122  0613                     i1l2466:
  7123                           
  7124                           ;mcc_generated_files/eusart.c: 315:     if(sizeof(eusartRxBuffer) <= eusartRxHead)
  7125  0613  3040               	movlw	64
  7126  0614  0268               	subwf	_eusartRxHead^(0+128),w	;volatile
  7127  0615  1C03               	skipc
  7128  0616  2E18               	goto	u131_21
  7129  0617  2E19               	goto	u131_20
  7130  0618                     u131_21:
  7131  0618  2E1A               	goto	i1l2470
  7132  0619                     u131_20:
  7133  0619                     i1l2468:
  7134                           
  7135                           ;mcc_generated_files/eusart.c: 316:     {;mcc_generated_files/eusart.c: 317:         eus
      +                          artRxHead = 0;
  7136  0619  01E8               	clrf	_eusartRxHead^(0+128)	;volatile
  7137  061A                     i1l2470:
  7138                           
  7139                           ;mcc_generated_files/eusart.c: 319:     eusartRxCount++;
  7140  061A  3001               	movlw	1
  7141  061B  00F0               	movwf	??_EUSART_RxDataHandler
  7142  061C  0870               	movf	??_EUSART_RxDataHandler,w
  7143  061D  07E6               	addwf	_eusartRxCount^(0+128),f	;volatile
  7144  061E                     i1l227:
  7145  061E  0008               	return
  7146  061F                     __end_of_EUSART_RxDataHandler:
  7147  007E                     btemp	set	126	;btemp
  7148  007E                     int$flags	set	126
  7149  007E                     wtemp0	set	126
  7150                           
  7151                           	psect	config
  7152                           
  7153                           ;Config register CONFIG1 @ 0x8007
  7154                           ;	Oscillator Selection
  7155                           ;	FOSC = INTOSC, INTOSC oscillator: I/O function on CLKIN pin
  7156                           ;	Watchdog Timer Enable
  7157                           ;	WDTE = SWDTEN, WDT controlled by the SWDTEN bit in the WDTCON register
  7158                           ;	Power-up Timer Enable
  7159                           ;	PWRTE = OFF, PWRT disabled
  7160                           ;	MCLR Pin Function Select
  7161                           ;	MCLRE = ON, MCLR/VPP pin function is MCLR
  7162                           ;	Flash Program Memory Code Protection
  7163                           ;	CP = ON, Program memory code protection is enabled
  7164                           ;	Data Memory Code Protection
  7165                           ;	CPD = ON, Data memory code protection is enabled
  7166                           ;	Brown-out Reset Enable
  7167                           ;	BOREN = ON, Brown-out Reset enabled
  7168                           ;	Clock Out Enable
  7169                           ;	CLKOUTEN = OFF, CLKOUT function is disabled. I/O or oscillator function on the CLKOUT 
      +                          pin
  7170                           ;	Internal/External Switchover
  7171                           ;	IESO = ON, Internal/External Switchover mode is enabled
  7172                           ;	Fail-Safe Clock Monitor Enable
  7173                           ;	FCMEN = ON, Fail-Safe Clock Monitor is enabled
  7174  8007                     	org	32775
  7175  8007  3E6C               	dw	15980
  7176                           
  7177                           ;Config register CONFIG2 @ 0x8008
  7178                           ;	Flash Memory Self-Write Protection
  7179                           ;	WRT = OFF, Write protection off
  7180                           ;	PLL Enable
  7181                           ;	PLLEN = OFF, 4x PLL disabled
  7182                           ;	Stack Overflow/Underflow Reset Enable
  7183                           ;	STVREN = ON, Stack Overflow or Underflow will cause a Reset
  7184                           ;	Brown-out Reset Voltage Selection
  7185                           ;	BORV = LO, Brown-out Reset Voltage (Vbor), low trip point selected.
  7186                           ;	Low-Voltage Programming Enable
  7187                           ;	LVP = OFF, High-voltage on MCLR/VPP must be used for programming
  7188  8008                     	org	32776
  7189  8008  1EFF               	dw	7935

Data Sizes:
    Strings     0
    Constant    111
    Data        0
    BSS         340
    Persistent  34
    Stack       0

Auto Spaces:
    Space          Size  Autos    Used
    COMMON           14      9      10
    BANK0            80      0      80
    BANK1            80      0      80
    BANK2            80      0      80
    BANK3            80      0      80
    BANK4            32      4      25

Pointer List with Targets:

    EUSART_SetRxInterruptHandler@interruptHandler	PTR FTN()void  size(2) Largest target is 1
		 -> EUSART_Receive_ISR(), 

    EUSART_SetTxInterruptHandler@interruptHandler	PTR FTN()void  size(2) Largest target is 1
		 -> EUSART_Transmit_ISR(), 

    EUSART_SetErrorHandler@interruptHandler	PTR FTN()void  size(2) Largest target is 1
		 -> EUSART_DefaultErrorHandler(), 

    EUSART_SetOverrunErrorHandler@interruptHandler	PTR FTN()void  size(2) Largest target is 1
		 -> EUSART_DefaultOverrunErrorHandler(), 

    EUSART_SetFramingErrorHandler@interruptHandler	PTR FTN()void  size(2) Largest target is 1
		 -> EUSART_DefaultFramingErrorHandler(), 

    EUSART_ErrorHandler	PTR FTN()void  size(2) Largest target is 1
		 -> Absolute function(), EUSART_DefaultErrorHandler(), 

    EUSART_OverrunErrorHandler	PTR FTN()void  size(2) Largest target is 1
		 -> Absolute function(), EUSART_DefaultOverrunErrorHandler(), 

    EUSART_FramingErrorHandler	PTR FTN()void  size(2) Largest target is 1
		 -> Absolute function(), EUSART_DefaultFramingErrorHandler(), 

    EUSART_RxDefaultInterruptHandler	PTR FTN()void  size(2) Largest target is 1
		 -> Absolute function(), EUSART_Receive_ISR(), 

    EUSART_TxDefaultInterruptHandler	PTR FTN()void  size(2) Largest target is 1
		 -> Absolute function(), EUSART_Transmit_ISR(), 


Critical Paths under _main in COMMON

    _main->___lwdiv
    _TX_Lora->_SM_CFOFF
    _TX_Lora->_SM_CONFIGRADIO
    _SM_CONFIGRADIO->_EUSART_Write
    _SM_CFOFF->_EUSART_Write
    _SM_START->_SM_RESET
    _SM_RESET->_EUSART_Write
    _SM_MODORX->_EUSART_Write
    _ErrCode->_ModuloOff
    _EUSART_Initialize->_EUSART_SetErrorHandler
    _EUSART_Initialize->_EUSART_SetFramingErrorHandler
    _EUSART_Initialize->_EUSART_SetOverrunErrorHandler
    _EUSART_Initialize->_EUSART_SetRxInterruptHandler
    _EUSART_Initialize->_EUSART_SetTxInterruptHandler

Critical Paths under _INTERRUPT_InterruptManager in COMMON

    _INTERRUPT_InterruptManager->_EUSART_Transmit_ISR
    _EUSART_Receive_ISR->_EUSART_RxDataHandler
    _EUSART_DefaultErrorHandler->_EUSART_RxDataHandler

Critical Paths under _main in BANK0

    None.

Critical Paths under _INTERRUPT_InterruptManager in BANK0

    None.

Critical Paths under _main in BANK1

    None.

Critical Paths under _INTERRUPT_InterruptManager in BANK1

    None.

Critical Paths under _main in BANK2

    None.

Critical Paths under _INTERRUPT_InterruptManager in BANK2

    None.

Critical Paths under _main in BANK3

    None.

Critical Paths under _INTERRUPT_InterruptManager in BANK3

    None.

Critical Paths under _main in BANK4

    None.

Critical Paths under _INTERRUPT_InterruptManager in BANK4

    None.

Call Graph Tables:

 ---------------------------------------------------------------------------------
 (Depth) Function   	        Calls       Base Space   Used Autos Params    Refs
 ---------------------------------------------------------------------------------
 (0) _main                                                 4     4      0    3862
                                              0 BANK4      4     4      0
                  _EUSART_Initialize
                       _EUSART_Reset
                       _EUSART_Write
                            _ErrCode
                          _ModuloOff
              _OSCILLATOR_Initialize
             _PIN_MANAGER_Initialize
                           _SM_CFOFF
                     _SM_CONFIGRADIO
                          _SM_MODORX
                           _SM_START
                            _TX_Lora
                     _WDT_Initialize
                            ___lwdiv
                            ___lwmod
                             ___wmul
 ---------------------------------------------------------------------------------
 (1) ___wmul                                               6     2      4     852
                                              1 COMMON     6     2      4
 ---------------------------------------------------------------------------------
 (1) ___lwmod                                              6     2      4    1071
                                              1 COMMON     6     2      4
 ---------------------------------------------------------------------------------
 (1) ___lwdiv                                              8     4      4    1074
                                              1 COMMON     8     4      4
 ---------------------------------------------------------------------------------
 (1) _WDT_Initialize                                       0     0      0       0
 ---------------------------------------------------------------------------------
 (1) _TX_Lora                                              1     1      0     132
                                              5 COMMON     1     1      0
                       _EUSART_Reset
                       _EUSART_Write
                        _Espera_TxOk
                           _ModuloOn
                           _SM_CFOFF
                     _SM_CONFIGRADIO
 ---------------------------------------------------------------------------------
 (2) _SM_CONFIGRADIO                                       3     3      0      44
                                              3 COMMON     2     2      0
                       _EUSART_Reset
                       _EUSART_Write
 ---------------------------------------------------------------------------------
 (2) _SM_CFOFF                                             2     2      0      44
                                              3 COMMON     2     2      0
                       _EUSART_Reset
                       _EUSART_Write
 ---------------------------------------------------------------------------------
 (2) _Espera_TxOk                                          1     1      0       0
                                              1 COMMON     1     1      0
 ---------------------------------------------------------------------------------
 (1) _SM_START                                             1     1      0      44
                                              5 COMMON     1     1      0
                       _EUSART_Reset
                           _ModuloOn
                           _SM_RESET
 ---------------------------------------------------------------------------------
 (2) _SM_RESET                                             2     2      0      44
                                              3 COMMON     2     2      0
                       _EUSART_Reset
                       _EUSART_Write
 ---------------------------------------------------------------------------------
 (2) _ModuloOn                                             2     2      0       0
                                              1 COMMON     2     2      0
 ---------------------------------------------------------------------------------
 (1) _SM_MODORX                                            3     3      0      44
                                              3 COMMON     2     2      0
                       _EUSART_Reset
                       _EUSART_Write
 ---------------------------------------------------------------------------------
 (3) _EUSART_Write                                         2     2      0      44
                                              1 COMMON     2     2      0
 ---------------------------------------------------------------------------------
 (3) _EUSART_Reset                                         1     1      0       0
                                              1 COMMON     1     1      0
 ---------------------------------------------------------------------------------
 (1) _PIN_MANAGER_Initialize                               0     0      0       0
 ---------------------------------------------------------------------------------
 (1) _OSCILLATOR_Initialize                                0     0      0       0
 ---------------------------------------------------------------------------------
 (1) _ErrCode                                              4     4      0      23
                                              2 COMMON     3     3      0
                          _ModuloOff
 ---------------------------------------------------------------------------------
 (1) _ModuloOff                                            1     1      0       0
                                              1 COMMON     1     1      0
 ---------------------------------------------------------------------------------
 (1) _EUSART_Initialize                                    1     1      0     490
                                              3 COMMON     1     1      0
             _EUSART_SetErrorHandler
      _EUSART_SetFramingErrorHandler
      _EUSART_SetOverrunErrorHandler
       _EUSART_SetRxInterruptHandler
       _EUSART_SetTxInterruptHandler
 ---------------------------------------------------------------------------------
 (2) _EUSART_SetTxInterruptHandler                         2     0      2      98
                                              1 COMMON     2     0      2
 ---------------------------------------------------------------------------------
 (2) _EUSART_SetRxInterruptHandler                         2     0      2      98
                                              1 COMMON     2     0      2
 ---------------------------------------------------------------------------------
 (2) _EUSART_SetOverrunErrorHandler                        2     0      2      98
                                              1 COMMON     2     0      2
 ---------------------------------------------------------------------------------
 (2) _EUSART_SetFramingErrorHandler                        2     0      2      98
                                              1 COMMON     2     0      2
 ---------------------------------------------------------------------------------
 (2) _EUSART_SetErrorHandler                               2     0      2      98
                                              1 COMMON     2     0      2
 ---------------------------------------------------------------------------------
 Estimated maximum stack depth 3
 ---------------------------------------------------------------------------------
 (Depth) Function   	        Calls       Base Space   Used Autos Params    Refs
 ---------------------------------------------------------------------------------
 (4) _INTERRUPT_InterruptManager                           0     0      0       0
                   Absolute function *
                 _EUSART_Receive_ISR *
                _EUSART_Transmit_ISR *
 ---------------------------------------------------------------------------------
 (5) _EUSART_Transmit_ISR                                  1     1      0       0
                                              0 COMMON     1     1      0
 ---------------------------------------------------------------------------------
 (5) _EUSART_Receive_ISR                                   0     0      0       0
                   Absolute function *
         _EUSART_DefaultErrorHandler *
  _EUSART_DefaultFramingErrorHandler *
  _EUSART_DefaultOverrunErrorHandler *
               _EUSART_RxDataHandler
 ---------------------------------------------------------------------------------
 (6) _EUSART_DefaultOverrunErrorHandler                    0     0      0       0
 ---------------------------------------------------------------------------------
 (6) _EUSART_DefaultFramingErrorHandler                    0     0      0       0
 ---------------------------------------------------------------------------------
 (6) _EUSART_DefaultErrorHandler                           0     0      0       0
               _EUSART_RxDataHandler
 ---------------------------------------------------------------------------------
 (6) _EUSART_RxDataHandler                                 1     1      0       0
                                              0 COMMON     1     1      0
 ---------------------------------------------------------------------------------
 (6) Absolute function(Fake)                               0     0      0       0
 ---------------------------------------------------------------------------------
 Estimated maximum stack depth 6
 ---------------------------------------------------------------------------------

 Call Graph Graphs:

 _main (ROOT)
   _EUSART_Initialize
     _EUSART_SetErrorHandler
     _EUSART_SetFramingErrorHandler
     _EUSART_SetOverrunErrorHandler
     _EUSART_SetRxInterruptHandler
     _EUSART_SetTxInterruptHandler
   _EUSART_Reset
   _EUSART_Write
   _ErrCode
     _ModuloOff
   _ModuloOff
   _OSCILLATOR_Initialize
   _PIN_MANAGER_Initialize
   _SM_CFOFF
     _EUSART_Reset
     _EUSART_Write
   _SM_CONFIGRADIO
     _EUSART_Reset
     _EUSART_Write
   _SM_MODORX
     _EUSART_Reset
     _EUSART_Write
   _SM_START
     _EUSART_Reset
     _ModuloOn
     _SM_RESET
       _EUSART_Reset
       _EUSART_Write
   _TX_Lora
     _EUSART_Reset
     _EUSART_Write
     _Espera_TxOk
     _ModuloOn
     _SM_CFOFF
     _SM_CONFIGRADIO
   _WDT_Initialize
   ___lwdiv
   ___lwmod
   ___wmul

 _INTERRUPT_InterruptManager (ROOT)
   Absolute function(Fake) *
   _EUSART_Receive_ISR *
     Absolute function(Fake) *
     _EUSART_DefaultErrorHandler *
       _EUSART_RxDataHandler
     _EUSART_DefaultFramingErrorHandler *
     _EUSART_DefaultOverrunErrorHandler *
     _EUSART_RxDataHandler *
   _EUSART_Transmit_ISR *

 Address spaces:
Name               Size   Autos  Total    Cost      Usage
BIGRAM             160      0       0       0        0.0%
EEDATA             100      0       0       0        0.0%
NULL                 0      0       0       0        0.0%
CODE                 0      0       0       0        0.0%
BITCOMMON            E      0       0       1        0.0%
BITSFR0              0      0       0       1        0.0%
SFR0                 0      0       0       1        0.0%
COMMON               E      9       A       2       71.4%
BITSFR1              0      0       0       2        0.0%
SFR1                 0      0       0       2        0.0%
BITSFR2              0      0       0       3        0.0%
SFR2                 0      0       0       3        0.0%
STACK                0      0       0       3        0.0%
BITSFR3              0      0       0       4        0.0%
SFR3                 0      0       0       4        0.0%
ABS                  0      0     163       4        0.0%
BITBANK0            50      0       0       5        0.0%
BITSFR4              0      0       0       5        0.0%
SFR4                 0      0       0       5        0.0%
BANK0               50      0      50       6      100.0%
BITSFR5              0      0       0       6        0.0%
SFR5                 0      0       0       6        0.0%
BITBANK1            50      0       0       7        0.0%
BITSFR6              0      0       0       7        0.0%
SFR6                 0      0       0       7        0.0%
BANK1               50      0      50       8      100.0%
BITSFR7              0      0       0       8        0.0%
SFR7                 0      0       0       8        0.0%
BITBANK2            50      0       0       9        0.0%
BITSFR8              0      0       0       9        0.0%
SFR8                 0      0       0       9        0.0%
BANK2               50      0      50      10      100.0%
BITSFR9              0      0       0      10        0.0%
SFR9                 0      0       0      10        0.0%
BITBANK3            50      0       0      11        0.0%
BITSFR10             0      0       0      11        0.0%
SFR10                0      0       0      11        0.0%
BANK3               50      0      50      12      100.0%
BITSFR11             0      0       0      12        0.0%
SFR11                0      0       0      12        0.0%
BITBANK4            20      0       0      13        0.0%
BITSFR12             0      0       0      13        0.0%
SFR12                0      0       0      13        0.0%
BANK4               20      4      19      14       78.1%
BITSFR13             0      0       0      14        0.0%
SFR13                0      0       0      14        0.0%
BITSFR14             0      0       0      15        0.0%
SFR14                0      0       0      15        0.0%
DATA                 0      0     163      15        0.0%
BITSFR15             0      0       0      16        0.0%
SFR15                0      0       0      16        0.0%
BITSFR16             0      0       0      17        0.0%
SFR16                0      0       0      17        0.0%
BITSFR17             0      0       0      18        0.0%
SFR17                0      0       0      18        0.0%
BITSFR18             0      0       0      19        0.0%
SFR18                0      0       0      19        0.0%
BITSFR19             0      0       0      20        0.0%
SFR19                0      0       0      20        0.0%
BITSFR20             0      0       0      21        0.0%
SFR20                0      0       0      21        0.0%
BITSFR21             0      0       0      22        0.0%
SFR21                0      0       0      22        0.0%
BITSFR22             0      0       0      23        0.0%
SFR22                0      0       0      23        0.0%
BITSFR23             0      0       0      24        0.0%
SFR23                0      0       0      24        0.0%
BITSFR24             0      0       0      25        0.0%
SFR24                0      0       0      25        0.0%
BITSFR25             0      0       0      26        0.0%
SFR25                0      0       0      26        0.0%
BITSFR26             0      0       0      27        0.0%
SFR26                0      0       0      27        0.0%
BITSFR27             0      0       0      28        0.0%
SFR27                0      0       0      28        0.0%
BITSFR28             0      0       0      29        0.0%
SFR28                0      0       0      29        0.0%
BITSFR29             0      0       0      30        0.0%
SFR29                0      0       0      30        0.0%
BITSFR30             0      0       0      31        0.0%
SFR30                0      0       0      31        0.0%
BITSFR31             0      0       0      32        0.0%
SFR31                0      0       0      32        0.0%


Microchip Technology PIC Macro Assembler V2.32 build 20210201212658 
Symbol Table                                                                                   Mon Oct 25 08:17:44 2021

                ?_EUSART_SetRxInterruptHandler 0071                                             l14 0DA9  
                                           l17 0D7E                                             _ID 00D6  
                                           _HH 022A                                             _LL 0229  
                          ___wmul@multiplicand 0073                                            l202 0D90  
                                          l211 0D96                                            l205 0D84  
                                          l143 07B0                                            l208 0D9C  
                                          l146 07EF                                            l170 0E41  
                                          l171 0E49                                            l252 0DD5  
                                          l174 0E61                                            l520 0E37  
                                          l169 0E3A                                            l612 0115  
                                          l533 0F1D                                            l622 0246  
                                          l614 0127                                            l199 0D8A  
                                          l527 0EBF                                            l623 0244  
                                          l472 0F1E                                            l632 0263  
                                          l481 0DAA                                            l561 0766  
                                          l545 0EEE                                            l641 045C  
                                          l609 0104                                            l539 0E90  
                                          l475 0F29                                            l484 0DB5  
                                          l628 0255                                            l485 0DBC  
                                          l573 06A0                                            l478 0F51  
                                          l566 0620                                            l806 0DE0  
                                          l808 0DF4                                            l579 006A  
                                          _fAT 00E4                                            _fOK 006F  
                       ??_EUSART_RxDataHandler 0070                                            _tMs 0164  
               ?_EUSART_SetFramingErrorHandler 0071                                            wreg 0009  
                                         l1086 0FC1                                           l1096 0F85  
                                         l2330 076F                                           l2340 07A7  
                                         l2332 0780                                           l2324 0767  
                                         l2500 0F41                                           l3300 00D7  
                                         l2510 0DB3                                           l2350 07AE  
                                         l2342 07AA                                           l2326 0768  
                                         l2502 0F42                                           l3310 00E5  
                                         l3302 00DC                                           l2344 07AB  
                                         l2336 0785                                           l2360 0E52  
                                         l2352 0E39                                           l2504 0F43  
                                         l2520 0E91                                           l2512 0E16  
                                         l3400 022A                                           l3320 00F1  
                                         l3312 00E9                                           l3304 00E0  
                                         l2346 07AC                                           l2338 07A6  
                                         l2362 0E56                                           l2354 0E3B  
                                         l2506 0F44                                           l2530 0EB3  
                                         l2522 0E94                                           l2514 0E1A  
                                         l3410 0256                                           l3402 0233  
                                         l3330 00FD                                           l3322 00F2  
                                         l3314 00EA                                           l3306 00E1  
                                         l3250 0068                                           l2508 0DAC  
                                         l2348 07AD                                           l2364 0E5C  
                                         l2356 0E45                                           l2524 0E97  
                                         l2700 0722                                           l2540 0F05  
                                         l2532 0EEF                                           l3500 03C8  
                                         l3420 0272                                           l3412 0259  
                                         l3404 0239                                           l3340 0122  
                                         l3332 00FE                                           l3324 00F5  
                                         l3316 00EE                                           l3308 00E4  
                                         l3260 007F                                           l3252 006D  
                                         l3244 005B                                           l2630 0DBF  
                                         l2366 0E5D                                           l2358 0E4A  
                                         l2526 0EA2                                           l2702 0723  
                                         l2518 0E31                                           l2550 0ED1  
                                         l2542 0F11                                           l2534 0EF2  
                                         l3510 03F6                                           l3502 03DC  
                                         l3430 02A5                                           l3422 0274  
                                         l3406 023D                                           l3350 0137  
                                         l3342 0129                                           l3326 00F8  
                                         l3318 00EF                                           l3270 009D  
                                         l3262 0080                                           l3254 006F  
                                         l3246 005D                                           l2480 0D7F  
                                         l2472 0D91                                           l2560 0DA7  
                                         l2640 0DCD                                           l2632 0DC1  
                                         l2368 0E5F                                           l2528 0EA7  
                                         l2712 0744                                           l2704 0726  
                                         l2552 0ED6                                           l2544 0EC0  
                                         l2536 0EF5                                           l2800 0F52  
                                         l3600 04EE                                           l3520 0419  
                                         l3512 03FD                                           l3504 03E7  
                                         l3440 02AF                                           l3432 02A7  
                                         l3424 0279                                           l3408 024B  
                                         l3416 0265                                           l3360 018A  
                                         l3352 0148                                           l3344 012C  
                                         l3336 0106                                           l3328 00FC  
                                         l3280 00B0                                           l3272 009F  
                                         l3264 008D                                           l3256 0070  
                                         l3248 0066                                           l2474 0D97  
                                         l2570 07C3                                           l2650 06A6  
                                         l2642 0DCE                                           l2634 0DC4  
                                         l2490 0F3B                                           l2722 075A  
                                         l2714 074E                                           l2706 0729  
                                         l2554 0EE2                                           l2546 0EC3  
                                         l2538 0F00                                           l2730 061F  
                                         l2562 0D7B                                           l2810 0F68  
                                         l2802 0F58                                           l3602 04EF  
                                         l3530 043C                                           l3522 0420  
                                         l3514 0404                                           l3506 03E8  
                                         l3450 02C3                                           l3442 02B0  
                                         l3434 02A8                                           l3426 0283  
                                         l3418 0269                                           l3370 01B3  
                                         l3362 019B                                           l3354 0158  
                                         l3346 0131                                           l3338 0113  
                                         l3290 00C7                                           l3282 00BD  
                                         l3274 00A0                                           l3266 008F  
                                         l3258 007D                                           l2476 0D85  
                                         l2580 07CE                                           l2572 07C6  
                                         l2564 07B1                                           l2660 06C2  
                                         l2652 06A8                                           l2644 06A2  
                                         l2556 0DA3                                           l2636 0DC6  
                                         l2628 0DBD                                           l2492 0F3C  
                                         l2716 0758                                           l2708 072D  
                                         l2724 075F                                           l2548 0EC6  
                                         l2740 062D                                           l2732 0622  
                                         l2812 0F72                                           l2804 0F5B  
                                         l3604 04F3                                           l3540 046B  
                                         l3532 0443                                           l3524 0427  
                                         l3516 040B                                           l3508 03EF  
                                         l3460 02D6                                           l3444 02B4  
                                         l3436 02AB                                           l3428 0287  
                                         l3452 02C7                                           l3380 01CA  
                                         l3372 01B4                                           l3364 01A1  
                                         l3356 0169                                           l3348 0132  
                                         l3292 00CD                                           l3284 00BF  
                                         l3276 00AD                                           l3268 0090  
                                         l2478 0D8B                                           l2590 07E6  
                                         l2582 07D5                                           l2574 07C8  
                                         l2566 07B3                                           l2670 06E7  
                                         l2662 06CD                                           l2654 06B3  
                                         l2646 06A2                                           l2558 0DA6  
                                         l2638 0DCA                                           l2494 0F3D  
                                         l2486 0F20                                           l2726 0765  
                                         l2750 0644                                           l2742 062E  
                                         l2734 0625                                           l2814 0F76  
                                         l2806 0F60                                           l3606 04F4  
                                         l3550 0481                                           l3542 0471  
                                         l3534 044A                                           l3526 042E  
                                         l3518 0412                                           l3470 0329  
                                         l3462 02E7                                           l3454 02CD  
                                         l3446 02B5                                           l3438 02AC  
                                         l3390 021E                                           l3382 01D6  
                                         l3374 01B7                                           l3366 01A7  
                                         l3358 0179                                           l3294 00CE  
                                         l3286 00C0                                           l3278 00AF  
                                         l2592 07E7                                           l2584 07DC  
                                         l2576 07CA                                           l2568 07BA  
                                         l2680 0703                                           l2672 06E9  
                                         l2664 06CF                                           l2656 06B5  
                                         l2648 06A3                                           l2496 0F3E  
                                         l2488 0F27                                           l2752 0650  
                                         l2744 0631                                           l2736 0628  
                                         l2816 0F7B                                           l2808 0F64  
                                         l2760 0DD6                                           l3560 049F  
                                         l3552 0487                                           l3544 0477  
                                         l3536 044B                                           l3528 0435  
                                         l3480 0373                                           l3472 033A  
                                         l3464 02F7                                           l3456 02D1  
                                         l3448 02B9                                           l3392 0222  
                                         l3384 020E                                           l3376 01BA  
                                         l3368 01AD                                           l3296 00CF  
                                         l3288 00C1                                           l2594 07EE  
                                         l2586 07E3                                           l2578 07CC  
                                         l2682 070E                                           l2674 06F4  
                                         l2666 06DA                                           l2658 06C0  
                                         l2690 0E73                                           l2498 0F3F  
                                         l2754 069A                                           l2746 0634  
                                         l2738 0629                                           l2818 0F81  
                                         l2770 0DF0                                           l2762 0DD8  
                                         l3570 04B3                                           l3562 04A1  
                                         l3554 048D                                           l3546 0479  
                                         l3538 0456                                           l3490 0391  
                                         l3482 037A                                           l3474 034E  
                                         l3466 0308                                           l3458 02D5  
                                         l3394 0223                                           l3386 021A  
                                         l3378 01C5                                           l3298 00D0  
                                         l2588 07E5                                           l2676 06F6  
                                         l2668 06DC                                           l2692 0E78  
                                         l2684 0E62                                           l2756 069D  
                                         l2748 063F                                           l2780 0F91  
                                         l2764 0DDC                                           l3580 04CD  
                                         l3564 04AD                                           l3556 0493  
                                         l3572 04B5                                           l3548 047B  
                                         l3492 0398                                           l3484 0382  
                                         l3476 0363                                           l3468 0318  
                                         l3396 0227                                           l3388 021D  
                                         l2678 0701                                           l2694 0E84  
                                         l2686 0E65                                           l2758 069E  
                                         l2790 0FB1                                           l2782 0F96  
                                         l2774 0F86                                           l2766 0DE5  
                                         l3590 04E3                                           l3582 04D3  
                                         l3574 04BB                                           l3566 04AE  
                                         l3558 0499                                           l3494 039F  
                                         l3486 0383                                           l3478 036F  
                                         l3398 0228                                           l2688 0E68  
                                         l2696 071C                                           l2792 0FB2  
                                         l2784 0F9A                                           l2776 0F88  
                                         l2768 0DEA                                           l3592 04E4  
                                         l3584 04D9                                           l3576 04C1  
                                         l3568 04B0                                           l3496 03A0  
                                         l3488 038A                                           l2698 071F  
                                         l2794 0FB7                                           l2786 0F9E  
                                         l2778 0F8E                                           l3594 04E6  
                                         l3586 04DB                                           l3578 04C7  
                                         l3498 03B4                                           l2788 0FAD  
                                         l2796 0FBD                                           l3596 04E9  
                                         l3588 04DD                                           l3598 04EB  
                                         u1010 076E                                           u1011 076D  
                                         u1020 0E41                                           u1021 0E40  
                                         u1030 0E45                                           u1031 0E44  
                                         u1040 0E5C                                           u1041 0E5B  
                                         u2100 0244                                           u2101 0243  
                                         u2110 024B                                           u2111 024A  
                                         u1320 0E30                                           u2200 046B  
                                         u2120 0255                                           u1321 0E2F  
                                         u2201 046A                                           u2121 0254  
                                         u1330 0E37                                           u2210 0477  
                                         u2130 0263                                           u2050 00DC  
                                         u1331 0E36                                           u2211 0476  
                                         u2131 0262                                           u2051 00DB  
                                         u1420 0E84                                           u1340 0EB3  
                                         u2300 04C7                                           u2220 0481  
                                         u2140 0272                                           u2060 0103  
                                         u1421 0E83                                           u1341 0EB2  
                                         u2301 04C6                                           u2221 0480  
                                         u2205 0467                                           u2141 0271  
                                         u2061 0102                                           _LATA 010C  
                                         u1430 0743                                           u1350 0F11  
                                         u1510 0DF0                                           u2310 04CD  
                                         u2230 0487                                           u2150 0279  
                                         u2070 0127                                           _LATB 010D  
                                         u1431 0742                                           u1351 0F10  
                                         u1511 0DEF                                           u2311 04CC  
                                         u2231 0486                                           u2151 0278  
                                         u2071 0126                                           u1440 074E  
                                         u1360 0EE2                                           u1520 0F8E  
                                         u2320 04D3                                           u2240 048D  
                                         u2160 0283                                           u2080 01D6  
                                         u1441 074D                                           u1361 0EE1  
                                         u1521 0F8D                                           u1505 0DE6  
                                         u2321 04D2                                           u2241 048C  
                                         u2161 0282                                           u2081 01D5  
                                         u1450 0758                                           u1610 0F68  
                                         u2330 04D9                                           u2250 0493  
                                         u2170 02A5                                           u2090 0239  
                                         u1451 0757                                           u1611 0F67  
                                         u2331 04D8                                           u2251 0492  
                                         u2171 02A4                                           u2091 0238  
                                         u1460 0765                                           u1540 0F9E  
                                         u1620 0F72                                           u2260 0499  
                                         u2180 02CD                                           u1461 0764  
                                         u1541 0F9D                                           u1621 0F71  
                                         u1605 0F5C                                           u2261 0498  
                                         u2181 02CC                                           u1470 0650  
                                         u2270 049F                                           u2190 0456  
                                         u1471 064F                                           u1535 0F92  
                                         u2271 049E                                           u2191 0455  
                                         u2175 02A1                                           u2407 011B  
                                         u1560 0FAD                                           u1640 0F81  
                                         u1480 0DDC                                           u2280 04BB  
                                         u1561 0FAC                                           u1641 0F80  
                                         u1625 0F6E                                           u1481 0DDB  
                                         u2281 04BA                                           u2417 0214  
                                         u2290 04C1                                           u2507 0F35  
                                         u1555 0F9F                                           u1635 0F77  
                                         u2291 04C0                                           u2195 0452  
                                         u2427 022E                                           u2347 0076  
                                         u1580 0FBD                                           u2517 0F4A  
                                         u2437 0F16                                           u1581 0FBC  
                                         u1565 0FA9                                           u2357 0086  
                                         u1590 0F58                                           u2607 0708  
                                         u2527 0E89                                           u2447 0EE7  
                                         u1575 0FB3                                           u1591 0F57  
                                         u1495 0DE1                                           u2367 0096  
                                         u2617 0713                                           u2537 06AD  
                                         u2457 0E1D                                           u2377 00A6  
                                         u2627 0DAF                                           u2547 06BA  
                                         u2467 0730                                           u2387 00B6  
                                         u2637 0DB8                                           u2557 06C7  
                                         u2477 0EB8                                           u2397 010C  
                                         u2567 06D4                                           u2487 0F23  
                                         u2577 06E1                                           u2497 0F2C  
                                         u2587 06EE                                           u2597 06FB  
                                         i1l33 001A                                           i1l34 002A  
                                         i1l38 002A                                           _TIPO 01ED  
                                         _BatH 0225                                           _BatL 0224  
                                         _WPUA 020C                                           _WPUB 020D  
                                         _fRTX 016F                             _UltimoDadoRecebido 00EE  
                                         _dips 0226                                           _main 005B  
                                         _loop 0228                                           _rett 0222  
                                         fsr0h 0005                                           fsr1h 0007  
                                         indf0 0000                                           fsr0l 0004  
                                         indf1 0001                                           fsr1l 0006  
                                         btemp 007E                                           start 002C  
                                ??_Espera_TxOk 0071                               _enderecoRecebido 01E4  
                              __end_of_TX_Lora 06A1                                __end_of_ErrCode 071C  
                                  _DadosSensor 00CE                                  ?_EUSART_Reset 0070  
                                ?_EUSART_Write 0070                 __size_of_OSCILLATOR_Initialize 0007  
                __end_of_OSCILLATOR_Initialize 0DAA                                     __TXC22PING 0813  
                                        ?_main 0070                                __end_of___lwdiv 0FC2  
                                        i1l227 061E                                          i1l219 05B4  
                                        i1l180 0E15                                          i1l190 0003  
                                        i1l193 0D7A                                          i1l177 0E14  
                              __end_of___lwmod 0F86                                          i1l187 0FFF  
                                        i1l196 0D76                                          _RCREG 0199  
                                        _RCSTA 019D                                          _TRISA 008C  
                                        _TRISB 008D                                          _TXREG 019A  
                                        _TXSTA 019E                                          _fBusy 006D  
                                        _fParm 006C                                          _fTxOk 00EF  
                                        _canal 0227                                          _flags 0060  
                               _WDT_Initialize 0D7B                               __end_of_SM_CFOFF 0EEF  
                                        _temp8 0223                               __end_of_SM_RESET 0EC0  
                             __end_of_SM_START 0767                                          pclath 000A  
                           __size_of_SM_MODORX 002F                                          status 0003  
                                        wtemp0 007E                                     __TXSTART22 083E  
                              __initialization 002E                                   __end_of_main 04FB  
                               ??_EUSART_Reset 0071                                 ??_EUSART_Write 0071  
                  ?_INTERRUPT_InterruptManager 0070                            __end_of_Espera_TxOk 0E38  
               ??_EUSART_SetRxInterruptHandler 0073                                         ??_main 0233  
                             __end_of_ModuloOn 0F52                                 _SM_STATUSflags 01EE  
                       __end_of_WDT_Initialize 0D7F      __end_of_EUSART_DefaultFramingErrorHandler 0004  
   __size_of_EUSART_DefaultFramingErrorHandler 0001            ??_EUSART_DefaultFramingErrorHandler 0070  
           ?_EUSART_DefaultFramingErrorHandler 0070              _EUSART_DefaultFramingErrorHandler 0003  
                   _EUSART_OverrunErrorHandler 00DC                                         _EEADRH 0192  
                                       _EEADRL 0191                                         _EEDATH 0194  
                                       _EEDATL 0193                                         _EECON2 0196  
                                       _ANSELA 018C                                         _ANSELB 018D  
                                       _BORCON 0116                                         u110_20 0555  
                                       u110_21 0554                                         u111_20 0561  
                                       u111_21 0560                                         u120_20 059D  
                                       u112_20 0567                                         i1l2400 054F  
                                       u120_21 059C                                         u112_21 0566  
                                       i1l2410 056D                                         i1l2402 0555  
                                       i1l2420 0586                                         i1l2404 055B  
                                       i1l2430 05A3                                         i1l2422 058C  
                                       i1l2406 0561                                         i1l2414 0574  
                                       i1l2440 05BB                                         i1l2432 05A9  
                                       u121_20 05A3                                         i1l2416 057A  
                                       i1l2424 0591                                         u113_20 056D  
                                       i1l2408 0567                                         u105_20 050C  
                                       i1l2600 0E03                                         u121_21 05A2  
                                       u113_21 056C                                         u105_21 050B  
                                       i1l2442 05C2                                         i1l2450 05D9  
                                       i1l2434 05AF                                         i1l2426 0597  
                                       i1l2418 0580                                         i1l2370 04FB  
                                       i1l2610 0FC9                                         i1l2602 0E08  
                                       i1l2460 0605                                         i1l2452 05E0  
                                       i1l2444 05C8                                         i1l2428 059D  
                                       i1l2436 05B4                                         i1l2380 0516  
                                       i1l2372 0506                                         i1l2620 0FE6  
                                       i1l2612 0FCE                                         i1l2604 0E0E  
                                       i1l2470 061A                                         i1l2462 0606  
                                       i1l2454 05E6                                         i1l2446 05CE  
                                       i1l2438 05BA                                         i1l2390 052E  
                                       i1l2382 051A                                         i1l2374 050C  
                                       i1l2622 0FEB                                         i1l2614 0FD5  
                                       i1l2606 0E0F                                         i1l2464 060F  
                                       u130_20 05E6                                         i1l2456 0603  
                                       i1l2448 05D4                                         u122_20 05A9  
                                       u114_20 0573                                         i1l2392 0538  
                                       u106_20 052E                                         i1l2384 051E  
                                       i1l2376 050D                                         i1l2624 0FF6  
                                       i1l2616 0FDA                                         i1l2608 0FC2  
                                       u130_21 05E5                                         u122_21 05A8  
                                       u114_21 0572                                         u106_21 052D  
                                       i1l2466 0613                                         i1l2458 0604  
                                       i1l2394 053C                                         i1l2386 0522  
                                       i1l2378 0512                                         i1l2482 0D77  
                                       i1l2626 0FFC                                         i1l2618 0FDF  
                                       i1l2468 0619                                         i1l2396 0543  
                                       i1l2388 0528                                         i1l2484 0D73  
                                       i1l2398 0549                                         i1l2830 001F  
                                       i1l2822 0006                                         u131_20 0619  
                                       u123_20 05AF                                         u115_20 057A  
                                       u107_20 0543                                         i1l2832 0024  
                                       i1l2824 000A                                         u131_21 0618  
                                       u123_21 05AE                                         u115_21 0579  
                                       u107_21 0542                                         i1l2826 000F  
                                       i1l2596 0DF5                                         i1l2828 0014  
                                       i1l2598 0DFC                                         u124_20 05BA  
                                       u116_20 0580                                         u108_20 0549  
                                       u140_20 0FDF                                         u124_21 05B9  
                                       u116_21 057F                                         u108_21 0548  
                                       u140_21 0FDE                                         u125_20 05C2  
                                       u117_20 0586                                         u109_20 054F  
                                       u141_20 0FF6                                         u125_21 05C1  
                                       u117_21 0585                                         u109_21 054E  
                                       u141_21 0FF5                                         u126_20 05C8  
                                       u118_20 058C                                         u126_21 05C7  
                                       u118_21 058B                                         u127_20 05CE  
                                       u119_20 0597                                         u127_21 05CD  
                                       u119_21 0596                                         u128_20 05D4  
                                       u128_21 05D3                                         u129_20 05E0  
                                       u137_20 0DFC                                         u129_21 05DF  
                                       u137_21 0DFB                                         _OFFSET 016A  
                                       u138_20 0E0E                                         u138_21 0E0D  
                                       u139_20 0FCE                                         u139_21 0FCD  
                                       u165_20 000A                                         u165_21 0009  
                                       u166_20 000F                                         u166_21 000E  
                                       u167_20 0014                                         u167_21 0013  
                                       u168_20 001F                                         u168_21 001E  
                                       u169_20 0024                                         u169_21 0023  
                                       _OSCCON 0099                                         _SPBRGH 019C  
                                       _SPBRGL 019B                                         _WDTCON 0097  
                                    ??_TX_Lora 0075                                         __CFC22 07F0  
                                    ??_ErrCode 0072                                         __CFOFF 0851  
                                       __RESET 085A                                         __RXC22 082B  
                                       _fATerr 006E                                         _fDetec 00E3  
                                       ___wmul 0DD6                             __size_of_ModuloOff 0013  
                                    ??___lwdiv 0075                                      ??___lwmod 0075  
                          _EUSART_Transmit_ISR 0DF5                                         _indice 0079  
                             ??_SM_CONFIGRADIO 0073                                         _offset 01E0  
                                       _temp16 01E6                              __end_of_SM_MODORX 0E91  
                              ?_WDT_Initialize 0070                           ?_EUSART_Transmit_ISR 0070  
                           _M_EnderecoRecebido 0221                        __end_of__initialization 0057  
                                   _fRetSensor 016C           __end_of_EUSART_SetTxInterruptHandler 0D9D  
        __size_of_EUSART_SetTxInterruptHandler 0006                   _EUSART_SetTxInterruptHandler 0D97  
                                  _Espera_TxOk 0E16                                 __pcstackCOMMON 0070  
                                    ?_SM_CFOFF 0070                                      ?_SM_RESET 0070  
                                    ?_SM_START 0070                                 _OPTION_REGbits 0095  
                         _eusartRxStatusBuffer 01A0                ??_EUSART_SetOverrunErrorHandler 0073  
                        ??_EUSART_Transmit_ISR 0070                              __end_of_ModuloOff 0DBD  
                         __end_of_EUSART_Reset 07B1                                     __pbssBANK0 0020  
                                   __pbssBANK1 00A0                                     __pbssBANK2 0120  
                                   __pbssBANK3 01A0                                     __pbssBANK4 0220  
                         __end_of_EUSART_Write 0E62                    __size_of_EUSART_Receive_ISR 003E  
                                    ?_ModuloOn 0070                                     __pmaintext 005B  
                ?_EUSART_SetTxInterruptHandler 0071               _EUSART_TxDefaultInterruptHandler 006A  
                                      ?___wmul 0071                                     __pintentry 0004  
                                   ??_SM_CFOFF 0073                                        _BAUDCON 019F  
                                      _APFCON0 011D                                        _APFCON1 011E  
                 ??_EUSART_DefaultErrorHandler 0071                                     ??_SM_RESET 0073  
                                   ??_SM_START 0075                                  _eusartRxCount 00E6  
                                   _endereco_C 01EB                                     _endereco_D 01EF  
                                   _endereco_M 01EC                                     _endereco_U 01EA  
                __size_of_EUSART_RxDataHandler 0124                                        _OSCTUNE 0098  
                     ??_EUSART_SetErrorHandler 0073                                        _TX_Lora 061F  
                                      _ErrCode 06A1                                     ??_ModuloOn 0071  
          __size_of_EUSART_DefaultErrorHandler 0004                                 _fComandoSirene 016E  
                                      _fErroID 00E1                                        _fLigado 00E0  
                                      _fEspera 022B                                        _fRepete 022C  
                                      _fProgID 00EC                                __size_of___wmul 001F  
                                      ___lwdiv 0F86                                        ___lwmod 0F52  
                                      __ptext1 0DD6                                        __ptext2 0F52  
                                      __ptext3 0F86                                        __ptext4 0D7B  
                                      __ptext5 061F                                        __ptext6 0EEF  
                                      __ptext7 0EC0                                        __ptext8 0E16  
                                      __ptext9 071C                          _OSCILLATOR_Initialize 0DA3  
                     ??_PIN_MANAGER_Initialize 0071                                        clrloop0 0D9E  
                         end_of_initialization 0057          __end_of_EUSART_SetOverrunErrorHandler 0D91  
       __size_of_EUSART_SetOverrunErrorHandler 0006                  _EUSART_SetOverrunErrorHandler 0D8B  
                            _EUSART_Initialize 07B1                             ?_EUSART_Initialize 0070  
                                    _RCSTAbits 019D                            ??_EUSART_Initialize 0073  
                             ??_WDT_Initialize 0071                 ??_EUSART_SetTxInterruptHandler 0073  
                                    _PORTAbits 000C                                      _PORTBbits 000D  
                                  _TotalSerial 0066                          __size_of_EUSART_Reset 004A  
                                    _TRISBbits 008D                          __size_of_EUSART_Write 002A  
                                    _SM_MODORX 0E62                __size_of_EUSART_SetErrorHandler 0006  
                                    _DadosLora 0120                      __end_of_EUSART_Initialize 07F0  
                                _AcAliveBatLOW 022F                                      _TXSTAbits 019E  
                               __end_of__CFC22 0813                             __end_of__TXC22PING 082B  
                               __end_of__CFOFF 085A                                 __end_of__RESET 085F  
                               __end_of__RXC22 083E                                   ?_Espera_TxOk 0070  
           __end_of_EUSART_DefaultErrorHandler 0D77                     _EUSART_DefaultErrorHandler 0D73  
                               __end_of___wmul 0DF5                                   _EUSART_Reset 0767  
                                 _EUSART_Write 0E38                         ?_OSCILLATOR_Initialize 0070  
                            __size_of_SM_CFOFF 002F                                   _indiceSensor 016D  
                            __size_of_SM_RESET 002F                              __size_of_SM_START 004B  
                          start_initialization 002E                             __end_of__TXSTART22 0851  
                                   ?_SM_MODORX 0070                __size_of_PIN_MANAGER_Initialize 0019  
                                  SM_MODORX@ch 0070   EUSART_SetRxInterruptHandler@interruptHandler 0071  
 EUSART_SetTxInterruptHandler@interruptHandler 0071                             _C_EnderecoRecebido 0232  
                           _U_EnderecoRecebido 0220                                      _ModuloOff 0DAA  
               ?_EUSART_SetOverrunErrorHandler 0071                     _EUSART_FramingErrorHandler 00DE  
                            __size_of_ModuloOn 0034                                       ??___wmul 0075  
                       _EUSART_SetErrorHandler 0D7F                    __end_of_EUSART_Transmit_ISR 0E16  
                                  __pbssCOMMON 0079                                      ___latbits 0001  
                                __pcstackBANK4 0233                        __size_of_SM_CONFIGRADIO 002F  
                   __end_of_EUSART_Receive_ISR 1000                     __size_of_EUSART_Initialize 003F  
                                     ?_TX_Lora 0070               _EUSART_RxDefaultInterruptHandler 0068  
                                     ?_ErrCode 0070                                     ?_ModuloOff 0070  
                                    __pnvBANK4 0237                   __end_of_EUSART_RxDataHandler 061F  
                             ___lwdiv@dividend 0073                         _PIN_MANAGER_Initialize 0DBD  
                                     ?___lwdiv 0071                                       ?___lwmod 0071  
                                 _eusartRxHead 00E8                                   _eusartTxHead 00EB  
                                 _eusartRxTail 00E7                                   _eusartTxTail 00EA  
                 ??_INTERRUPT_InterruptManager 0071                        _eusartTxBufferRemaining 00E9  
                                  ??_SM_MODORX 0073                                      _pacoteTRX 00C0  
                             ___lwdiv@quotient 0076                                       _ENDERECO 0168  
                               _eusartRxBuffer 0020                                 _eusartTxBuffer 00A0  
                                    _segsAlive 0237                                 ___wmul@product 0075  
                                     _LATAbits 010C         EUSART_SetErrorHandler@interruptHandler 0071  
                                     _LATBbits 010D                                      clear_ram0 0D9D  
                                     _PIE1bits 0091                              _eusartRxLastError 00E5  
          __size_of_INTERRUPT_InterruptManager 0028                                       _PIR1bits 0011  
              ??_EUSART_SetFramingErrorHandler 0073      __end_of_EUSART_DefaultOverrunErrorHandler 0D7B  
   __size_of_EUSART_DefaultOverrunErrorHandler 0004            ??_EUSART_DefaultOverrunErrorHandler 0070  
           ?_EUSART_DefaultOverrunErrorHandler 0070              _EUSART_DefaultOverrunErrorHandler 0D77  
                         __size_of_Espera_TxOk 0022                                       _SM_CFOFF 0EC0  
                           _D_EnderecoRecebido 0231                                       _SM_RESET 0E91  
                                     _SM_START 071C                              ___wmul@multiplier 0071  
                                 _AcAliveBatOK 0230                                    ??_ModuloOff 0071  
                             __size_of_TX_Lora 0082                                     _EECON1bits 0195  
                             __size_of_ErrCode 007B                                       _ModuloOn 0F1E  
                                  _AcEVTBatLOW 022D                        ??_OSCILLATOR_Initialize 0071  
                          _EUSART_ErrorHandler 00DA                                       _fRetLora 00ED  
                  ?_EUSART_DefaultErrorHandler 0070                               __size_of___lwdiv 003C  
                             __size_of___lwmod 0034                                       _fTimeOut 00E2  
                                     _cicloLED 0162                                ___lwdiv@divisor 0071  
                         _EUSART_RxDataHandler 04FB                                 _SM_CONFIGRADIO 0EEF  
                              ___lwdiv@counter 0078                                       __ptext10 0E91  
                                     __ptext11 0F1E                                       __ptext20 0D97  
                                     __ptext12 0E62                                       __ptext21 0D91  
                                     __ptext13 0E38                                       __ptext30 0D73  
                                     __ptext22 0D8B                                       __ptext14 0767  
                                     __ptext31 04FB                                       __ptext23 0D85  
                                     __ptext15 0DBD                                       __ptext24 0D7F  
                                     __ptext16 0DA3                                       __ptext17 06A1  
                                     __ptext26 0DF5                                       __ptext18 0DAA  
                                     __ptext27 0FC2                                       __ptext19 07B1  
                                     __ptext28 0D77                                       __ptext29 0003  
                                     _endereco 01E2                               SM_CONFIGRADIO@ch 0070  
                                __size_of_main 04A0                                       _passagem 0160  
                      ?_EUSART_SetErrorHandler 0071                                       _tempoRTX 01E8  
EUSART_SetOverrunErrorHandler@interruptHandler 0071                                       int$flags 007E  
           __end_of_INTERRUPT_InterruptManager 002C                     _INTERRUPT_InterruptManager 0004  
        __end_of_EUSART_SetFramingErrorHandler 0D8B         __size_of_EUSART_SetFramingErrorHandler 0006  
                _EUSART_SetFramingErrorHandler 0D85                         __end_of_SM_CONFIGRADIO 0F1E  
                                   _INTCONbits 000B                          ?_EUSART_RxDataHandler 0070  
                                   _AcEVTBatOK 022E                        __size_of_WDT_Initialize 0004  
                                     intlevel1 0000                               ___lwmod@dividend 0073  
                      ?_PIN_MANAGER_Initialize 0070                 __end_of_EUSART_SetErrorHandler 0D85  
         __end_of_EUSART_SetRxInterruptHandler 0D97          __size_of_EUSART_SetRxInterruptHandler 0006  
                 _EUSART_SetRxInterruptHandler 0D91                             _EUSART_Receive_ISR 0FC2  
EUSART_SetFramingErrorHandler@interruptHandler 0071                                    _tempoEspera 0166  
                                __pstringtext1 07F0                                  __pstringtext2 0813  
                                __pstringtext3 082B                                  __pstringtext4 083E  
                                __pstringtext5 0851                                  __pstringtext6 085A  
                                  ErrCode@code 0074                            ?_EUSART_Receive_ISR 0070  
                              ___lwmod@divisor 0071                                ?_SM_CONFIGRADIO 0070  
                              ___lwmod@counter 0076                                     _WDTCONbits 0097  
                           EUSART_Write@txData 0072                   __size_of_EUSART_Transmit_ISR 0021  
               __end_of_PIN_MANAGER_Initialize 0DD6                           ??_EUSART_Receive_ISR 0071  
