

Microchip MPLAB XC8 Assembler V3.10 build 20250813170317 
                                                                                               Sat May 23 15:22:14 2026

Microchip MPLAB XC8 C Compiler v3.10 (Free license) build 20250813170317 Og1 
     1                           	processor	16F1827
     2                           	pagewidth 120
     3                           	opt	flic
     4                           	psect	eeprom_data,global,class=EEDATA,space=3,delta=2,noexec
     5                           	psect	stringtext1,global,class=STRCODE,space=0,delta=2,noexec
     6                           	psect	stringtext2,global,class=STRCODE,space=0,delta=2,noexec
     7                           	psect	stringtext3,global,class=STRCODE,space=0,delta=2,noexec
     8                           	psect	stringtext4,global,class=STRCODE,space=0,delta=2,noexec
     9                           	psect	stringtext5,global,class=STRCODE,space=0,delta=2,noexec
    10                           	psect	stringtext6,global,class=STRCODE,space=0,delta=2,noexec
    11                           	psect	nvBANK4,global,class=BANK4,space=1,delta=1,noexec
    12                           	psect	cinit,global,class=CODE,space=0,merge=1,delta=2
    13                           	psect	bssCOMMON,global,class=COMMON,space=1,delta=1,noexec
    14                           	psect	bssBANK0,global,class=BANK0,space=1,delta=1,noexec
    15                           	psect	bssBANK1,global,class=BANK1,space=1,delta=1,noexec
    16                           	psect	bssBANK2,global,class=BANK2,space=1,delta=1,noexec
    17                           	psect	bssBANK3,global,class=BANK3,space=1,delta=1,noexec
    18                           	psect	bssBANK4,global,class=BANK4,space=1,delta=1,noexec
    19                           	psect	clrtext,global,class=CODE,space=0,delta=2
    20                           	psect	cstackCOMMON,global,class=COMMON,space=1,delta=1,noexec
    21                           	psect	maintext,global,class=CODE,space=0,merge=1,split=1,delta=2
    22                           	psect	text1,local,class=CODE,space=0,merge=1,delta=2,group=1
    23                           	psect	text2,local,class=CODE,space=0,merge=1,delta=2
    24                           	psect	text3,local,class=CODE,space=0,merge=1,delta=2
    25                           	psect	text4,local,class=CODE,space=0,merge=1,delta=2,group=1
    26                           	psect	text5,local,class=CODE,space=0,merge=1,delta=2,group=1
    27                           	psect	text6,local,class=CODE,space=0,merge=1,delta=2
    28                           	psect	text7,local,class=CODE,space=0,merge=1,delta=2
    29                           	psect	text8,local,class=CODE,space=0,merge=1,delta=2
    30                           	psect	text9,local,class=CODE,space=0,merge=1,delta=2
    31                           	psect	text10,local,class=CODE,space=0,merge=1,delta=2
    32                           	psect	text11,local,class=CODE,space=0,merge=1,delta=2
    33                           	psect	text12,local,class=CODE,space=0,merge=1,delta=2
    34                           	psect	text13,local,class=CODE,space=0,merge=1,delta=2
    35                           	psect	text14,local,class=CODE,space=0,merge=1,delta=2
    36                           	psect	text15,local,class=CODE,space=0,merge=1,delta=2
    37                           	psect	text16,local,class=CODE,space=0,merge=1,delta=2
    38                           	psect	text17,local,class=CODE,space=0,merge=1,delta=2
    39                           	psect	text18,local,class=CODE,space=0,merge=1,delta=2
    40                           	psect	text19,local,class=CODE,space=0,merge=1,delta=2
    41                           	psect	text20,local,class=CODE,space=0,merge=1,delta=2
    42                           	psect	text21,local,class=CODE,space=0,merge=1,delta=2
    43                           	psect	text22,local,class=CODE,space=0,merge=1,delta=2
    44                           	psect	text23,local,class=CODE,space=0,merge=1,delta=2
    45                           	psect	text24,local,class=CODE,space=0,merge=1,delta=2
    46                           	psect	text25,local,class=CODE,space=0,merge=1,delta=2
    47                           	psect	intentry,global,class=CODE,space=0,delta=2
    48                           	psect	text27,local,class=CODE,space=0,merge=1,delta=2
    49                           	psect	text28,local,class=CODE,space=0,merge=1,delta=2
    50                           	psect	text29,local,class=CODE,space=0,merge=1,delta=2
    51                           	psect	text30,local,class=CODE,space=0,merge=1,delta=2
    52                           	psect	text31,local,class=CODE,space=0,merge=1,delta=2
    53                           	psect	text32,local,class=CODE,space=0,merge=1,delta=2
    54                           	psect	idloc,global,abs,ovrld,class=IDLOC,space=5,delta=2,noexec
    55                           	psect	config,global,abs,ovrld,class=CONFIG,space=4,delta=2,noexec
    56                           	dabs	1,0x7E,2
    57     0000                     
    58                           ; Generated 27/03/2025 GMT
    59                           ; 
    60                           ; Copyright © 2025, Microchip Technology Inc. and its subsidiaries ("Microchip")
    61                           ; All rights reserved.
    62                           ; 
    63                           ; This software is developed by Microchip Technology Inc. and its subsidiaries ("Microch
      +                          ip").
    64                           ; 
    65                           ; Redistribution and use in source and binary forms, with or without modification, are
    66                           ; permitted provided that the following conditions are met:
    67                           ; 
    68                           ;     1. Redistributions of source code must retain the above copyright notice, this lis
      +                          t of
    69                           ;        conditions and the following disclaimer.
    70                           ; 
    71                           ;     2. Redistributions in binary form must reproduce the above copyright notice, this 
      +                          list
    72                           ;        of conditions and the following disclaimer in the documentation and/or other
    73                           ;        materials provided with the distribution. Publication is not required when
    74                           ;        this file is used in an embedded application.
    75                           ; 
    76                           ;     3. Microchip's name may not be used to endorse or promote products derived from th
      +                          is
    77                           ;        software without specific prior written permission.
    78                           ; 
    79                           ; THIS SOFTWARE IS PROVIDED BY MICROCHIP "AS IS" AND ANY EXPRESS OR IMPLIED WARRANTIES,
    80                           ; INCLUDING, BUT NOT LIMITED TO, THE IMPLIED WARRANTIES OF MERCHANTABILITY AND FITNESS F
      +                          OR
    81                           ; PURPOSE ARE DISCLAIMED.  IN NO EVENT SHALL MICROCHIP BE LIABLE FOR ANY DIRECT, INDIREC
      +                          T,
    82                           ; INCIDENTAL, SPECIAL, EXEMPLARY, OR CONSEQUENTIAL DAMAGES (INCLUDING BUT NOT LIMITED TO
    83                           ; PROCUREMENT OF SUBSTITUTE GOODS OR SERVICES; LOSS OF USE, DATA OR PROFITS; OR BUSINESS
    84                           ; INTERRUPTION) HOWSOEVER CAUSED AND ON ANY THEORY OF LIABILITY, WHETHER IN CONTRACT, ST
      +                          RICT
    85                           ; LIABILITY, OR TORT (INCLUDING NEGLIGENCE OR OTHERWISE) ARISING IN ANY WAY OUT OF THE U
      +                          SE OF
    86                           ; THIS SOFTWARE, EVEN IF ADVISED OF THE POSSIBILITY OF SUCH DAMAGE.
    87                           ; 
    88                           ; 
    89                           ; Code-generator required, PIC16F1827 Definitions
    90                           ; 
    91                           ; SFR Addresses
    92     0008                     bsr             equ	8
    93     0005                     fsr0h           equ	5
    94     0004                     fsr0l           equ	4
    95     0007                     fsr1h           equ	7
    96     0006                     fsr1l           equ	6
    97     0000                     indf            equ	0
    98     0000                     indf0           equ	0
    99     0001                     indf1           equ	1
   100     000B                     intcon          equ	11
   101     0002                     pc              equ	2
   102     0002                     pcl             equ	2
   103     000A                     pclath          equ	10
   104     0003                     status          equ	3
   105     0009                     wreg            equ	9
   106     0000                     INDF0           equ	0	;# 
   107     0001                     INDF1           equ	1	;# 
   108     0002                     PCL             equ	2	;# 
   109     0003                     STATUS          equ	3	;# 
   110     0004                     FSR0L           equ	4	;# 
   111     0005                     FSR0H           equ	5	;# 
   112     0006                     FSR1L           equ	6	;# 
   113     0007                     FSR1H           equ	7	;# 
   114     0008                     BSR             equ	8	;# 
   115     0009                     WREG            equ	9	;# 
   116     000A                     PCLATH          equ	10	;# 
   117     000B                     INTCON          equ	11	;# 
   118     000C                     PORTA           equ	12	;# 
   119     000D                     PORTB           equ	13	;# 
   120     0011                     PIR1            equ	17	;# 
   121     0012                     PIR2            equ	18	;# 
   122     0013                     PIR3            equ	19	;# 
   123     0014                     PIR4            equ	20	;# 
   124     0015                     TMR0            equ	21	;# 
   125     0016                     TMR1            equ	22	;# 
   126     0016                     TMR1L           equ	22	;# 
   127     0017                     TMR1H           equ	23	;# 
   128     0018                     T1CON           equ	24	;# 
   129     0019                     T1GCON          equ	25	;# 
   130     001A                     TMR2            equ	26	;# 
   131     001B                     PR2             equ	27	;# 
   132     001C                     T2CON           equ	28	;# 
   133     001E                     CPSCON0         equ	30	;# 
   134     001F                     CPSCON1         equ	31	;# 
   135     008C                     TRISA           equ	140	;# 
   136     008D                     TRISB           equ	141	;# 
   137     0091                     PIE1            equ	145	;# 
   138     0092                     PIE2            equ	146	;# 
   139     0093                     PIE3            equ	147	;# 
   140     0094                     PIE4            equ	148	;# 
   141     0095                     OPTION_REG      equ	149	;# 
   142     0096                     PCON            equ	150	;# 
   143     0097                     WDTCON          equ	151	;# 
   144     0098                     OSCTUNE         equ	152	;# 
   145     0099                     OSCCON          equ	153	;# 
   146     009A                     OSCSTAT         equ	154	;# 
   147     009B                     ADRES           equ	155	;# 
   148     009B                     ADRESL          equ	155	;# 
   149     009C                     ADRESH          equ	156	;# 
   150     009D                     ADCON0          equ	157	;# 
   151     009E                     ADCON1          equ	158	;# 
   152     010C                     LATA            equ	268	;# 
   153     010D                     LATB            equ	269	;# 
   154     0111                     CM1CON0         equ	273	;# 
   155     0112                     CM1CON1         equ	274	;# 
   156     0113                     CM2CON0         equ	275	;# 
   157     0114                     CM2CON1         equ	276	;# 
   158     0115                     CMOUT           equ	277	;# 
   159     0116                     BORCON          equ	278	;# 
   160     0117                     FVRCON          equ	279	;# 
   161     0118                     DACCON0         equ	280	;# 
   162     0119                     DACCON1         equ	281	;# 
   163     011A                     SRCON0          equ	282	;# 
   164     011B                     SRCON1          equ	283	;# 
   165     011D                     APFCON0         equ	285	;# 
   166     011E                     APFCON1         equ	286	;# 
   167     018C                     ANSELA          equ	396	;# 
   168     018D                     ANSELB          equ	397	;# 
   169     0191                     EEADR           equ	401	;# 
   170     0191                     EEADRL          equ	401	;# 
   171     0192                     EEADRH          equ	402	;# 
   172     0193                     EEDAT           equ	403	;# 
   173     0193                     EEDATL          equ	403	;# 
   174     0193                     EEDATA          equ	403	;# 
   175     0194                     EEDATH          equ	404	;# 
   176     0195                     EECON1          equ	405	;# 
   177     0196                     EECON2          equ	406	;# 
   178     0199                     RCREG           equ	409	;# 
   179     019A                     TXREG           equ	410	;# 
   180     019B                     SP1BRG          equ	411	;# 
   181     019B                     SP1BRGL         equ	411	;# 
   182     019B                     SPBRG           equ	411	;# 
   183     019B                     SPBRGL          equ	411	;# 
   184     019C                     SP1BRGH         equ	412	;# 
   185     019C                     SPBRGH          equ	412	;# 
   186     019D                     RCSTA           equ	413	;# 
   187     019E                     TXSTA           equ	414	;# 
   188     019F                     BAUDCON         equ	415	;# 
   189     020C                     WPUA            equ	524	;# 
   190     020D                     WPUB            equ	525	;# 
   191     0211                     SSP1BUF         equ	529	;# 
   192     0211                     SSPBUF          equ	529	;# 
   193     0212                     SSP1ADD         equ	530	;# 
   194     0212                     SSPADD          equ	530	;# 
   195     0213                     SSP1MSK         equ	531	;# 
   196     0213                     SSPMSK          equ	531	;# 
   197     0214                     SSP1STAT        equ	532	;# 
   198     0214                     SSPSTAT         equ	532	;# 
   199     0215                     SSP1CON1        equ	533	;# 
   200     0215                     SSPCON1         equ	533	;# 
   201     0215                     SSPCON          equ	533	;# 
   202     0216                     SSP1CON2        equ	534	;# 
   203     0216                     SSPCON2         equ	534	;# 
   204     0217                     SSP1CON3        equ	535	;# 
   205     0217                     SSPCON3         equ	535	;# 
   206     0219                     SSP2BUF         equ	537	;# 
   207     021A                     SSP2ADD         equ	538	;# 
   208     021B                     SSP2MSK         equ	539	;# 
   209     021C                     SSP2STAT        equ	540	;# 
   210     021D                     SSP2CON1        equ	541	;# 
   211     021E                     SSP2CON2        equ	542	;# 
   212     021F                     SSP2CON3        equ	543	;# 
   213     0291                     CCPR1           equ	657	;# 
   214     0291                     CCPR1L          equ	657	;# 
   215     0292                     CCPR1H          equ	658	;# 
   216     0293                     CCP1CON         equ	659	;# 
   217     0294                     PWM1CON         equ	660	;# 
   218     0295                     CCP1AS          equ	661	;# 
   219     0295                     ECCP1AS         equ	661	;# 
   220     0296                     PSTR1CON        equ	662	;# 
   221     0298                     CCPR2           equ	664	;# 
   222     0298                     CCPR2L          equ	664	;# 
   223     0299                     CCPR2H          equ	665	;# 
   224     029A                     CCP2CON         equ	666	;# 
   225     029B                     PWM2CON         equ	667	;# 
   226     029C                     CCP2AS          equ	668	;# 
   227     029C                     ECCP2AS         equ	668	;# 
   228     029D                     PSTR2CON        equ	669	;# 
   229     029E                     CCPTMRS         equ	670	;# 
   230     029E                     CCPTMRS0        equ	670	;# 
   231     0311                     CCPR3           equ	785	;# 
   232     0311                     CCPR3L          equ	785	;# 
   233     0312                     CCPR3H          equ	786	;# 
   234     0313                     CCP3CON         equ	787	;# 
   235     0318                     CCPR4           equ	792	;# 
   236     0318                     CCPR4L          equ	792	;# 
   237     0319                     CCPR4H          equ	793	;# 
   238     031A                     CCP4CON         equ	794	;# 
   239     0394                     IOCBP           equ	916	;# 
   240     0395                     IOCBN           equ	917	;# 
   241     0396                     IOCBF           equ	918	;# 
   242     039A                     CLKRCON         equ	922	;# 
   243     039C                     MDCON           equ	924	;# 
   244     039D                     MDSRC           equ	925	;# 
   245     039E                     MDCARL          equ	926	;# 
   246     039F                     MDCARH          equ	927	;# 
   247     0415                     TMR4            equ	1045	;# 
   248     0416                     PR4             equ	1046	;# 
   249     0417                     T4CON           equ	1047	;# 
   250     041C                     TMR6            equ	1052	;# 
   251     041D                     PR6             equ	1053	;# 
   252     041E                     T6CON           equ	1054	;# 
   253     0FE4                     STATUS_SHAD     equ	4068	;# 
   254     0FE5                     WREG_SHAD       equ	4069	;# 
   255     0FE6                     BSR_SHAD        equ	4070	;# 
   256     0FE7                     PCLATH_SHAD     equ	4071	;# 
   257     0FE8                     FSR0L_SHAD      equ	4072	;# 
   258     0FE9                     FSR0H_SHAD      equ	4073	;# 
   259     0FEA                     FSR1L_SHAD      equ	4074	;# 
   260     0FEB                     FSR1H_SHAD      equ	4075	;# 
   261     0FED                     STKPTR          equ	4077	;# 
   262     0FEE                     TOSL            equ	4078	;# 
   263     0FEF                     TOSH            equ	4079	;# 
   264     0000                     INDF0           equ	0	;# 
   265     0001                     INDF1           equ	1	;# 
   266     0002                     PCL             equ	2	;# 
   267     0003                     STATUS          equ	3	;# 
   268     0004                     FSR0L           equ	4	;# 
   269     0005                     FSR0H           equ	5	;# 
   270     0006                     FSR1L           equ	6	;# 
   271     0007                     FSR1H           equ	7	;# 
   272     0008                     BSR             equ	8	;# 
   273     0009                     WREG            equ	9	;# 
   274     000A                     PCLATH          equ	10	;# 
   275     000B                     INTCON          equ	11	;# 
   276     000C                     PORTA           equ	12	;# 
   277     000D                     PORTB           equ	13	;# 
   278     0011                     PIR1            equ	17	;# 
   279     0012                     PIR2            equ	18	;# 
   280     0013                     PIR3            equ	19	;# 
   281     0014                     PIR4            equ	20	;# 
   282     0015                     TMR0            equ	21	;# 
   283     0016                     TMR1            equ	22	;# 
   284     0016                     TMR1L           equ	22	;# 
   285     0017                     TMR1H           equ	23	;# 
   286     0018                     T1CON           equ	24	;# 
   287     0019                     T1GCON          equ	25	;# 
   288     001A                     TMR2            equ	26	;# 
   289     001B                     PR2             equ	27	;# 
   290     001C                     T2CON           equ	28	;# 
   291     001E                     CPSCON0         equ	30	;# 
   292     001F                     CPSCON1         equ	31	;# 
   293     008C                     TRISA           equ	140	;# 
   294     008D                     TRISB           equ	141	;# 
   295     0091                     PIE1            equ	145	;# 
   296     0092                     PIE2            equ	146	;# 
   297     0093                     PIE3            equ	147	;# 
   298     0094                     PIE4            equ	148	;# 
   299     0095                     OPTION_REG      equ	149	;# 
   300     0096                     PCON            equ	150	;# 
   301     0097                     WDTCON          equ	151	;# 
   302     0098                     OSCTUNE         equ	152	;# 
   303     0099                     OSCCON          equ	153	;# 
   304     009A                     OSCSTAT         equ	154	;# 
   305     009B                     ADRES           equ	155	;# 
   306     009B                     ADRESL          equ	155	;# 
   307     009C                     ADRESH          equ	156	;# 
   308     009D                     ADCON0          equ	157	;# 
   309     009E                     ADCON1          equ	158	;# 
   310     010C                     LATA            equ	268	;# 
   311     010D                     LATB            equ	269	;# 
   312     0111                     CM1CON0         equ	273	;# 
   313     0112                     CM1CON1         equ	274	;# 
   314     0113                     CM2CON0         equ	275	;# 
   315     0114                     CM2CON1         equ	276	;# 
   316     0115                     CMOUT           equ	277	;# 
   317     0116                     BORCON          equ	278	;# 
   318     0117                     FVRCON          equ	279	;# 
   319     0118                     DACCON0         equ	280	;# 
   320     0119                     DACCON1         equ	281	;# 
   321     011A                     SRCON0          equ	282	;# 
   322     011B                     SRCON1          equ	283	;# 
   323     011D                     APFCON0         equ	285	;# 
   324     011E                     APFCON1         equ	286	;# 
   325     018C                     ANSELA          equ	396	;# 
   326     018D                     ANSELB          equ	397	;# 
   327     0191                     EEADR           equ	401	;# 
   328     0191                     EEADRL          equ	401	;# 
   329     0192                     EEADRH          equ	402	;# 
   330     0193                     EEDAT           equ	403	;# 
   331     0193                     EEDATL          equ	403	;# 
   332     0193                     EEDATA          equ	403	;# 
   333     0194                     EEDATH          equ	404	;# 
   334     0195                     EECON1          equ	405	;# 
   335     0196                     EECON2          equ	406	;# 
   336     0199                     RCREG           equ	409	;# 
   337     019A                     TXREG           equ	410	;# 
   338     019B                     SP1BRG          equ	411	;# 
   339     019B                     SP1BRGL         equ	411	;# 
   340     019B                     SPBRG           equ	411	;# 
   341     019B                     SPBRGL          equ	411	;# 
   342     019C                     SP1BRGH         equ	412	;# 
   343     019C                     SPBRGH          equ	412	;# 
   344     019D                     RCSTA           equ	413	;# 
   345     019E                     TXSTA           equ	414	;# 
   346     019F                     BAUDCON         equ	415	;# 
   347     020C                     WPUA            equ	524	;# 
   348     020D                     WPUB            equ	525	;# 
   349     0211                     SSP1BUF         equ	529	;# 
   350     0211                     SSPBUF          equ	529	;# 
   351     0212                     SSP1ADD         equ	530	;# 
   352     0212                     SSPADD          equ	530	;# 
   353     0213                     SSP1MSK         equ	531	;# 
   354     0213                     SSPMSK          equ	531	;# 
   355     0214                     SSP1STAT        equ	532	;# 
   356     0214                     SSPSTAT         equ	532	;# 
   357     0215                     SSP1CON1        equ	533	;# 
   358     0215                     SSPCON1         equ	533	;# 
   359     0215                     SSPCON          equ	533	;# 
   360     0216                     SSP1CON2        equ	534	;# 
   361     0216                     SSPCON2         equ	534	;# 
   362     0217                     SSP1CON3        equ	535	;# 
   363     0217                     SSPCON3         equ	535	;# 
   364     0219                     SSP2BUF         equ	537	;# 
   365     021A                     SSP2ADD         equ	538	;# 
   366     021B                     SSP2MSK         equ	539	;# 
   367     021C                     SSP2STAT        equ	540	;# 
   368     021D                     SSP2CON1        equ	541	;# 
   369     021E                     SSP2CON2        equ	542	;# 
   370     021F                     SSP2CON3        equ	543	;# 
   371     0291                     CCPR1           equ	657	;# 
   372     0291                     CCPR1L          equ	657	;# 
   373     0292                     CCPR1H          equ	658	;# 
   374     0293                     CCP1CON         equ	659	;# 
   375     0294                     PWM1CON         equ	660	;# 
   376     0295                     CCP1AS          equ	661	;# 
   377     0295                     ECCP1AS         equ	661	;# 
   378     0296                     PSTR1CON        equ	662	;# 
   379     0298                     CCPR2           equ	664	;# 
   380     0298                     CCPR2L          equ	664	;# 
   381     0299                     CCPR2H          equ	665	;# 
   382     029A                     CCP2CON         equ	666	;# 
   383     029B                     PWM2CON         equ	667	;# 
   384     029C                     CCP2AS          equ	668	;# 
   385     029C                     ECCP2AS         equ	668	;# 
   386     029D                     PSTR2CON        equ	669	;# 
   387     029E                     CCPTMRS         equ	670	;# 
   388     029E                     CCPTMRS0        equ	670	;# 
   389     0311                     CCPR3           equ	785	;# 
   390     0311                     CCPR3L          equ	785	;# 
   391     0312                     CCPR3H          equ	786	;# 
   392     0313                     CCP3CON         equ	787	;# 
   393     0318                     CCPR4           equ	792	;# 
   394     0318                     CCPR4L          equ	792	;# 
   395     0319                     CCPR4H          equ	793	;# 
   396     031A                     CCP4CON         equ	794	;# 
   397     0394                     IOCBP           equ	916	;# 
   398     0395                     IOCBN           equ	917	;# 
   399     0396                     IOCBF           equ	918	;# 
   400     039A                     CLKRCON         equ	922	;# 
   401     039C                     MDCON           equ	924	;# 
   402     039D                     MDSRC           equ	925	;# 
   403     039E                     MDCARL          equ	926	;# 
   404     039F                     MDCARH          equ	927	;# 
   405     0415                     TMR4            equ	1045	;# 
   406     0416                     PR4             equ	1046	;# 
   407     0417                     T4CON           equ	1047	;# 
   408     041C                     TMR6            equ	1052	;# 
   409     041D                     PR6             equ	1053	;# 
   410     041E                     T6CON           equ	1054	;# 
   411     0FE4                     STATUS_SHAD     equ	4068	;# 
   412     0FE5                     WREG_SHAD       equ	4069	;# 
   413     0FE6                     BSR_SHAD        equ	4070	;# 
   414     0FE7                     PCLATH_SHAD     equ	4071	;# 
   415     0FE8                     FSR0L_SHAD      equ	4072	;# 
   416     0FE9                     FSR0H_SHAD      equ	4073	;# 
   417     0FEA                     FSR1L_SHAD      equ	4074	;# 
   418     0FEB                     FSR1H_SHAD      equ	4075	;# 
   419     0FED                     STKPTR          equ	4077	;# 
   420     0FEE                     TOSL            equ	4078	;# 
   421     0FEF                     TOSH            equ	4079	;# 
   422     0000                     INDF0           equ	0	;# 
   423     0001                     INDF1           equ	1	;# 
   424     0002                     PCL             equ	2	;# 
   425     0003                     STATUS          equ	3	;# 
   426     0004                     FSR0L           equ	4	;# 
   427     0005                     FSR0H           equ	5	;# 
   428     0006                     FSR1L           equ	6	;# 
   429     0007                     FSR1H           equ	7	;# 
   430     0008                     BSR             equ	8	;# 
   431     0009                     WREG            equ	9	;# 
   432     000A                     PCLATH          equ	10	;# 
   433     000B                     INTCON          equ	11	;# 
   434     000C                     PORTA           equ	12	;# 
   435     000D                     PORTB           equ	13	;# 
   436     0011                     PIR1            equ	17	;# 
   437     0012                     PIR2            equ	18	;# 
   438     0013                     PIR3            equ	19	;# 
   439     0014                     PIR4            equ	20	;# 
   440     0015                     TMR0            equ	21	;# 
   441     0016                     TMR1            equ	22	;# 
   442     0016                     TMR1L           equ	22	;# 
   443     0017                     TMR1H           equ	23	;# 
   444     0018                     T1CON           equ	24	;# 
   445     0019                     T1GCON          equ	25	;# 
   446     001A                     TMR2            equ	26	;# 
   447     001B                     PR2             equ	27	;# 
   448     001C                     T2CON           equ	28	;# 
   449     001E                     CPSCON0         equ	30	;# 
   450     001F                     CPSCON1         equ	31	;# 
   451     008C                     TRISA           equ	140	;# 
   452     008D                     TRISB           equ	141	;# 
   453     0091                     PIE1            equ	145	;# 
   454     0092                     PIE2            equ	146	;# 
   455     0093                     PIE3            equ	147	;# 
   456     0094                     PIE4            equ	148	;# 
   457     0095                     OPTION_REG      equ	149	;# 
   458     0096                     PCON            equ	150	;# 
   459     0097                     WDTCON          equ	151	;# 
   460     0098                     OSCTUNE         equ	152	;# 
   461     0099                     OSCCON          equ	153	;# 
   462     009A                     OSCSTAT         equ	154	;# 
   463     009B                     ADRES           equ	155	;# 
   464     009B                     ADRESL          equ	155	;# 
   465     009C                     ADRESH          equ	156	;# 
   466     009D                     ADCON0          equ	157	;# 
   467     009E                     ADCON1          equ	158	;# 
   468     010C                     LATA            equ	268	;# 
   469     010D                     LATB            equ	269	;# 
   470     0111                     CM1CON0         equ	273	;# 
   471     0112                     CM1CON1         equ	274	;# 
   472     0113                     CM2CON0         equ	275	;# 
   473     0114                     CM2CON1         equ	276	;# 
   474     0115                     CMOUT           equ	277	;# 
   475     0116                     BORCON          equ	278	;# 
   476     0117                     FVRCON          equ	279	;# 
   477     0118                     DACCON0         equ	280	;# 
   478     0119                     DACCON1         equ	281	;# 
   479     011A                     SRCON0          equ	282	;# 
   480     011B                     SRCON1          equ	283	;# 
   481     011D                     APFCON0         equ	285	;# 
   482     011E                     APFCON1         equ	286	;# 
   483     018C                     ANSELA          equ	396	;# 
   484     018D                     ANSELB          equ	397	;# 
   485     0191                     EEADR           equ	401	;# 
   486     0191                     EEADRL          equ	401	;# 
   487     0192                     EEADRH          equ	402	;# 
   488     0193                     EEDAT           equ	403	;# 
   489     0193                     EEDATL          equ	403	;# 
   490     0193                     EEDATA          equ	403	;# 
   491     0194                     EEDATH          equ	404	;# 
   492     0195                     EECON1          equ	405	;# 
   493     0196                     EECON2          equ	406	;# 
   494     0199                     RCREG           equ	409	;# 
   495     019A                     TXREG           equ	410	;# 
   496     019B                     SP1BRG          equ	411	;# 
   497     019B                     SP1BRGL         equ	411	;# 
   498     019B                     SPBRG           equ	411	;# 
   499     019B                     SPBRGL          equ	411	;# 
   500     019C                     SP1BRGH         equ	412	;# 
   501     019C                     SPBRGH          equ	412	;# 
   502     019D                     RCSTA           equ	413	;# 
   503     019E                     TXSTA           equ	414	;# 
   504     019F                     BAUDCON         equ	415	;# 
   505     020C                     WPUA            equ	524	;# 
   506     020D                     WPUB            equ	525	;# 
   507     0211                     SSP1BUF         equ	529	;# 
   508     0211                     SSPBUF          equ	529	;# 
   509     0212                     SSP1ADD         equ	530	;# 
   510     0212                     SSPADD          equ	530	;# 
   511     0213                     SSP1MSK         equ	531	;# 
   512     0213                     SSPMSK          equ	531	;# 
   513     0214                     SSP1STAT        equ	532	;# 
   514     0214                     SSPSTAT         equ	532	;# 
   515     0215                     SSP1CON1        equ	533	;# 
   516     0215                     SSPCON1         equ	533	;# 
   517     0215                     SSPCON          equ	533	;# 
   518     0216                     SSP1CON2        equ	534	;# 
   519     0216                     SSPCON2         equ	534	;# 
   520     0217                     SSP1CON3        equ	535	;# 
   521     0217                     SSPCON3         equ	535	;# 
   522     0219                     SSP2BUF         equ	537	;# 
   523     021A                     SSP2ADD         equ	538	;# 
   524     021B                     SSP2MSK         equ	539	;# 
   525     021C                     SSP2STAT        equ	540	;# 
   526     021D                     SSP2CON1        equ	541	;# 
   527     021E                     SSP2CON2        equ	542	;# 
   528     021F                     SSP2CON3        equ	543	;# 
   529     0291                     CCPR1           equ	657	;# 
   530     0291                     CCPR1L          equ	657	;# 
   531     0292                     CCPR1H          equ	658	;# 
   532     0293                     CCP1CON         equ	659	;# 
   533     0294                     PWM1CON         equ	660	;# 
   534     0295                     CCP1AS          equ	661	;# 
   535     0295                     ECCP1AS         equ	661	;# 
   536     0296                     PSTR1CON        equ	662	;# 
   537     0298                     CCPR2           equ	664	;# 
   538     0298                     CCPR2L          equ	664	;# 
   539     0299                     CCPR2H          equ	665	;# 
   540     029A                     CCP2CON         equ	666	;# 
   541     029B                     PWM2CON         equ	667	;# 
   542     029C                     CCP2AS          equ	668	;# 
   543     029C                     ECCP2AS         equ	668	;# 
   544     029D                     PSTR2CON        equ	669	;# 
   545     029E                     CCPTMRS         equ	670	;# 
   546     029E                     CCPTMRS0        equ	670	;# 
   547     0311                     CCPR3           equ	785	;# 
   548     0311                     CCPR3L          equ	785	;# 
   549     0312                     CCPR3H          equ	786	;# 
   550     0313                     CCP3CON         equ	787	;# 
   551     0318                     CCPR4           equ	792	;# 
   552     0318                     CCPR4L          equ	792	;# 
   553     0319                     CCPR4H          equ	793	;# 
   554     031A                     CCP4CON         equ	794	;# 
   555     0394                     IOCBP           equ	916	;# 
   556     0395                     IOCBN           equ	917	;# 
   557     0396                     IOCBF           equ	918	;# 
   558     039A                     CLKRCON         equ	922	;# 
   559     039C                     MDCON           equ	924	;# 
   560     039D                     MDSRC           equ	925	;# 
   561     039E                     MDCARL          equ	926	;# 
   562     039F                     MDCARH          equ	927	;# 
   563     0415                     TMR4            equ	1045	;# 
   564     0416                     PR4             equ	1046	;# 
   565     0417                     T4CON           equ	1047	;# 
   566     041C                     TMR6            equ	1052	;# 
   567     041D                     PR6             equ	1053	;# 
   568     041E                     T6CON           equ	1054	;# 
   569     0FE4                     STATUS_SHAD     equ	4068	;# 
   570     0FE5                     WREG_SHAD       equ	4069	;# 
   571     0FE6                     BSR_SHAD        equ	4070	;# 
   572     0FE7                     PCLATH_SHAD     equ	4071	;# 
   573     0FE8                     FSR0L_SHAD      equ	4072	;# 
   574     0FE9                     FSR0H_SHAD      equ	4073	;# 
   575     0FEA                     FSR1L_SHAD      equ	4074	;# 
   576     0FEB                     FSR1H_SHAD      equ	4075	;# 
   577     0FED                     STKPTR          equ	4077	;# 
   578     0FEE                     TOSL            equ	4078	;# 
   579     0FEF                     TOSH            equ	4079	;# 
   580     0000                     INDF0           equ	0	;# 
   581     0001                     INDF1           equ	1	;# 
   582     0002                     PCL             equ	2	;# 
   583     0003                     STATUS          equ	3	;# 
   584     0004                     FSR0L           equ	4	;# 
   585     0005                     FSR0H           equ	5	;# 
   586     0006                     FSR1L           equ	6	;# 
   587     0007                     FSR1H           equ	7	;# 
   588     0008                     BSR             equ	8	;# 
   589     0009                     WREG            equ	9	;# 
   590     000A                     PCLATH          equ	10	;# 
   591     000B                     INTCON          equ	11	;# 
   592     000C                     PORTA           equ	12	;# 
   593     000D                     PORTB           equ	13	;# 
   594     0011                     PIR1            equ	17	;# 
   595     0012                     PIR2            equ	18	;# 
   596     0013                     PIR3            equ	19	;# 
   597     0014                     PIR4            equ	20	;# 
   598     0015                     TMR0            equ	21	;# 
   599     0016                     TMR1            equ	22	;# 
   600     0016                     TMR1L           equ	22	;# 
   601     0017                     TMR1H           equ	23	;# 
   602     0018                     T1CON           equ	24	;# 
   603     0019                     T1GCON          equ	25	;# 
   604     001A                     TMR2            equ	26	;# 
   605     001B                     PR2             equ	27	;# 
   606     001C                     T2CON           equ	28	;# 
   607     001E                     CPSCON0         equ	30	;# 
   608     001F                     CPSCON1         equ	31	;# 
   609     008C                     TRISA           equ	140	;# 
   610     008D                     TRISB           equ	141	;# 
   611     0091                     PIE1            equ	145	;# 
   612     0092                     PIE2            equ	146	;# 
   613     0093                     PIE3            equ	147	;# 
   614     0094                     PIE4            equ	148	;# 
   615     0095                     OPTION_REG      equ	149	;# 
   616     0096                     PCON            equ	150	;# 
   617     0097                     WDTCON          equ	151	;# 
   618     0098                     OSCTUNE         equ	152	;# 
   619     0099                     OSCCON          equ	153	;# 
   620     009A                     OSCSTAT         equ	154	;# 
   621     009B                     ADRES           equ	155	;# 
   622     009B                     ADRESL          equ	155	;# 
   623     009C                     ADRESH          equ	156	;# 
   624     009D                     ADCON0          equ	157	;# 
   625     009E                     ADCON1          equ	158	;# 
   626     010C                     LATA            equ	268	;# 
   627     010D                     LATB            equ	269	;# 
   628     0111                     CM1CON0         equ	273	;# 
   629     0112                     CM1CON1         equ	274	;# 
   630     0113                     CM2CON0         equ	275	;# 
   631     0114                     CM2CON1         equ	276	;# 
   632     0115                     CMOUT           equ	277	;# 
   633     0116                     BORCON          equ	278	;# 
   634     0117                     FVRCON          equ	279	;# 
   635     0118                     DACCON0         equ	280	;# 
   636     0119                     DACCON1         equ	281	;# 
   637     011A                     SRCON0          equ	282	;# 
   638     011B                     SRCON1          equ	283	;# 
   639     011D                     APFCON0         equ	285	;# 
   640     011E                     APFCON1         equ	286	;# 
   641     018C                     ANSELA          equ	396	;# 
   642     018D                     ANSELB          equ	397	;# 
   643     0191                     EEADR           equ	401	;# 
   644     0191                     EEADRL          equ	401	;# 
   645     0192                     EEADRH          equ	402	;# 
   646     0193                     EEDAT           equ	403	;# 
   647     0193                     EEDATL          equ	403	;# 
   648     0193                     EEDATA          equ	403	;# 
   649     0194                     EEDATH          equ	404	;# 
   650     0195                     EECON1          equ	405	;# 
   651     0196                     EECON2          equ	406	;# 
   652     0199                     RCREG           equ	409	;# 
   653     019A                     TXREG           equ	410	;# 
   654     019B                     SP1BRG          equ	411	;# 
   655     019B                     SP1BRGL         equ	411	;# 
   656     019B                     SPBRG           equ	411	;# 
   657     019B                     SPBRGL          equ	411	;# 
   658     019C                     SP1BRGH         equ	412	;# 
   659     019C                     SPBRGH          equ	412	;# 
   660     019D                     RCSTA           equ	413	;# 
   661     019E                     TXSTA           equ	414	;# 
   662     019F                     BAUDCON         equ	415	;# 
   663     020C                     WPUA            equ	524	;# 
   664     020D                     WPUB            equ	525	;# 
   665     0211                     SSP1BUF         equ	529	;# 
   666     0211                     SSPBUF          equ	529	;# 
   667     0212                     SSP1ADD         equ	530	;# 
   668     0212                     SSPADD          equ	530	;# 
   669     0213                     SSP1MSK         equ	531	;# 
   670     0213                     SSPMSK          equ	531	;# 
   671     0214                     SSP1STAT        equ	532	;# 
   672     0214                     SSPSTAT         equ	532	;# 
   673     0215                     SSP1CON1        equ	533	;# 
   674     0215                     SSPCON1         equ	533	;# 
   675     0215                     SSPCON          equ	533	;# 
   676     0216                     SSP1CON2        equ	534	;# 
   677     0216                     SSPCON2         equ	534	;# 
   678     0217                     SSP1CON3        equ	535	;# 
   679     0217                     SSPCON3         equ	535	;# 
   680     0219                     SSP2BUF         equ	537	;# 
   681     021A                     SSP2ADD         equ	538	;# 
   682     021B                     SSP2MSK         equ	539	;# 
   683     021C                     SSP2STAT        equ	540	;# 
   684     021D                     SSP2CON1        equ	541	;# 
   685     021E                     SSP2CON2        equ	542	;# 
   686     021F                     SSP2CON3        equ	543	;# 
   687     0291                     CCPR1           equ	657	;# 
   688     0291                     CCPR1L          equ	657	;# 
   689     0292                     CCPR1H          equ	658	;# 
   690     0293                     CCP1CON         equ	659	;# 
   691     0294                     PWM1CON         equ	660	;# 
   692     0295                     CCP1AS          equ	661	;# 
   693     0295                     ECCP1AS         equ	661	;# 
   694     0296                     PSTR1CON        equ	662	;# 
   695     0298                     CCPR2           equ	664	;# 
   696     0298                     CCPR2L          equ	664	;# 
   697     0299                     CCPR2H          equ	665	;# 
   698     029A                     CCP2CON         equ	666	;# 
   699     029B                     PWM2CON         equ	667	;# 
   700     029C                     CCP2AS          equ	668	;# 
   701     029C                     ECCP2AS         equ	668	;# 
   702     029D                     PSTR2CON        equ	669	;# 
   703     029E                     CCPTMRS         equ	670	;# 
   704     029E                     CCPTMRS0        equ	670	;# 
   705     0311                     CCPR3           equ	785	;# 
   706     0311                     CCPR3L          equ	785	;# 
   707     0312                     CCPR3H          equ	786	;# 
   708     0313                     CCP3CON         equ	787	;# 
   709     0318                     CCPR4           equ	792	;# 
   710     0318                     CCPR4L          equ	792	;# 
   711     0319                     CCPR4H          equ	793	;# 
   712     031A                     CCP4CON         equ	794	;# 
   713     0394                     IOCBP           equ	916	;# 
   714     0395                     IOCBN           equ	917	;# 
   715     0396                     IOCBF           equ	918	;# 
   716     039A                     CLKRCON         equ	922	;# 
   717     039C                     MDCON           equ	924	;# 
   718     039D                     MDSRC           equ	925	;# 
   719     039E                     MDCARL          equ	926	;# 
   720     039F                     MDCARH          equ	927	;# 
   721     0415                     TMR4            equ	1045	;# 
   722     0416                     PR4             equ	1046	;# 
   723     0417                     T4CON           equ	1047	;# 
   724     041C                     TMR6            equ	1052	;# 
   725     041D                     PR6             equ	1053	;# 
   726     041E                     T6CON           equ	1054	;# 
   727     0FE4                     STATUS_SHAD     equ	4068	;# 
   728     0FE5                     WREG_SHAD       equ	4069	;# 
   729     0FE6                     BSR_SHAD        equ	4070	;# 
   730     0FE7                     PCLATH_SHAD     equ	4071	;# 
   731     0FE8                     FSR0L_SHAD      equ	4072	;# 
   732     0FE9                     FSR0H_SHAD      equ	4073	;# 
   733     0FEA                     FSR1L_SHAD      equ	4074	;# 
   734     0FEB                     FSR1H_SHAD      equ	4075	;# 
   735     0FED                     STKPTR          equ	4077	;# 
   736     0FEE                     TOSL            equ	4078	;# 
   737     0FEF                     TOSH            equ	4079	;# 
   738     0000                     INDF0           equ	0	;# 
   739     0001                     INDF1           equ	1	;# 
   740     0002                     PCL             equ	2	;# 
   741     0003                     STATUS          equ	3	;# 
   742     0004                     FSR0L           equ	4	;# 
   743     0005                     FSR0H           equ	5	;# 
   744     0006                     FSR1L           equ	6	;# 
   745     0007                     FSR1H           equ	7	;# 
   746     0008                     BSR             equ	8	;# 
   747     0009                     WREG            equ	9	;# 
   748     000A                     PCLATH          equ	10	;# 
   749     000B                     INTCON          equ	11	;# 
   750     000C                     PORTA           equ	12	;# 
   751     000D                     PORTB           equ	13	;# 
   752     0011                     PIR1            equ	17	;# 
   753     0012                     PIR2            equ	18	;# 
   754     0013                     PIR3            equ	19	;# 
   755     0014                     PIR4            equ	20	;# 
   756     0015                     TMR0            equ	21	;# 
   757     0016                     TMR1            equ	22	;# 
   758     0016                     TMR1L           equ	22	;# 
   759     0017                     TMR1H           equ	23	;# 
   760     0018                     T1CON           equ	24	;# 
   761     0019                     T1GCON          equ	25	;# 
   762     001A                     TMR2            equ	26	;# 
   763     001B                     PR2             equ	27	;# 
   764     001C                     T2CON           equ	28	;# 
   765     001E                     CPSCON0         equ	30	;# 
   766     001F                     CPSCON1         equ	31	;# 
   767     008C                     TRISA           equ	140	;# 
   768     008D                     TRISB           equ	141	;# 
   769     0091                     PIE1            equ	145	;# 
   770     0092                     PIE2            equ	146	;# 
   771     0093                     PIE3            equ	147	;# 
   772     0094                     PIE4            equ	148	;# 
   773     0095                     OPTION_REG      equ	149	;# 
   774     0096                     PCON            equ	150	;# 
   775     0097                     WDTCON          equ	151	;# 
   776     0098                     OSCTUNE         equ	152	;# 
   777     0099                     OSCCON          equ	153	;# 
   778     009A                     OSCSTAT         equ	154	;# 
   779     009B                     ADRES           equ	155	;# 
   780     009B                     ADRESL          equ	155	;# 
   781     009C                     ADRESH          equ	156	;# 
   782     009D                     ADCON0          equ	157	;# 
   783     009E                     ADCON1          equ	158	;# 
   784     010C                     LATA            equ	268	;# 
   785     010D                     LATB            equ	269	;# 
   786     0111                     CM1CON0         equ	273	;# 
   787     0112                     CM1CON1         equ	274	;# 
   788     0113                     CM2CON0         equ	275	;# 
   789     0114                     CM2CON1         equ	276	;# 
   790     0115                     CMOUT           equ	277	;# 
   791     0116                     BORCON          equ	278	;# 
   792     0117                     FVRCON          equ	279	;# 
   793     0118                     DACCON0         equ	280	;# 
   794     0119                     DACCON1         equ	281	;# 
   795     011A                     SRCON0          equ	282	;# 
   796     011B                     SRCON1          equ	283	;# 
   797     011D                     APFCON0         equ	285	;# 
   798     011E                     APFCON1         equ	286	;# 
   799     018C                     ANSELA          equ	396	;# 
   800     018D                     ANSELB          equ	397	;# 
   801     0191                     EEADR           equ	401	;# 
   802     0191                     EEADRL          equ	401	;# 
   803     0192                     EEADRH          equ	402	;# 
   804     0193                     EEDAT           equ	403	;# 
   805     0193                     EEDATL          equ	403	;# 
   806     0193                     EEDATA          equ	403	;# 
   807     0194                     EEDATH          equ	404	;# 
   808     0195                     EECON1          equ	405	;# 
   809     0196                     EECON2          equ	406	;# 
   810     0199                     RCREG           equ	409	;# 
   811     019A                     TXREG           equ	410	;# 
   812     019B                     SP1BRG          equ	411	;# 
   813     019B                     SP1BRGL         equ	411	;# 
   814     019B                     SPBRG           equ	411	;# 
   815     019B                     SPBRGL          equ	411	;# 
   816     019C                     SP1BRGH         equ	412	;# 
   817     019C                     SPBRGH          equ	412	;# 
   818     019D                     RCSTA           equ	413	;# 
   819     019E                     TXSTA           equ	414	;# 
   820     019F                     BAUDCON         equ	415	;# 
   821     020C                     WPUA            equ	524	;# 
   822     020D                     WPUB            equ	525	;# 
   823     0211                     SSP1BUF         equ	529	;# 
   824     0211                     SSPBUF          equ	529	;# 
   825     0212                     SSP1ADD         equ	530	;# 
   826     0212                     SSPADD          equ	530	;# 
   827     0213                     SSP1MSK         equ	531	;# 
   828     0213                     SSPMSK          equ	531	;# 
   829     0214                     SSP1STAT        equ	532	;# 
   830     0214                     SSPSTAT         equ	532	;# 
   831     0215                     SSP1CON1        equ	533	;# 
   832     0215                     SSPCON1         equ	533	;# 
   833     0215                     SSPCON          equ	533	;# 
   834     0216                     SSP1CON2        equ	534	;# 
   835     0216                     SSPCON2         equ	534	;# 
   836     0217                     SSP1CON3        equ	535	;# 
   837     0217                     SSPCON3         equ	535	;# 
   838     0219                     SSP2BUF         equ	537	;# 
   839     021A                     SSP2ADD         equ	538	;# 
   840     021B                     SSP2MSK         equ	539	;# 
   841     021C                     SSP2STAT        equ	540	;# 
   842     021D                     SSP2CON1        equ	541	;# 
   843     021E                     SSP2CON2        equ	542	;# 
   844     021F                     SSP2CON3        equ	543	;# 
   845     0291                     CCPR1           equ	657	;# 
   846     0291                     CCPR1L          equ	657	;# 
   847     0292                     CCPR1H          equ	658	;# 
   848     0293                     CCP1CON         equ	659	;# 
   849     0294                     PWM1CON         equ	660	;# 
   850     0295                     CCP1AS          equ	661	;# 
   851     0295                     ECCP1AS         equ	661	;# 
   852     0296                     PSTR1CON        equ	662	;# 
   853     0298                     CCPR2           equ	664	;# 
   854     0298                     CCPR2L          equ	664	;# 
   855     0299                     CCPR2H          equ	665	;# 
   856     029A                     CCP2CON         equ	666	;# 
   857     029B                     PWM2CON         equ	667	;# 
   858     029C                     CCP2AS          equ	668	;# 
   859     029C                     ECCP2AS         equ	668	;# 
   860     029D                     PSTR2CON        equ	669	;# 
   861     029E                     CCPTMRS         equ	670	;# 
   862     029E                     CCPTMRS0        equ	670	;# 
   863     0311                     CCPR3           equ	785	;# 
   864     0311                     CCPR3L          equ	785	;# 
   865     0312                     CCPR3H          equ	786	;# 
   866     0313                     CCP3CON         equ	787	;# 
   867     0318                     CCPR4           equ	792	;# 
   868     0318                     CCPR4L          equ	792	;# 
   869     0319                     CCPR4H          equ	793	;# 
   870     031A                     CCP4CON         equ	794	;# 
   871     0394                     IOCBP           equ	916	;# 
   872     0395                     IOCBN           equ	917	;# 
   873     0396                     IOCBF           equ	918	;# 
   874     039A                     CLKRCON         equ	922	;# 
   875     039C                     MDCON           equ	924	;# 
   876     039D                     MDSRC           equ	925	;# 
   877     039E                     MDCARL          equ	926	;# 
   878     039F                     MDCARH          equ	927	;# 
   879     0415                     TMR4            equ	1045	;# 
   880     0416                     PR4             equ	1046	;# 
   881     0417                     T4CON           equ	1047	;# 
   882     041C                     TMR6            equ	1052	;# 
   883     041D                     PR6             equ	1053	;# 
   884     041E                     T6CON           equ	1054	;# 
   885     0FE4                     STATUS_SHAD     equ	4068	;# 
   886     0FE5                     WREG_SHAD       equ	4069	;# 
   887     0FE6                     BSR_SHAD        equ	4070	;# 
   888     0FE7                     PCLATH_SHAD     equ	4071	;# 
   889     0FE8                     FSR0L_SHAD      equ	4072	;# 
   890     0FE9                     FSR0H_SHAD      equ	4073	;# 
   891     0FEA                     FSR1L_SHAD      equ	4074	;# 
   892     0FEB                     FSR1H_SHAD      equ	4075	;# 
   893     0FED                     STKPTR          equ	4077	;# 
   894     0FEE                     TOSL            equ	4078	;# 
   895     0FEF                     TOSH            equ	4079	;# 
   896     0000                     INDF0           equ	0	;# 
   897     0001                     INDF1           equ	1	;# 
   898     0002                     PCL             equ	2	;# 
   899     0003                     STATUS          equ	3	;# 
   900     0004                     FSR0L           equ	4	;# 
   901     0005                     FSR0H           equ	5	;# 
   902     0006                     FSR1L           equ	6	;# 
   903     0007                     FSR1H           equ	7	;# 
   904     0008                     BSR             equ	8	;# 
   905     0009                     WREG            equ	9	;# 
   906     000A                     PCLATH          equ	10	;# 
   907     000B                     INTCON          equ	11	;# 
   908     000C                     PORTA           equ	12	;# 
   909     000D                     PORTB           equ	13	;# 
   910     0011                     PIR1            equ	17	;# 
   911     0012                     PIR2            equ	18	;# 
   912     0013                     PIR3            equ	19	;# 
   913     0014                     PIR4            equ	20	;# 
   914     0015                     TMR0            equ	21	;# 
   915     0016                     TMR1            equ	22	;# 
   916     0016                     TMR1L           equ	22	;# 
   917     0017                     TMR1H           equ	23	;# 
   918     0018                     T1CON           equ	24	;# 
   919     0019                     T1GCON          equ	25	;# 
   920     001A                     TMR2            equ	26	;# 
   921     001B                     PR2             equ	27	;# 
   922     001C                     T2CON           equ	28	;# 
   923     001E                     CPSCON0         equ	30	;# 
   924     001F                     CPSCON1         equ	31	;# 
   925     008C                     TRISA           equ	140	;# 
   926     008D                     TRISB           equ	141	;# 
   927     0091                     PIE1            equ	145	;# 
   928     0092                     PIE2            equ	146	;# 
   929     0093                     PIE3            equ	147	;# 
   930     0094                     PIE4            equ	148	;# 
   931     0095                     OPTION_REG      equ	149	;# 
   932     0096                     PCON            equ	150	;# 
   933     0097                     WDTCON          equ	151	;# 
   934     0098                     OSCTUNE         equ	152	;# 
   935     0099                     OSCCON          equ	153	;# 
   936     009A                     OSCSTAT         equ	154	;# 
   937     009B                     ADRES           equ	155	;# 
   938     009B                     ADRESL          equ	155	;# 
   939     009C                     ADRESH          equ	156	;# 
   940     009D                     ADCON0          equ	157	;# 
   941     009E                     ADCON1          equ	158	;# 
   942     010C                     LATA            equ	268	;# 
   943     010D                     LATB            equ	269	;# 
   944     0111                     CM1CON0         equ	273	;# 
   945     0112                     CM1CON1         equ	274	;# 
   946     0113                     CM2CON0         equ	275	;# 
   947     0114                     CM2CON1         equ	276	;# 
   948     0115                     CMOUT           equ	277	;# 
   949     0116                     BORCON          equ	278	;# 
   950     0117                     FVRCON          equ	279	;# 
   951     0118                     DACCON0         equ	280	;# 
   952     0119                     DACCON1         equ	281	;# 
   953     011A                     SRCON0          equ	282	;# 
   954     011B                     SRCON1          equ	283	;# 
   955     011D                     APFCON0         equ	285	;# 
   956     011E                     APFCON1         equ	286	;# 
   957     018C                     ANSELA          equ	396	;# 
   958     018D                     ANSELB          equ	397	;# 
   959     0191                     EEADR           equ	401	;# 
   960     0191                     EEADRL          equ	401	;# 
   961     0192                     EEADRH          equ	402	;# 
   962     0193                     EEDAT           equ	403	;# 
   963     0193                     EEDATL          equ	403	;# 
   964     0193                     EEDATA          equ	403	;# 
   965     0194                     EEDATH          equ	404	;# 
   966     0195                     EECON1          equ	405	;# 
   967     0196                     EECON2          equ	406	;# 
   968     0199                     RCREG           equ	409	;# 
   969     019A                     TXREG           equ	410	;# 
   970     019B                     SP1BRG          equ	411	;# 
   971     019B                     SP1BRGL         equ	411	;# 
   972     019B                     SPBRG           equ	411	;# 
   973     019B                     SPBRGL          equ	411	;# 
   974     019C                     SP1BRGH         equ	412	;# 
   975     019C                     SPBRGH          equ	412	;# 
   976     019D                     RCSTA           equ	413	;# 
   977     019E                     TXSTA           equ	414	;# 
   978     019F                     BAUDCON         equ	415	;# 
   979     020C                     WPUA            equ	524	;# 
   980     020D                     WPUB            equ	525	;# 
   981     0211                     SSP1BUF         equ	529	;# 
   982     0211                     SSPBUF          equ	529	;# 
   983     0212                     SSP1ADD         equ	530	;# 
   984     0212                     SSPADD          equ	530	;# 
   985     0213                     SSP1MSK         equ	531	;# 
   986     0213                     SSPMSK          equ	531	;# 
   987     0214                     SSP1STAT        equ	532	;# 
   988     0214                     SSPSTAT         equ	532	;# 
   989     0215                     SSP1CON1        equ	533	;# 
   990     0215                     SSPCON1         equ	533	;# 
   991     0215                     SSPCON          equ	533	;# 
   992     0216                     SSP1CON2        equ	534	;# 
   993     0216                     SSPCON2         equ	534	;# 
   994     0217                     SSP1CON3        equ	535	;# 
   995     0217                     SSPCON3         equ	535	;# 
   996     0219                     SSP2BUF         equ	537	;# 
   997     021A                     SSP2ADD         equ	538	;# 
   998     021B                     SSP2MSK         equ	539	;# 
   999     021C                     SSP2STAT        equ	540	;# 
  1000     021D                     SSP2CON1        equ	541	;# 
  1001     021E                     SSP2CON2        equ	542	;# 
  1002     021F                     SSP2CON3        equ	543	;# 
  1003     0291                     CCPR1           equ	657	;# 
  1004     0291                     CCPR1L          equ	657	;# 
  1005     0292                     CCPR1H          equ	658	;# 
  1006     0293                     CCP1CON         equ	659	;# 
  1007     0294                     PWM1CON         equ	660	;# 
  1008     0295                     CCP1AS          equ	661	;# 
  1009     0295                     ECCP1AS         equ	661	;# 
  1010     0296                     PSTR1CON        equ	662	;# 
  1011     0298                     CCPR2           equ	664	;# 
  1012     0298                     CCPR2L          equ	664	;# 
  1013     0299                     CCPR2H          equ	665	;# 
  1014     029A                     CCP2CON         equ	666	;# 
  1015     029B                     PWM2CON         equ	667	;# 
  1016     029C                     CCP2AS          equ	668	;# 
  1017     029C                     ECCP2AS         equ	668	;# 
  1018     029D                     PSTR2CON        equ	669	;# 
  1019     029E                     CCPTMRS         equ	670	;# 
  1020     029E                     CCPTMRS0        equ	670	;# 
  1021     0311                     CCPR3           equ	785	;# 
  1022     0311                     CCPR3L          equ	785	;# 
  1023     0312                     CCPR3H          equ	786	;# 
  1024     0313                     CCP3CON         equ	787	;# 
  1025     0318                     CCPR4           equ	792	;# 
  1026     0318                     CCPR4L          equ	792	;# 
  1027     0319                     CCPR4H          equ	793	;# 
  1028     031A                     CCP4CON         equ	794	;# 
  1029     0394                     IOCBP           equ	916	;# 
  1030     0395                     IOCBN           equ	917	;# 
  1031     0396                     IOCBF           equ	918	;# 
  1032     039A                     CLKRCON         equ	922	;# 
  1033     039C                     MDCON           equ	924	;# 
  1034     039D                     MDSRC           equ	925	;# 
  1035     039E                     MDCARL          equ	926	;# 
  1036     039F                     MDCARH          equ	927	;# 
  1037     0415                     TMR4            equ	1045	;# 
  1038     0416                     PR4             equ	1046	;# 
  1039     0417                     T4CON           equ	1047	;# 
  1040     041C                     TMR6            equ	1052	;# 
  1041     041D                     PR6             equ	1053	;# 
  1042     041E                     T6CON           equ	1054	;# 
  1043     0FE4                     STATUS_SHAD     equ	4068	;# 
  1044     0FE5                     WREG_SHAD       equ	4069	;# 
  1045     0FE6                     BSR_SHAD        equ	4070	;# 
  1046     0FE7                     PCLATH_SHAD     equ	4071	;# 
  1047     0FE8                     FSR0L_SHAD      equ	4072	;# 
  1048     0FE9                     FSR0H_SHAD      equ	4073	;# 
  1049     0FEA                     FSR1L_SHAD      equ	4074	;# 
  1050     0FEB                     FSR1H_SHAD      equ	4075	;# 
  1051     0FED                     STKPTR          equ	4077	;# 
  1052     0FEE                     TOSL            equ	4078	;# 
  1053     0FEF                     TOSH            equ	4079	;# 
  1054                           
  1055                           	psect	eeprom_data
  1056     0000  0039 0038 0037 0036 0002 0001 0036 0037 	db	57,56,55,54,2,1,54,55	;# 
  1057     0008  0034 0033 0033 0032 0047 0047 0046 0046 	db	52,51,51,50,71,71,70,70	;# 
  1058     0010  000E 00D4 0039 006F 0015 0008 000B 001B 	db	14,212,57,111,21,8,11,27	;# 
  1059     0018  000B 00DE 0004 0000 0000 0055 0024 00E8 	db	11,222,4,0,0,85,36,232	;# 
  1060     0020  0059 00BD 0009 0008 002B 00F3 002A 001F 	db	89,189,9,8,43,243,42,31	;# 
  1061     0028  0015 0000 0001 0002 0003 0004 0005 0006 	db	21,0,1,2,3,4,5,6	;# 
  1062     0030  0038 0037 0037 0036 0044 0044 0044 0043 	db	56,55,55,54,68,68,68,67	;# 
  1063     0038  0056 0049 0044 0041 004C 0025 0025 0000 	db	86,73,68,65,76,37,37,0	;# 
  1064     0000                     INDF0           equ	0	;# 
  1065     0001                     INDF1           equ	1	;# 
  1066     0002                     PCL             equ	2	;# 
  1067     0003                     STATUS          equ	3	;# 
  1068     0004                     FSR0L           equ	4	;# 
  1069     0005                     FSR0H           equ	5	;# 
  1070     0006                     FSR1L           equ	6	;# 
  1071     0007                     FSR1H           equ	7	;# 
  1072     0008                     BSR             equ	8	;# 
  1073     0009                     WREG            equ	9	;# 
  1074     000A                     PCLATH          equ	10	;# 
  1075     000B                     INTCON          equ	11	;# 
  1076     000C                     PORTA           equ	12	;# 
  1077     000D                     PORTB           equ	13	;# 
  1078     0011                     PIR1            equ	17	;# 
  1079     0012                     PIR2            equ	18	;# 
  1080     0013                     PIR3            equ	19	;# 
  1081     0014                     PIR4            equ	20	;# 
  1082     0015                     TMR0            equ	21	;# 
  1083     0016                     TMR1            equ	22	;# 
  1084     0016                     TMR1L           equ	22	;# 
  1085     0017                     TMR1H           equ	23	;# 
  1086     0018                     T1CON           equ	24	;# 
  1087     0019                     T1GCON          equ	25	;# 
  1088     001A                     TMR2            equ	26	;# 
  1089     001B                     PR2             equ	27	;# 
  1090     001C                     T2CON           equ	28	;# 
  1091     001E                     CPSCON0         equ	30	;# 
  1092     001F                     CPSCON1         equ	31	;# 
  1093     008C                     TRISA           equ	140	;# 
  1094     008D                     TRISB           equ	141	;# 
  1095     0091                     PIE1            equ	145	;# 
  1096     0092                     PIE2            equ	146	;# 
  1097     0093                     PIE3            equ	147	;# 
  1098     0094                     PIE4            equ	148	;# 
  1099     0095                     OPTION_REG      equ	149	;# 
  1100     0096                     PCON            equ	150	;# 
  1101     0097                     WDTCON          equ	151	;# 
  1102     0098                     OSCTUNE         equ	152	;# 
  1103     0099                     OSCCON          equ	153	;# 
  1104     009A                     OSCSTAT         equ	154	;# 
  1105     009B                     ADRES           equ	155	;# 
  1106     009B                     ADRESL          equ	155	;# 
  1107     009C                     ADRESH          equ	156	;# 
  1108     009D                     ADCON0          equ	157	;# 
  1109     009E                     ADCON1          equ	158	;# 
  1110     010C                     LATA            equ	268	;# 
  1111     010D                     LATB            equ	269	;# 
  1112     0111                     CM1CON0         equ	273	;# 
  1113     0112                     CM1CON1         equ	274	;# 
  1114     0113                     CM2CON0         equ	275	;# 
  1115     0114                     CM2CON1         equ	276	;# 
  1116     0115                     CMOUT           equ	277	;# 
  1117     0116                     BORCON          equ	278	;# 
  1118     0117                     FVRCON          equ	279	;# 
  1119     0118                     DACCON0         equ	280	;# 
  1120     0119                     DACCON1         equ	281	;# 
  1121     011A                     SRCON0          equ	282	;# 
  1122     011B                     SRCON1          equ	283	;# 
  1123     011D                     APFCON0         equ	285	;# 
  1124     011E                     APFCON1         equ	286	;# 
  1125     018C                     ANSELA          equ	396	;# 
  1126     018D                     ANSELB          equ	397	;# 
  1127     0191                     EEADR           equ	401	;# 
  1128     0191                     EEADRL          equ	401	;# 
  1129     0192                     EEADRH          equ	402	;# 
  1130     0193                     EEDAT           equ	403	;# 
  1131     0193                     EEDATL          equ	403	;# 
  1132     0193                     EEDATA          equ	403	;# 
  1133     0194                     EEDATH          equ	404	;# 
  1134     0195                     EECON1          equ	405	;# 
  1135     0196                     EECON2          equ	406	;# 
  1136     0199                     RCREG           equ	409	;# 
  1137     019A                     TXREG           equ	410	;# 
  1138     019B                     SP1BRG          equ	411	;# 
  1139     019B                     SP1BRGL         equ	411	;# 
  1140     019B                     SPBRG           equ	411	;# 
  1141     019B                     SPBRGL          equ	411	;# 
  1142     019C                     SP1BRGH         equ	412	;# 
  1143     019C                     SPBRGH          equ	412	;# 
  1144     019D                     RCSTA           equ	413	;# 
  1145     019E                     TXSTA           equ	414	;# 
  1146     019F                     BAUDCON         equ	415	;# 
  1147     020C                     WPUA            equ	524	;# 
  1148     020D                     WPUB            equ	525	;# 
  1149     0211                     SSP1BUF         equ	529	;# 
  1150     0211                     SSPBUF          equ	529	;# 
  1151     0212                     SSP1ADD         equ	530	;# 
  1152     0212                     SSPADD          equ	530	;# 
  1153     0213                     SSP1MSK         equ	531	;# 
  1154     0213                     SSPMSK          equ	531	;# 
  1155     0214                     SSP1STAT        equ	532	;# 
  1156     0214                     SSPSTAT         equ	532	;# 
  1157     0215                     SSP1CON1        equ	533	;# 
  1158     0215                     SSPCON1         equ	533	;# 
  1159     0215                     SSPCON          equ	533	;# 
  1160     0216                     SSP1CON2        equ	534	;# 
  1161     0216                     SSPCON2         equ	534	;# 
  1162     0217                     SSP1CON3        equ	535	;# 
  1163     0217                     SSPCON3         equ	535	;# 
  1164     0219                     SSP2BUF         equ	537	;# 
  1165     021A                     SSP2ADD         equ	538	;# 
  1166     021B                     SSP2MSK         equ	539	;# 
  1167     021C                     SSP2STAT        equ	540	;# 
  1168     021D                     SSP2CON1        equ	541	;# 
  1169     021E                     SSP2CON2        equ	542	;# 
  1170     021F                     SSP2CON3        equ	543	;# 
  1171     0291                     CCPR1           equ	657	;# 
  1172     0291                     CCPR1L          equ	657	;# 
  1173     0292                     CCPR1H          equ	658	;# 
  1174     0293                     CCP1CON         equ	659	;# 
  1175     0294                     PWM1CON         equ	660	;# 
  1176     0295                     CCP1AS          equ	661	;# 
  1177     0295                     ECCP1AS         equ	661	;# 
  1178     0296                     PSTR1CON        equ	662	;# 
  1179     0298                     CCPR2           equ	664	;# 
  1180     0298                     CCPR2L          equ	664	;# 
  1181     0299                     CCPR2H          equ	665	;# 
  1182     029A                     CCP2CON         equ	666	;# 
  1183     029B                     PWM2CON         equ	667	;# 
  1184     029C                     CCP2AS          equ	668	;# 
  1185     029C                     ECCP2AS         equ	668	;# 
  1186     029D                     PSTR2CON        equ	669	;# 
  1187     029E                     CCPTMRS         equ	670	;# 
  1188     029E                     CCPTMRS0        equ	670	;# 
  1189     0311                     CCPR3           equ	785	;# 
  1190     0311                     CCPR3L          equ	785	;# 
  1191     0312                     CCPR3H          equ	786	;# 
  1192     0313                     CCP3CON         equ	787	;# 
  1193     0318                     CCPR4           equ	792	;# 
  1194     0318                     CCPR4L          equ	792	;# 
  1195     0319                     CCPR4H          equ	793	;# 
  1196     031A                     CCP4CON         equ	794	;# 
  1197     0394                     IOCBP           equ	916	;# 
  1198     0395                     IOCBN           equ	917	;# 
  1199     0396                     IOCBF           equ	918	;# 
  1200     039A                     CLKRCON         equ	922	;# 
  1201     039C                     MDCON           equ	924	;# 
  1202     039D                     MDSRC           equ	925	;# 
  1203     039E                     MDCARL          equ	926	;# 
  1204     039F                     MDCARH          equ	927	;# 
  1205     0415                     TMR4            equ	1045	;# 
  1206     0416                     PR4             equ	1046	;# 
  1207     0417                     T4CON           equ	1047	;# 
  1208     041C                     TMR6            equ	1052	;# 
  1209     041D                     PR6             equ	1053	;# 
  1210     041E                     T6CON           equ	1054	;# 
  1211     0FE4                     STATUS_SHAD     equ	4068	;# 
  1212     0FE5                     WREG_SHAD       equ	4069	;# 
  1213     0FE6                     BSR_SHAD        equ	4070	;# 
  1214     0FE7                     PCLATH_SHAD     equ	4071	;# 
  1215     0FE8                     FSR0L_SHAD      equ	4072	;# 
  1216     0FE9                     FSR0H_SHAD      equ	4073	;# 
  1217     0FEA                     FSR1L_SHAD      equ	4074	;# 
  1218     0FEB                     FSR1H_SHAD      equ	4075	;# 
  1219     0FED                     STKPTR          equ	4077	;# 
  1220     0FEE                     TOSL            equ	4078	;# 
  1221     0FEF                     TOSH            equ	4079	;# 
  1222                           
  1223                           	psect	stringtext1
  1224     0800                     __pstringtext1:
  1225     0800                     __CFC22:
  1226     0800  3441               	retlw	65
  1227     0801  3454               	retlw	84
  1228     0802  342B               	retlw	43
  1229     0803  3454               	retlw	84
  1230     0804  3443               	retlw	67
  1231     0805  344F               	retlw	79
  1232     0806  344E               	retlw	78
  1233     0807  3446               	retlw	70
  1234     0808  343D               	retlw	61
  1235     0809  3439               	retlw	57
  1236     080A  3430               	retlw	48
  1237     080B  3436               	retlw	54
  1238     080C  3437               	retlw	55
  1239     080D  3430               	retlw	48
  1240     080E  3430               	retlw	48
  1241     080F  343A               	retlw	58
  1242     0810  3432               	retlw	50
  1243     0811  3432               	retlw	50
  1244     0812  343A               	retlw	58
  1245     0813  3431               	retlw	49
  1246     0814  3432               	retlw	50
  1247     0815  3435               	retlw	53
  1248     0816  343A               	retlw	58
  1249     0817  3431               	retlw	49
  1250     0818  3432               	retlw	50
  1251     0819  343A               	retlw	58
  1252     081A  3434               	retlw	52
  1253     081B  342F               	retlw	47
  1254     081C  3438               	retlw	56
  1255     081D  343A               	retlw	58
  1256     081E  3431               	retlw	49
  1257     081F  343A               	retlw	58
  1258     0820  3431               	retlw	49
  1259     0821  340D               	retlw	13
  1260     0822  3400               	retlw	0
  1261     0823                     __end_of__CFC22:
  1262                           
  1263                           	psect	stringtext2
  1264     0823                     __pstringtext2:
  1265     0823                     __TXC22PING:
  1266     0823  3441               	retlw	65
  1267     0824  3454               	retlw	84
  1268     0825  342B               	retlw	43
  1269     0826  3454               	retlw	84
  1270     0827  3458               	retlw	88
  1271     0828  344C               	retlw	76
  1272     0829  3452               	retlw	82
  1273     082A  3441               	retlw	65
  1274     082B  343D               	retlw	61
  1275     082C  3439               	retlw	57
  1276     082D  3430               	retlw	48
  1277     082E  3436               	retlw	54
  1278     082F  3437               	retlw	55
  1279     0830  3430               	retlw	48
  1280     0831  3430               	retlw	48
  1281     0832  343A               	retlw	58
  1282     0833  3430               	retlw	48
  1283     0834  343A               	retlw	58
  1284     0835  3450               	retlw	80
  1285     0836  3449               	retlw	73
  1286     0837  344E               	retlw	78
  1287     0838  3447               	retlw	71
  1288     0839  340D               	retlw	13
  1289     083A  3400               	retlw	0
  1290     083B                     __end_of__TXC22PING:
  1291                           
  1292                           	psect	stringtext3
  1293     083B                     __pstringtext3:
  1294     083B                     __RXC22:
  1295     083B  3441               	retlw	65
  1296     083C  3454               	retlw	84
  1297     083D  342B               	retlw	43
  1298     083E  3452               	retlw	82
  1299     083F  3458               	retlw	88
  1300     0840  344C               	retlw	76
  1301     0841  3452               	retlw	82
  1302     0842  3441               	retlw	65
  1303     0843  343D               	retlw	61
  1304     0844  3439               	retlw	57
  1305     0845  3430               	retlw	48
  1306     0846  3436               	retlw	54
  1307     0847  3437               	retlw	55
  1308     0848  3430               	retlw	48
  1309     0849  3430               	retlw	48
  1310     084A  343A               	retlw	58
  1311     084B  3431               	retlw	49
  1312     084C  340D               	retlw	13
  1313     084D  3400               	retlw	0
  1314     084E                     __end_of__RXC22:
  1315                           
  1316                           	psect	stringtext4
  1317     084E                     __pstringtext4:
  1318     084E                     __TXSTART22:
  1319     084E  3441               	retlw	65
  1320     084F  3454               	retlw	84
  1321     0850  342B               	retlw	43
  1322     0851  3454               	retlw	84
  1323     0852  3458               	retlw	88
  1324     0853  344C               	retlw	76
  1325     0854  3452               	retlw	82
  1326     0855  3441               	retlw	65
  1327     0856  343D               	retlw	61
  1328     0857  3439               	retlw	57
  1329     0858  3430               	retlw	48
  1330     0859  3436               	retlw	54
  1331     085A  3437               	retlw	55
  1332     085B  3430               	retlw	48
  1333     085C  3430               	retlw	48
  1334     085D  343A               	retlw	58
  1335     085E  3430               	retlw	48
  1336     085F  343A               	retlw	58
  1337     0860  3400               	retlw	0
  1338     0861                     __end_of__TXSTART22:
  1339                           
  1340                           	psect	stringtext5
  1341     0861                     __pstringtext5:
  1342     0861                     __CFOFF:
  1343     0861  3441               	retlw	65
  1344     0862  3454               	retlw	84
  1345     0863  342B               	retlw	43
  1346     0864  3454               	retlw	84
  1347     0865  344F               	retlw	79
  1348     0866  3446               	retlw	70
  1349     0867  3446               	retlw	70
  1350     0868  340D               	retlw	13
  1351     0869  3400               	retlw	0
  1352     086A                     __end_of__CFOFF:
  1353                           
  1354                           	psect	stringtext6
  1355     086A                     __pstringtext6:
  1356     086A                     __RESET:
  1357     086A  3441               	retlw	65
  1358     086B  3454               	retlw	84
  1359     086C  345A               	retlw	90
  1360     086D  340D               	retlw	13
  1361     086E  3400               	retlw	0
  1362     086F                     __end_of__RESET:
  1363                           
  1364                           	psect	nvBANK4
  1365     0239                     __pnvBANK4:
  1366     0239                     _segsAlive:
  1367     0239                     	ds	2
  1368     000D                     _PORTBbits      set	13
  1369     0011                     _PIR1bits       set	17
  1370     000B                     _INTCONbits     set	11
  1371     008C                     _TRISAbits      set	140
  1372     0097                     _WDTCONbits     set	151
  1373     008D                     _TRISBbits      set	141
  1374     0095                     _OPTION_REGbits set	149
  1375     008D                     _TRISB          set	141
  1376     008C                     _TRISA          set	140
  1377     0091                     _PIE1bits       set	145
  1378     0097                     _WDTCON         set	151
  1379     0098                     _OSCTUNE        set	152
  1380     0099                     _OSCCON         set	153
  1381     010C                     _LATAbits       set	268
  1382     010D                     _LATBbits       set	269
  1383     011E                     _APFCON1        set	286
  1384     011D                     _APFCON0        set	285
  1385     010D                     _LATB           set	269
  1386     010C                     _LATA           set	268
  1387     0116                     _BORCON         set	278
  1388     018C                     _ANSELAbits     set	396
  1389     0196                     _EECON2         set	406
  1390     0193                     _EEDATL         set	403
  1391     0194                     _EEDATH         set	404
  1392     0195                     _EECON1bits     set	405
  1393     0192                     _EEADRH         set	402
  1394     0191                     _EEADRL         set	401
  1395     018C                     _ANSELA         set	396
  1396     018D                     _ANSELB         set	397
  1397     0199                     _RCREG          set	409
  1398     019D                     _RCSTAbits      set	413
  1399     019A                     _TXREG          set	410
  1400     019E                     _TXSTAbits      set	414
  1401     019C                     _SPBRGH         set	412
  1402     019B                     _SPBRGL         set	411
  1403     019E                     _TXSTA          set	414
  1404     019D                     _RCSTA          set	413
  1405     019F                     _BAUDCON        set	415
  1406     020C                     _WPUA           set	524
  1407     020D                     _WPUB           set	525
  1408                           
  1409                           	psect	cinit
  1410     0031                     start_initialization:	
  1411                           ; #config settings
  1412                           
  1413     0031                     __initialization:
  1414                           
  1415                           ; Clear objects allocated to COMMON
  1416     0031  01FB               	clrf	__pbssCOMMON& (0+127)
  1417     0032  01FC               	clrf	(__pbssCOMMON+1)& (0+127)
  1418     0033  01FD               	clrf	(__pbssCOMMON+2)& (0+127)
  1419                           
  1420                           ; Clear objects allocated to BANK0
  1421     0034  3020               	movlw	low __pbssBANK0
  1422     0035  0084               	movwf	4
  1423     0036  3000               	movlw	high __pbssBANK0
  1424     0037  0085               	movwf	5
  1425     0038  3050               	movlw	80
  1426     0039  318D  25C4  3180   	fcall	clear_ram0
  1427                           
  1428                           ; Clear objects allocated to BANK1
  1429     003C  30A0               	movlw	low __pbssBANK1
  1430     003D  0084               	movwf	4
  1431     003E  3000               	movlw	high __pbssBANK1
  1432     003F  0085               	movwf	5
  1433     0040  3050               	movlw	80
  1434     0041  318D  25C4  3180   	fcall	clear_ram0
  1435                           
  1436                           ; Clear objects allocated to BANK2
  1437     0044  3020               	movlw	low __pbssBANK2
  1438     0045  0084               	movwf	4
  1439     0046  3001               	movlw	high __pbssBANK2
  1440     0047  0085               	movwf	5
  1441     0048  3050               	movlw	80
  1442     0049  318D  25C4  3180   	fcall	clear_ram0
  1443                           
  1444                           ; Clear objects allocated to BANK3
  1445     004C  30A0               	movlw	low __pbssBANK3
  1446     004D  0084               	movwf	4
  1447     004E  3001               	movlw	high __pbssBANK3
  1448     004F  0085               	movwf	5
  1449     0050  3050               	movlw	80
  1450     0051  318D  25C4  3180   	fcall	clear_ram0
  1451                           
  1452                           ; Clear objects allocated to BANK4
  1453     0054  3020               	movlw	low __pbssBANK4
  1454     0055  0084               	movwf	4
  1455     0056  3002               	movlw	high __pbssBANK4
  1456     0057  0085               	movwf	5
  1457     0058  3019               	movlw	25
  1458     0059  318D  25C4  3180   	fcall	clear_ram0
  1459     005C                     end_of_initialization:	
  1460                           ;End of C runtime variable initialization code
  1461                           
  1462     005C                     __end_of__initialization:
  1463     005C  107E               	bcf	int$flags,0	;clear compiler interrupt flag (level 1)
  1464     005D  0020               	movlb	0
  1465     005E  3180  2860         	ljmp	_main	;jump to C main() function
  1466                           
  1467                           	psect	bssCOMMON
  1468     007B                     __pbssCOMMON:
  1469     007B                     _fRetLora:
  1470     007B                     	ds	1
  1471     007C                     _UltimoDadoRecebido:
  1472     007C                     	ds	1
  1473     007D                     _indice:
  1474     007D                     	ds	1
  1475                           
  1476                           	psect	bssBANK0
  1477     0020                     __pbssBANK0:
  1478     0020                     _eusartRxBuffer:
  1479     0020                     	ds	64
  1480     0060                     _flags:
  1481     0060                     	ds	6
  1482     0066                     _EUSART_RxDefaultInterruptHandler:
  1483     0066                     	ds	2
  1484     0068                     _EUSART_TxDefaultInterruptHandler:
  1485     0068                     	ds	2
  1486     006A                     _fTxOk:
  1487     006A                     	ds	1
  1488     006B                     _fParm:
  1489     006B                     	ds	1
  1490     006C                     _fBusy:
  1491     006C                     	ds	1
  1492     006D                     _fAtOk:
  1493     006D                     	ds	1
  1494     006E                     _fATerr:
  1495     006E                     	ds	1
  1496     006F                     _fOK:
  1497     006F                     	ds	1
  1498                           
  1499                           	psect	bssBANK1
  1500     00A0                     __pbssBANK1:
  1501     00A0                     _eusartTxBuffer:
  1502     00A0                     	ds	32
  1503     00C0                     _pacoteTRX:
  1504     00C0                     	ds	14
  1505     00CE                     _DadosSensor:
  1506     00CE                     	ds	8
  1507     00D6                     _passagem:
  1508     00D6                     	ds	4
  1509     00DA                     _ID:
  1510     00DA                     	ds	4
  1511     00DE                     _EUSART_ErrorHandler:
  1512     00DE                     	ds	2
  1513     00E0                     _EUSART_OverrunErrorHandler:
  1514     00E0                     	ds	2
  1515     00E2                     _EUSART_FramingErrorHandler:
  1516     00E2                     	ds	2
  1517     00E4                     _TotalSerial:
  1518     00E4                     	ds	2
  1519     00E6                     _fDetec:
  1520     00E6                     	ds	1
  1521     00E7                     _fAT:
  1522     00E7                     	ds	1
  1523     00E8                     _eusartRxLastError:
  1524     00E8                     	ds	1
  1525     00E9                     _eusartRxCount:
  1526     00E9                     	ds	1
  1527     00EA                     _eusartRxTail:
  1528     00EA                     	ds	1
  1529     00EB                     _eusartRxHead:
  1530     00EB                     	ds	1
  1531     00EC                     _eusartTxBufferRemaining:
  1532     00EC                     	ds	1
  1533     00ED                     _eusartTxTail:
  1534     00ED                     	ds	1
  1535     00EE                     _eusartTxHead:
  1536     00EE                     	ds	1
  1537     00EF                     _fProgID:
  1538     00EF                     	ds	1
  1539                           
  1540                           	psect	bssBANK2
  1541     0120                     __pbssBANK2:
  1542     0120                     _DadosLora:
  1543     0120                     	ds	64
  1544     0160                     _tempoEspera:
  1545     0160                     	ds	2
  1546     0162                     _TempoDeReplicacao:
  1547     0162                     	ds	2
  1548     0164                     _ENDERECO:
  1549     0164                     	ds	2
  1550     0166                     _OFFSET:
  1551     0166                     	ds	2
  1552     0168                     _fRetSensor:
  1553     0168                     	ds	1
  1554     0169                     _indiceSensor:
  1555     0169                     	ds	1
  1556     016A                     _fComandoSirene:
  1557     016A                     	ds	1
  1558     016B                     _fReplicar:
  1559     016B                     	ds	1
  1560     016C                     _fRTX:
  1561     016C                     	ds	1
  1562     016D                     _fLigado:
  1563     016D                     	ds	1
  1564     016E                     _fErroID:
  1565     016E                     	ds	1
  1566     016F                     _fTimeOut:
  1567     016F                     	ds	1
  1568                           
  1569                           	psect	bssBANK3
  1570     01A0                     __pbssBANK3:
  1571     01A0                     _eusartRxStatusBuffer:
  1572     01A0                     	ds	64
  1573     01E0                     _offset:
  1574     01E0                     	ds	2
  1575     01E2                     _endereco:
  1576     01E2                     	ds	2
  1577     01E4                     _enderecoRecebido:
  1578     01E4                     	ds	2
  1579     01E6                     _temp16:
  1580     01E6                     	ds	2
  1581     01E8                     _contaRTX:
  1582     01E8                     	ds	2
  1583     01EA                     _tempoRTX:
  1584     01EA                     	ds	2
  1585     01EC                     _cicloLED:
  1586     01EC                     	ds	2
  1587     01EE                     _tMs:
  1588     01EE                     	ds	2
  1589                           
  1590                           	psect	bssBANK4
  1591     0220                     __pbssBANK4:
  1592     0220                     _endereco_U:
  1593     0220                     	ds	1
  1594     0221                     _endereco_D:
  1595     0221                     	ds	1
  1596     0222                     _endereco_C:
  1597     0222                     	ds	1
  1598     0223                     _endereco_M:
  1599     0223                     	ds	1
  1600     0224                     _U_EnderecoRecebido:
  1601     0224                     	ds	1
  1602     0225                     _M_EnderecoRecebido:
  1603     0225                     	ds	1
  1604     0226                     _rett:
  1605     0226                     	ds	1
  1606     0227                     _temp8:
  1607     0227                     	ds	1
  1608     0228                     _BatL:
  1609     0228                     	ds	1
  1610     0229                     _BatH:
  1611     0229                     	ds	1
  1612     022A                     _dips:
  1613     022A                     	ds	1
  1614     022B                     _canal:
  1615     022B                     	ds	1
  1616     022C                     _loop:
  1617     022C                     	ds	1
  1618     022D                     _LL:
  1619     022D                     	ds	1
  1620     022E                     _HH:
  1621     022E                     	ds	1
  1622     022F                     _fEspera:
  1623     022F                     	ds	1
  1624     0230                     _fRepete:
  1625     0230                     	ds	1
  1626     0231                     _AcEVTBatLOW:
  1627     0231                     	ds	1
  1628     0232                     _AcEVTBatOK:
  1629     0232                     	ds	1
  1630     0233                     _AcAliveBatLOW:
  1631     0233                     	ds	1
  1632     0234                     _AcAliveBatOK:
  1633     0234                     	ds	1
  1634     0235                     _TIPO:
  1635     0235                     	ds	1
  1636     0236                     _SM_STATUSflags:
  1637     0236                     	ds	1
  1638     0237                     _D_EnderecoRecebido:
  1639     0237                     	ds	1
  1640     0238                     _C_EnderecoRecebido:
  1641     0238                     	ds	1
  1642                           
  1643                           	psect	clrtext
  1644     0DC4                     clear_ram0:	
  1645                           ;	Called with FSR0 containing the base address, and
  1646                           ;	WREG with the size to clear
  1647                           
  1648     0DC4  0064               	clrwdt	;clear the watchdog before getting into this loop
  1649     0DC5                     clrloop0:
  1650     0DC5  0180               	clrf	0	;clear RAM location pointed to by FSR
  1651     0DC6  3101               	addfsr 0,1
  1652     0DC7  0B89               	decfsz	9,f	;Have we reached the end of clearing yet?
  1653     0DC8  2DC5               	goto	clrloop0	;have we reached the end yet?
  1654     0DC9  3400               	retlw	0	;all done for this memory range, return
  1655                           
  1656                           	psect	cstackCOMMON
  1657     0070                     __pcstackCOMMON:
  1658     0070                     ?_EUSART_SetRxInterruptHandler:
  1659     0070                     ?_EUSART_Receive_ISR:	
  1660                           ; 1 bytes @ 0x0
  1661                           
  1662     0070                     ?_EUSART_SetTxInterruptHandler:	
  1663                           ; 1 bytes @ 0x0
  1664                           
  1665     0070                     ?_EUSART_Transmit_ISR:	
  1666                           ; 1 bytes @ 0x0
  1667                           
  1668     0070                     ?_EUSART_SetFramingErrorHandler:	
  1669                           ; 1 bytes @ 0x0
  1670                           
  1671     0070                     ?_EUSART_DefaultFramingErrorHandler:	
  1672                           ; 1 bytes @ 0x0
  1673                           
  1674     0070                     ?_EUSART_SetOverrunErrorHandler:	
  1675                           ; 1 bytes @ 0x0
  1676                           
  1677     0070                     ?_EUSART_DefaultOverrunErrorHandler:	
  1678                           ; 1 bytes @ 0x0
  1679                           
  1680     0070                     ?_EUSART_SetErrorHandler:	
  1681                           ; 1 bytes @ 0x0
  1682                           
  1683     0070                     ?_EUSART_DefaultErrorHandler:	
  1684                           ; 1 bytes @ 0x0
  1685                           
  1686     0070                     ?_EUSART_RxDataHandler:	
  1687                           ; 1 bytes @ 0x0
  1688                           
  1689     0070                     ?_OSCILLATOR_Initialize:	
  1690                           ; 1 bytes @ 0x0
  1691                           
  1692     0070                     ?_WDT_Initialize:	
  1693                           ; 1 bytes @ 0x0
  1694                           
  1695     0070                     ?_INTERRUPT_InterruptManager:	
  1696                           ; 1 bytes @ 0x0
  1697                           
  1698     0070                     ?_EUSART_Reset:	
  1699                           ; 1 bytes @ 0x0
  1700                           
  1701     0070                     ?_EUSART_Initialize:	
  1702                           ; 1 bytes @ 0x0
  1703                           
  1704     0070                     ?_EUSART_Write:	
  1705                           ; 1 bytes @ 0x0
  1706                           
  1707     0070                     ?_PIN_MANAGER_Initialize:	
  1708                           ; 1 bytes @ 0x0
  1709                           
  1710     0070                     ?_ModuloOn:	
  1711                           ; 1 bytes @ 0x0
  1712                           
  1713     0070                     ?_ModuloOff:	
  1714                           ; 1 bytes @ 0x0
  1715                           
  1716     0070                     ?_ErrCode:	
  1717                           ; 1 bytes @ 0x0
  1718                           
  1719     0070                     ?_Espera_TxOk:	
  1720                           ; 1 bytes @ 0x0
  1721                           
  1722     0070                     ?_SM_RESET:	
  1723                           ; 1 bytes @ 0x0
  1724                           
  1725     0070                     ?_SM_CONFIGRADIO:	
  1726                           ; 1 bytes @ 0x0
  1727                           
  1728     0070                     ?_SM_MODORX:	
  1729                           ; 1 bytes @ 0x0
  1730                           
  1731     0070                     ?_SM_CFOFF:	
  1732                           ; 1 bytes @ 0x0
  1733                           
  1734     0070                     ?_SM_START:	
  1735                           ; 1 bytes @ 0x0
  1736                           
  1737     0070                     ?_TX_Lora:	
  1738                           ; 1 bytes @ 0x0
  1739                           
  1740     0070                     ?_TesteEnvio:	
  1741                           ; 1 bytes @ 0x0
  1742                           
  1743     0070                     ?_main:	
  1744                           ; 1 bytes @ 0x0
  1745                           
  1746     0070                     ?___wmul:	
  1747                           ; 1 bytes @ 0x0
  1748                           
  1749     0070                     ?___lwdiv:	
  1750                           ; 2 bytes @ 0x0
  1751                           
  1752     0070                     ?___lwmod:	
  1753                           ; 2 bytes @ 0x0
  1754                           
  1755     0070                     EUSART_Write@txData:	
  1756                           ; 2 bytes @ 0x0
  1757                           
  1758     0070                     SM_CONFIGRADIO@ch:	
  1759                           ; 1 bytes @ 0x0
  1760                           
  1761     0070                     SM_MODORX@ch:	
  1762                           ; 1 bytes @ 0x0
  1763                           
  1764     0070                     EUSART_SetFramingErrorHandler@interruptHandler:	
  1765                           ; 1 bytes @ 0x0
  1766                           
  1767     0070                     EUSART_SetOverrunErrorHandler@interruptHandler:	
  1768                           ; 2 bytes @ 0x0
  1769                           
  1770     0070                     EUSART_SetErrorHandler@interruptHandler:	
  1771                           ; 2 bytes @ 0x0
  1772                           
  1773     0070                     EUSART_SetTxInterruptHandler@interruptHandler:	
  1774                           ; 2 bytes @ 0x0
  1775                           
  1776     0070                     EUSART_SetRxInterruptHandler@interruptHandler:	
  1777                           ; 2 bytes @ 0x0
  1778                           
  1779     0070                     ___wmul@multiplier:	
  1780                           ; 2 bytes @ 0x0
  1781                           
  1782     0070                     ___lwdiv@divisor:	
  1783                           ; 2 bytes @ 0x0
  1784                           
  1785     0070                     ___lwmod@divisor:	
  1786                           ; 2 bytes @ 0x0
  1787                           
  1788     0070                     ??_EUSART_Receive_ISR:	
  1789                           ; 2 bytes @ 0x0
  1790                           
  1791     0070                     ??_EUSART_Transmit_ISR:	
  1792                           ; 1 bytes @ 0x0
  1793                           
  1794     0070                     ??_EUSART_DefaultFramingErrorHandler:	
  1795                           ; 1 bytes @ 0x0
  1796                           
  1797     0070                     ??_EUSART_DefaultOverrunErrorHandler:	
  1798                           ; 1 bytes @ 0x0
  1799                           
  1800     0070                     ??_EUSART_DefaultErrorHandler:	
  1801                           ; 1 bytes @ 0x0
  1802                           
  1803     0070                     ??_EUSART_RxDataHandler:	
  1804                           ; 1 bytes @ 0x0
  1805                           
  1806     0070                     ??_OSCILLATOR_Initialize:	
  1807                           ; 1 bytes @ 0x0
  1808                           
  1809     0070                     ??_WDT_Initialize:	
  1810                           ; 1 bytes @ 0x0
  1811                           
  1812     0070                     ??_INTERRUPT_InterruptManager:	
  1813                           ; 1 bytes @ 0x0
  1814                           
  1815     0070                     ??_EUSART_Reset:	
  1816                           ; 1 bytes @ 0x0
  1817                           
  1818     0070                     ??_EUSART_Write:	
  1819                           ; 1 bytes @ 0x0
  1820                           
  1821     0070                     ??_PIN_MANAGER_Initialize:	
  1822                           ; 1 bytes @ 0x0
  1823                           
  1824     0070                     ??_ModuloOn:	
  1825                           ; 1 bytes @ 0x0
  1826                           
  1827     0070                     ??_ModuloOff:	
  1828                           ; 1 bytes @ 0x0
  1829                           
  1830     0070                     ??_Espera_TxOk:	
  1831                           ; 1 bytes @ 0x0
  1832                           
  1833                           
  1834                           ; 1 bytes @ 0x0
  1835     0070                     	ds	1
  1836     0071                     ??_ErrCode:
  1837     0071                     ??_SM_RESET:	
  1838                           ; 1 bytes @ 0x1
  1839                           
  1840     0071                     ??_SM_CONFIGRADIO:	
  1841                           ; 1 bytes @ 0x1
  1842                           
  1843     0071                     ??_SM_MODORX:	
  1844                           ; 1 bytes @ 0x1
  1845                           
  1846     0071                     ??_SM_CFOFF:	
  1847                           ; 1 bytes @ 0x1
  1848                           
  1849                           
  1850                           ; 1 bytes @ 0x1
  1851     0071                     	ds	1
  1852     0072                     ___wmul@multiplicand:
  1853     0072                     ___lwdiv@dividend:	
  1854                           ; 2 bytes @ 0x2
  1855                           
  1856     0072                     ___lwmod@dividend:	
  1857                           ; 2 bytes @ 0x2
  1858                           
  1859     0072                     ??_EUSART_SetRxInterruptHandler:	
  1860                           ; 2 bytes @ 0x2
  1861                           
  1862     0072                     ??_EUSART_SetTxInterruptHandler:	
  1863                           ; 1 bytes @ 0x2
  1864                           
  1865     0072                     ??_EUSART_SetFramingErrorHandler:	
  1866                           ; 1 bytes @ 0x2
  1867                           
  1868     0072                     ??_EUSART_SetOverrunErrorHandler:	
  1869                           ; 1 bytes @ 0x2
  1870                           
  1871     0072                     ??_EUSART_SetErrorHandler:	
  1872                           ; 1 bytes @ 0x2
  1873                           
  1874     0072                     ??_EUSART_Initialize:	
  1875                           ; 1 bytes @ 0x2
  1876                           
  1877                           
  1878                           ; 1 bytes @ 0x2
  1879     0072                     	ds	1
  1880     0073                     ErrCode@code:
  1881     0073                     ??_SM_START:	
  1882                           ; 1 bytes @ 0x3
  1883                           
  1884     0073                     ??_TX_Lora:	
  1885                           ; 1 bytes @ 0x3
  1886                           
  1887                           
  1888                           ; 1 bytes @ 0x3
  1889     0073                     	ds	1
  1890     0074                     ___lwmod@counter:
  1891     0074                     ___wmul@product:	
  1892                           ; 1 bytes @ 0x4
  1893                           
  1894     0074                     ___lwdiv@quotient:	
  1895                           ; 2 bytes @ 0x4
  1896                           
  1897     0074                     ??___wmul:	
  1898                           ; 2 bytes @ 0x4
  1899                           
  1900     0074                     ??___lwdiv:	
  1901                           ; 1 bytes @ 0x4
  1902                           
  1903     0074                     ??___lwmod:	
  1904                           ; 1 bytes @ 0x4
  1905                           
  1906                           
  1907                           ; 1 bytes @ 0x4
  1908     0074                     	ds	2
  1909     0076                     ___lwdiv@counter:
  1910                           
  1911                           ; 1 bytes @ 0x6
  1912     0076                     	ds	1
  1913     0077                     ??_TesteEnvio:
  1914                           
  1915                           ; 1 bytes @ 0x7
  1916     0077                     	ds	2
  1917     0079                     ??_main:
  1918                           
  1919                           ; 1 bytes @ 0x9
  1920     0079                     	ds	2
  1921                           
  1922                           	psect	maintext
  1923     0060                     __pmaintext:	
  1924 ;;
  1925 ;;Main: autosize = 0, tempsize = 2, incstack = 0, save=0
  1926 ;;
  1927 ;; *************** function _main *****************
  1928 ;; Defined at:
  1929 ;;		line 316 in file "main.c"
  1930 ;; Parameters:    Size  Location     Type
  1931 ;;		None
  1932 ;; Auto vars:     Size  Location     Type
  1933 ;;		None
  1934 ;; Return value:  Size  Location     Type
  1935 ;;                  1    wreg      void 
  1936 ;; Registers used:
  1937 ;;		wreg, fsr0l, fsr0h, fsr1l, fsr1h, status,2, status,0, pclath, cstack
  1938 ;; Tracked objects:
  1939 ;;		On entry : B1F/0
  1940 ;;		On exit  : 0/0
  1941 ;;		Unchanged: 0/0
  1942 ;; Data sizes:     COMMON   BANK0   BANK1   BANK2   BANK3   BANK4
  1943 ;;      Params:         0       0       0       0       0       0
  1944 ;;      Locals:         0       0       0       0       0       0
  1945 ;;      Temps:          2       0       0       0       0       0
  1946 ;;      Totals:         2       0       0       0       0       0
  1947 ;;Total ram usage:        2 bytes
  1948 ;; Hardware stack levels required when called: 7
  1949 ;; This function calls:
  1950 ;;		_EUSART_Initialize
  1951 ;;		_ErrCode
  1952 ;;		_ModuloOff
  1953 ;;		_OSCILLATOR_Initialize
  1954 ;;		_PIN_MANAGER_Initialize
  1955 ;;		_SM_CFOFF
  1956 ;;		_SM_CONFIGRADIO
  1957 ;;		_SM_MODORX
  1958 ;;		_SM_START
  1959 ;;		_TX_Lora
  1960 ;;		_TesteEnvio
  1961 ;;		_WDT_Initialize
  1962 ;;		___lwdiv
  1963 ;;		___lwmod
  1964 ;;		___wmul
  1965 ;; This function is called by:
  1966 ;;		Startup code after reset
  1967 ;; This function uses a non-reentrant model
  1968 ;;
  1969                           
  1970     0060                     _main:	
  1971                           ;psect for function _main
  1972                           
  1973     0060                     l2986:	
  1974                           ;incstack = 0
  1975                           ; Regs used in _main: [wreg-fsr1h+status,2+status,0+pclath+cstack]
  1976                           
  1977                           
  1978                           ;main.c: 318:     __nop();
  1979     0060  0000               	nop
  1980                           
  1981                           ;main.c: 319:     __nop();
  1982     0061  0000               	nop
  1983     0062                     l2988:
  1984                           
  1985                           ;main.c: 322:     PIN_MANAGER_Initialize();
  1986     0062  318D  25E4  3180   	fcall	_PIN_MANAGER_Initialize
  1987     0065                     l2990:
  1988     0065  0021               	movlb	1	; select bank1
  1989     0066  108D               	bcf	13,1	;volatile
  1990     0067                     l2992:
  1991     0067  0022               	movlb	2	; select bank2
  1992     0068  108D               	bcf	13,1	;volatile
  1993     0069                     l605:
  1994                           
  1995                           ;main.c: 325:     OSCILLATOR_Initialize();
  1996     0069  318D  25CA  3180   	fcall	_OSCILLATOR_Initialize
  1997                           
  1998                           ;main.c: 326:     WDT_Initialize();
  1999     006C  318D  25A2  3180   	fcall	_WDT_Initialize
  2000     006F                     l2994:
  2001                           
  2002                           ;main.c: 327:     WDTCONbits.SWDTEN=0;
  2003     006F  0021               	movlb	1	; select bank1
  2004     0070  1017               	bcf	23,0	;volatile
  2005     0071                     l2996:
  2006     0071  0022               	movlb	2	; select bank2
  2007     0072  100C               	bcf	12,0	;volatile
  2008     0073                     l2998:
  2009     0073  0023               	movlb	3	; select bank3
  2010     0074  100C               	bcf	12,0	;volatile
  2011     0075                     l3000:
  2012     0075  0021               	movlb	1	; select bank1
  2013     0076  100C               	bcf	12,0	;volatile
  2014     0077                     l3002:
  2015     0077  0022               	movlb	2	; select bank2
  2016     0078  100C               	bcf	12,0	;volatile
  2017     0079                     l3004:
  2018                           
  2019                           ;main.c: 332:     ModuloOff();
  2020     0079  318D  25D1  3180   	fcall	_ModuloOff
  2021     007C                     l3006:
  2022     007C  0022               	movlb	2	; select bank2
  2023     007D  170C               	bsf	12,6	;volatile
  2024     007E                     l3008:
  2025     007E  178C               	bsf	12,7	;volatile
  2026     007F                     l3010:
  2027                           
  2028                           ;main.c: 337:     indice=0;
  2029     007F  01FD               	clrf	_indice	;volatile
  2030     0080                     l3012:
  2031                           
  2032                           ;main.c: 338:     fRetSensor=250;
  2033     0080  30FA               	movlw	250
  2034     0081  00E8               	movwf	_fRetSensor^(0+256)	;volatile
  2035     0082                     l3014:
  2036                           
  2037                           ;main.c: 339:     segsAlive=0;
  2038     0082  0024               	movlb	4	; select bank4
  2039     0083  01B9               	clrf	_segsAlive^(0+512)
  2040     0084  01BA               	clrf	(_segsAlive+1)^(0+512)
  2041     0085                     l3016:
  2042                           
  2043                           ;main.c: 341:     EUSART_Initialize();
  2044     0085  318F  27C3  3180   	fcall	_EUSART_Initialize
  2045     0088                     l3018:
  2046                           
  2047                           ;main.c: 342:     (INTCONbits.GIE = 1);
  2048     0088  178B               	bsf	11,7	;volatile
  2049     0089                     l3020:
  2050                           
  2051                           ;main.c: 343:     (INTCONbits.PEIE = 1);
  2052     0089  170B               	bsf	11,6	;volatile
  2053     008A                     l3022:
  2054                           
  2055                           ;main.c: 346:     __nop();
  2056     008A  0000               	nop
  2057     008B                     l3024:
  2058                           
  2059                           ;main.c: 347:     rett = SM_START();
  2060     008B  3187  2743  3180   	fcall	_SM_START
  2061     008E  0024               	movlb	4	; select bank4
  2062     008F  00A6               	movwf	_rett^(0+512)
  2063     0090                     l3026:
  2064                           
  2065                           ;main.c: 348:     if (rett != fSM_OK)
  2066     0090  0326               	decf	_rett^(0+512),w
  2067     0091  1903               	btfsc	3,2
  2068     0092  2894               	goto	u1771
  2069     0093  2895               	goto	u1770
  2070     0094                     u1771:
  2071     0094  2899               	goto	l3030
  2072     0095                     u1770:
  2073     0095                     l3028:
  2074                           
  2075                           ;main.c: 349:         ErrCode(rett);
  2076     0095  0826               	movf	_rett^(0+512),w
  2077     0096  3186  26C8  3180   	fcall	_ErrCode
  2078     0099                     l3030:
  2079                           
  2080                           ;main.c: 350:     __nop();
  2081     0099  0000               	nop
  2082     009A                     l3032:
  2083     009A  0022               	movlb	2	; select bank2
  2084     009B  130C               	bcf	12,6	;volatile
  2085     009C                     l3034:
  2086     009C  138C               	bcf	12,7	;volatile
  2087     009D                     l3036:
  2088                           
  2089                           ;main.c: 354:     _delay((unsigned long)((50)*(16000000/4000.0)));
  2090     009D  3002               	movlw	2
  2091     009E  00FA               	movwf	??_main+1
  2092     009F  3004               	movlw	4
  2093     00A0  00F9               	movwf	??_main
  2094     00A1  30BA               	movlw	186
  2095     00A2                     u2077:
  2096     00A2  0B89               	decfsz	9,f
  2097     00A3  28A2               	goto	u2077
  2098     00A4  0BF9               	decfsz	??_main,f
  2099     00A5  28A2               	goto	u2077
  2100     00A6  0BFA               	decfsz	??_main+1,f
  2101     00A7  28A2               	goto	u2077
  2102     00A8  3200               	nop2
  2103     00A9                     l3038:
  2104                           
  2105                           ;main.c: 355:     SM_CFOFF();
  2106     00A9  318E  26D3  3180   	fcall	_SM_CFOFF
  2107     00AC                     l3040:
  2108                           
  2109                           ;main.c: 356:     SM_CONFIGRADIO(22);
  2110     00AC  3016               	movlw	22
  2111     00AD  318F  2700  3180   	fcall	_SM_CONFIGRADIO
  2112     00B0                     l3042:
  2113                           
  2114                           ;main.c: 357:     SM_MODORX(22);
  2115     00B0  3016               	movlw	22
  2116     00B1  318F  272D  3180   	fcall	_SM_MODORX
  2117     00B4                     l3044:
  2118                           
  2119                           ;main.c: 358:     SM_CFOFF();
  2120     00B4  318E  26D3  3180   	fcall	_SM_CFOFF
  2121     00B7                     l3046:
  2122                           
  2123                           ;main.c: 359:     SM_CONFIGRADIO(22);
  2124     00B7  3016               	movlw	22
  2125     00B8  318F  2700  3180   	fcall	_SM_CONFIGRADIO
  2126     00BB                     l3048:
  2127                           
  2128                           ;main.c: 360:     SM_MODORX(22);
  2129     00BB  3016               	movlw	22
  2130     00BC  318F  272D  3180   	fcall	_SM_MODORX
  2131     00BF                     l3050:
  2132                           
  2133                           ;main.c: 361:     __nop();
  2134     00BF  0000               	nop
  2135     00C0                     l3052:
  2136     00C0  0022               	movlb	2	; select bank2
  2137     00C1  170C               	bsf	12,6	;volatile
  2138     00C2                     l3054:
  2139     00C2  178C               	bsf	12,7	;volatile
  2140     00C3                     l3056:
  2141     00C3  3002               	movlw	2
  2142     00C4  00FA               	movwf	??_main+1
  2143     00C5  3004               	movlw	4
  2144     00C6  00F9               	movwf	??_main
  2145     00C7  30BA               	movlw	186
  2146     00C8                     u2087:
  2147     00C8  0B89               	decfsz	9,f
  2148     00C9  28C8               	goto	u2087
  2149     00CA  0BF9               	decfsz	??_main,f
  2150     00CB  28C8               	goto	u2087
  2151     00CC  0BFA               	decfsz	??_main+1,f
  2152     00CD  28C8               	goto	u2087
  2153     00CE  3200               	nop2
  2154     00CF                     l3058:
  2155     00CF  0022               	movlb	2	; select bank2
  2156     00D0  130C               	bcf	12,6	;volatile
  2157     00D1                     l3060:
  2158     00D1  138C               	bcf	12,7	;volatile
  2159     00D2                     l3062:
  2160     00D2  3002               	movlw	2
  2161     00D3  00FA               	movwf	??_main+1
  2162     00D4  3004               	movlw	4
  2163     00D5  00F9               	movwf	??_main
  2164     00D6  30BA               	movlw	186
  2165     00D7                     u2097:
  2166     00D7  0B89               	decfsz	9,f
  2167     00D8  28D7               	goto	u2097
  2168     00D9  0BF9               	decfsz	??_main,f
  2169     00DA  28D7               	goto	u2097
  2170     00DB  0BFA               	decfsz	??_main+1,f
  2171     00DC  28D7               	goto	u2097
  2172     00DD  3200               	nop2
  2173     00DE                     l3064:
  2174     00DE  0022               	movlb	2	; select bank2
  2175     00DF  170C               	bsf	12,6	;volatile
  2176     00E0                     l3066:
  2177     00E0  178C               	bsf	12,7	;volatile
  2178     00E1                     l3068:
  2179     00E1  3002               	movlw	2
  2180     00E2  00FA               	movwf	??_main+1
  2181     00E3  3004               	movlw	4
  2182     00E4  00F9               	movwf	??_main
  2183     00E5  30BA               	movlw	186
  2184     00E6                     u2107:
  2185     00E6  0B89               	decfsz	9,f
  2186     00E7  28E6               	goto	u2107
  2187     00E8  0BF9               	decfsz	??_main,f
  2188     00E9  28E6               	goto	u2107
  2189     00EA  0BFA               	decfsz	??_main+1,f
  2190     00EB  28E6               	goto	u2107
  2191     00EC  3200               	nop2
  2192     00ED                     l3070:
  2193     00ED  0022               	movlb	2	; select bank2
  2194     00EE  130C               	bcf	12,6	;volatile
  2195     00EF                     l3072:
  2196     00EF  138C               	bcf	12,7	;volatile
  2197     00F0                     l3074:
  2198     00F0  3002               	movlw	2
  2199     00F1  00FA               	movwf	??_main+1
  2200     00F2  3004               	movlw	4
  2201     00F3  00F9               	movwf	??_main
  2202     00F4  30BA               	movlw	186
  2203     00F5                     u2117:
  2204     00F5  0B89               	decfsz	9,f
  2205     00F6  28F5               	goto	u2117
  2206     00F7  0BF9               	decfsz	??_main,f
  2207     00F8  28F5               	goto	u2117
  2208     00F9  0BFA               	decfsz	??_main+1,f
  2209     00FA  28F5               	goto	u2117
  2210     00FB  3200               	nop2
  2211     00FC                     l3076:
  2212     00FC  0022               	movlb	2	; select bank2
  2213     00FD  170C               	bsf	12,6	;volatile
  2214     00FE                     l3078:
  2215     00FE  178C               	bsf	12,7	;volatile
  2216     00FF                     l3080:
  2217     00FF  3002               	movlw	2
  2218     0100  00FA               	movwf	??_main+1
  2219     0101  3004               	movlw	4
  2220     0102  00F9               	movwf	??_main
  2221     0103  30BA               	movlw	186
  2222     0104                     u2127:
  2223     0104  0B89               	decfsz	9,f
  2224     0105  2904               	goto	u2127
  2225     0106  0BF9               	decfsz	??_main,f
  2226     0107  2904               	goto	u2127
  2227     0108  0BFA               	decfsz	??_main+1,f
  2228     0109  2904               	goto	u2127
  2229     010A  3200               	nop2
  2230     010B                     l3082:
  2231     010B  0022               	movlb	2	; select bank2
  2232     010C  130C               	bcf	12,6	;volatile
  2233     010D                     l3084:
  2234     010D  138C               	bcf	12,7	;volatile
  2235     010E                     l3086:
  2236     010E  3004               	movlw	4
  2237     010F  00FA               	movwf	??_main+1
  2238     0110  300C               	movlw	12
  2239     0111  00F9               	movwf	??_main
  2240     0112  3034               	movlw	52
  2241     0113                     u2137:
  2242     0113  0B89               	decfsz	9,f
  2243     0114  2913               	goto	u2137
  2244     0115  0BF9               	decfsz	??_main,f
  2245     0116  2913               	goto	u2137
  2246     0117  0BFA               	decfsz	??_main+1,f
  2247     0118  2913               	goto	u2137
  2248     0119                     l3088:
  2249                           
  2250                           ;main.c: 367:     fLigado=0;
  2251     0119  0022               	movlb	2	; select bank2
  2252     011A  01ED               	clrf	_fLigado^(0+256)	;volatile
  2253     011B                     l3090:
  2254                           
  2255                           ;main.c: 368:     indice=0;
  2256     011B  01FD               	clrf	_indice	;volatile
  2257     011C                     l3092:
  2258                           
  2259                           ;main.c: 369:     tempoRTX=0;
  2260     011C  0023               	movlb	3	; select bank3
  2261     011D  01EA               	clrf	_tempoRTX^(0+384)
  2262     011E  01EB               	clrf	(_tempoRTX+1)^(0+384)
  2263     011F                     l3094:
  2264                           
  2265                           ;main.c: 370:     passagem=0;
  2266     011F  3000               	movlw	0
  2267     0120  0021               	movlb	1	; select bank1
  2268     0121  00D9               	movwf	(_passagem+3)^(0+128)
  2269     0122  3000               	movlw	0
  2270     0123  00D8               	movwf	(_passagem+2)^(0+128)
  2271     0124  3000               	movlw	0
  2272     0125  00D7               	movwf	(_passagem+1)^(0+128)
  2273     0126  3000               	movlw	0
  2274     0127  00D6               	movwf	_passagem^(0+128)
  2275     0128                     l3096:
  2276                           
  2277                           ;main.c: 371:     contaRTX=0;
  2278     0128  0023               	movlb	3	; select bank3
  2279     0129  01E8               	clrf	_contaRTX^(0+384)
  2280     012A  01E9               	clrf	(_contaRTX+1)^(0+384)
  2281     012B                     l3098:
  2282                           
  2283                           ;main.c: 372:     cicloLED=50000;
  2284     012B  3050               	movlw	80
  2285     012C  00EC               	movwf	_cicloLED^(0+384)
  2286     012D  30C3               	movlw	195
  2287     012E  00ED               	movwf	(_cicloLED^(0+384)+1)
  2288     012F                     l3100:
  2289                           
  2290                           ;main.c: 373:     __nop();
  2291     012F  0000               	nop
  2292     0130                     l3102:
  2293                           
  2294                           ;main.c: 376:     {;main.c: 377:         __nop();
  2295     0130  0000               	nop
  2296     0131                     l3104:
  2297                           
  2298                           ;main.c: 378:         if (PORTBbits.RB0==0)
  2299     0131  0020               	movlb	0	; select bank0
  2300     0132  180D               	btfsc	13,0	;volatile
  2301     0133  2935               	goto	u1781
  2302     0134  2936               	goto	u1780
  2303     0135                     u1781:
  2304     0135  2939               	goto	l3108
  2305     0136                     u1780:
  2306     0136                     l3106:
  2307                           
  2308                           ;main.c: 379:         {;main.c: 380:             TesteEnvio();
  2309     0136  3184  2447  3180   	fcall	_TesteEnvio
  2310     0139                     l3108:
  2311                           
  2312                           ;main.c: 384:         _delay((unsigned long)((1)*(16000000/4000.0)));
  2313     0139  3006               	movlw	6
  2314     013A  00F9               	movwf	??_main
  2315     013B  3030               	movlw	48
  2316     013C                     u2147:
  2317     013C  0B89               	decfsz	9,f
  2318     013D  293C               	goto	u2147
  2319     013E  0BF9               	decfsz	??_main,f
  2320     013F  293C               	goto	u2147
  2321     0140  3200               	nop2
  2322     0141                     l3110:
  2323                           
  2324                           ;main.c: 387:         if (fRTX==0) cicloLED++;
  2325     0141  0022               	movlb	2	; select bank2
  2326     0142  086C               	movf	_fRTX^(0+256),w	;volatile
  2327     0143  1D03               	btfss	3,2
  2328     0144  2946               	goto	u1791
  2329     0145  2947               	goto	u1790
  2330     0146                     u1791:
  2331     0146  294C               	goto	l3114
  2332     0147                     u1790:
  2333     0147                     l3112:
  2334     0147  3001               	movlw	1
  2335     0148  0023               	movlb	3	; select bank3
  2336     0149  07EC               	addwf	_cicloLED^(0+384),f
  2337     014A  3000               	movlw	0
  2338     014B  3DED               	addwfc	(_cicloLED+1)^(0+384),f
  2339     014C                     l3114:
  2340                           
  2341                           ;main.c: 388:         if (cicloLED==200)
  2342     014C  30C8               	movlw	200
  2343     014D  0023               	movlb	3	; select bank3
  2344     014E  066C               	xorwf	_cicloLED^(0+384),w
  2345     014F  046D               	iorwf	(_cicloLED+1)^(0+384),w
  2346     0150  1D03               	btfss	3,2
  2347     0151  2953               	goto	u1801
  2348     0152  2954               	goto	u1800
  2349     0153                     u1801:
  2350     0153  2957               	goto	l3116
  2351     0154                     u1800:
  2352     0154                     l651:	
  2353                           ;main.c: 389:         {;main.c: 390:             do { LATAbits.LATA6 = 0; } while(0);
  2354                           
  2355     0154  0022               	movlb	2	; select bank2
  2356     0155  130C               	bcf	12,6	;volatile
  2357     0156  2965               	goto	l3120
  2358     0157                     l3116:
  2359                           
  2360                           ;main.c: 393:         {;main.c: 394:             if (cicloLED>=5000)
  2361     0157  3013               	movlw	19
  2362     0158  026D               	subwf	(_cicloLED+1)^(0+384),w
  2363     0159  3088               	movlw	136
  2364     015A  1903               	skipnz
  2365     015B  026C               	subwf	_cicloLED^(0+384),w
  2366     015C  1C03               	skipc
  2367     015D  295F               	goto	u1811
  2368     015E  2960               	goto	u1810
  2369     015F                     u1811:
  2370     015F  2965               	goto	l3120
  2371     0160                     u1810:
  2372     0160                     l655:	
  2373                           ;main.c: 395:             {;main.c: 396:                 do { LATAbits.LATA6 = 1; } whil
      +                          e(0);
  2374                           
  2375     0160  0022               	movlb	2	; select bank2
  2376     0161  170C               	bsf	12,6	;volatile
  2377     0162                     l3118:
  2378                           
  2379                           ;main.c: 397:                 cicloLED=0;
  2380     0162  0023               	movlb	3	; select bank3
  2381     0163  01EC               	clrf	_cicloLED^(0+384)
  2382     0164  01ED               	clrf	(_cicloLED+1)^(0+384)
  2383     0165                     l3120:
  2384                           
  2385                           ;main.c: 402:         if (fLigado)
  2386     0165  0022               	movlb	2	; select bank2
  2387     0166  086D               	movf	_fLigado^(0+256),w	;volatile
  2388     0167  1903               	btfsc	3,2
  2389     0168  296A               	goto	u1821
  2390     0169  296B               	goto	u1820
  2391     016A                     u1821:
  2392     016A  298C               	goto	l662
  2393     016B                     u1820:
  2394     016B                     l658:	
  2395                           ;main.c: 403:         {;main.c: 405:             do { LATAbits.LATA7 = 1; } while(0);
  2396                           
  2397     016B  178C               	bsf	12,7	;volatile
  2398     016C                     l3122:
  2399                           
  2400                           ;main.c: 408:                 passagem++;
  2401     016C  3001               	movlw	1
  2402     016D  0021               	movlb	1	; select bank1
  2403     016E  07D6               	addwf	_passagem^(0+128),f
  2404     016F  3000               	movlw	0
  2405     0170  3DD7               	addwfc	(_passagem+1)^(0+128),f
  2406     0171  3DD8               	addwfc	(_passagem+2)^(0+128),f
  2407     0172  3DD9               	addwfc	(_passagem+3)^(0+128),f
  2408                           
  2409                           ;main.c: 409:             if (passagem>1200000)
  2410     0173  0859               	movf	(_passagem+3)^(0+128),w
  2411     0174  1D03               	btfss	3,2
  2412     0175  2980               	goto	u1830
  2413     0176  3081               	movlw	129
  2414     0177  0256               	subwf	_passagem^(0+128),w
  2415     0178  304F               	movlw	79
  2416     0179  3B57               	subwfb	(_passagem+1)^(0+128),w
  2417     017A  3012               	movlw	18
  2418     017B  3B58               	subwfb	(_passagem+2)^(0+128),w
  2419     017C  1C03               	btfss	3,0
  2420     017D  297F               	goto	u1831
  2421     017E  2980               	goto	u1830
  2422     017F                     u1831:
  2423     017F  298D               	goto	l3128
  2424     0180                     u1830:
  2425     0180                     l3124:
  2426                           
  2427                           ;main.c: 410:             {;main.c: 411:                 passagem=1200000;
  2428     0180  3000               	movlw	0
  2429     0181  0021               	movlb	1	; select bank1
  2430     0182  00D9               	movwf	(_passagem+3)^(0+128)
  2431     0183  3012               	movlw	18
  2432     0184  00D8               	movwf	(_passagem+2)^(0+128)
  2433     0185  304F               	movlw	79
  2434     0186  00D7               	movwf	(_passagem+1)^(0+128)
  2435     0187  3080               	movlw	128
  2436     0188  00D6               	movwf	_passagem^(0+128)
  2437     0189                     l3126:
  2438                           
  2439                           ;main.c: 412:                 __nop();
  2440     0189  0000               	nop
  2441     018A  0001               	reset	;# 
  2442     018B  298D               	goto	l3128
  2443     018C                     l662:	
  2444                           ;main.c: 417:             do { LATAbits.LATA7 = 0; } while(0);
  2445                           
  2446     018C  138C               	bcf	12,7	;volatile
  2447     018D                     l3128:
  2448                           
  2449                           ;main.c: 420:         if (fRTX==1)
  2450     018D  0022               	movlb	2	; select bank2
  2451     018E  036C               	decf	_fRTX^(0+256),w	;volatile
  2452     018F  1D03               	btfss	3,2
  2453     0190  2992               	goto	u1841
  2454     0191  2993               	goto	u1840
  2455     0192                     u1841:
  2456     0192  29D9               	goto	l3162
  2457     0193                     u1840:
  2458     0193                     l3130:
  2459                           
  2460                           ;main.c: 421:         {;main.c: 422:             if (tempoRTX < 65000)
  2461     0193  30FD               	movlw	253
  2462     0194  0023               	movlb	3	; select bank3
  2463     0195  026B               	subwf	(_tempoRTX+1)^(0+384),w
  2464     0196  30E8               	movlw	232
  2465     0197  1903               	skipnz
  2466     0198  026A               	subwf	_tempoRTX^(0+384),w
  2467     0199  1803               	skipnc
  2468     019A  299C               	goto	u1851
  2469     019B  299D               	goto	u1850
  2470     019C                     u1851:
  2471     019C  29A1               	goto	l665
  2472     019D                     u1850:
  2473     019D                     l3132:
  2474                           
  2475                           ;main.c: 423:                 tempoRTX++;
  2476     019D  3001               	movlw	1
  2477     019E  07EA               	addwf	_tempoRTX^(0+384),f
  2478     019F  3000               	movlw	0
  2479     01A0  3DEB               	addwfc	(_tempoRTX+1)^(0+384),f
  2480     01A1                     l665:
  2481                           
  2482                           ;main.c: 424:             if (tempoRTX >= TempoDeReplicacao)
  2483     01A1  0022               	movlb	2	; select bank2
  2484     01A2  0863               	movf	(_TempoDeReplicacao+1)^(0+256),w
  2485     01A3  0023               	movlb	3	; select bank3
  2486     01A4  026B               	subwf	(_tempoRTX+1)^(0+384),w
  2487     01A5  1D03               	skipz
  2488     01A6  29AB               	goto	u1865
  2489     01A7  0022               	movlb	2	; select bank2
  2490     01A8  0862               	movf	_TempoDeReplicacao^(0+256),w
  2491     01A9  0023               	movlb	3	; select bank3
  2492     01AA  026A               	subwf	_tempoRTX^(0+384),w
  2493     01AB                     u1865:
  2494     01AB  1C03               	skipc
  2495     01AC  29AE               	goto	u1861
  2496     01AD  29AF               	goto	u1860
  2497     01AE                     u1861:
  2498     01AE  29D9               	goto	l3162
  2499     01AF                     u1860:
  2500     01AF                     l3134:
  2501                           
  2502                           ;main.c: 425:             {;main.c: 426:                 fRTX=0;
  2503     01AF  0022               	movlb	2	; select bank2
  2504     01B0  01EC               	clrf	_fRTX^(0+256)	;volatile
  2505     01B1                     l3136:
  2506     01B1  130C               	bcf	12,6	;volatile
  2507     01B2                     l3138:
  2508                           
  2509                           ;main.c: 428:                 TX_Lora();
  2510     01B2  3186  2648  3180   	fcall	_TX_Lora
  2511     01B5                     l3140:
  2512                           
  2513                           ;main.c: 429:                 __nop();
  2514     01B5  0000               	nop
  2515     01B6                     l3142:
  2516                           
  2517                           ;main.c: 431:                 SM_CFOFF();
  2518     01B6  318E  26D3  3180   	fcall	_SM_CFOFF
  2519     01B9                     l3144:
  2520                           
  2521                           ;main.c: 432:                 __nop();
  2522     01B9  0000               	nop
  2523     01BA                     l3146:
  2524                           
  2525                           ;main.c: 433:                 SM_CFOFF();
  2526     01BA  318E  26D3  3180   	fcall	_SM_CFOFF
  2527     01BD                     l3148:
  2528                           
  2529                           ;main.c: 434:                 SM_CONFIGRADIO(22);
  2530     01BD  3016               	movlw	22
  2531     01BE  318F  2700  3180   	fcall	_SM_CONFIGRADIO
  2532     01C1                     l3150:
  2533                           
  2534                           ;main.c: 435:                 SM_MODORX(22);
  2535     01C1  3016               	movlw	22
  2536     01C2  318F  272D  3180   	fcall	_SM_MODORX
  2537     01C5                     l3152:
  2538                           
  2539                           ;main.c: 436:                 SM_CFOFF();
  2540     01C5  318E  26D3  3180   	fcall	_SM_CFOFF
  2541     01C8                     l3154:
  2542                           
  2543                           ;main.c: 437:                 SM_CONFIGRADIO(22);
  2544     01C8  3016               	movlw	22
  2545     01C9  318F  2700  3180   	fcall	_SM_CONFIGRADIO
  2546     01CC                     l3156:
  2547                           
  2548                           ;main.c: 438:                 SM_MODORX(22);
  2549     01CC  3016               	movlw	22
  2550     01CD  318F  272D  3180   	fcall	_SM_MODORX
  2551     01D0                     l3158:
  2552                           
  2553                           ;main.c: 439:                 __nop();
  2554     01D0  0000               	nop
  2555                           
  2556                           ;main.c: 440:                 indice=0;
  2557     01D1  01FD               	clrf	_indice	;volatile
  2558                           
  2559                           ;main.c: 441:                 tempoRTX=0;
  2560     01D2  0023               	movlb	3	; select bank3
  2561     01D3  01EA               	clrf	_tempoRTX^(0+384)
  2562     01D4  01EB               	clrf	(_tempoRTX+1)^(0+384)
  2563     01D5                     l3160:
  2564                           
  2565                           ;main.c: 442:                 cicloLED=13000;
  2566     01D5  30C8               	movlw	200
  2567     01D6  00EC               	movwf	_cicloLED^(0+384)
  2568     01D7  3032               	movlw	50
  2569     01D8  00ED               	movwf	(_cicloLED^(0+384)+1)
  2570     01D9                     l3162:
  2571                           
  2572                           ;main.c: 447:         if (fRetLora==99)
  2573     01D9  3063               	movlw	99
  2574     01DA  067B               	xorwf	_fRetLora,w	;volatile
  2575     01DB  1D03               	btfss	3,2
  2576     01DC  29DE               	goto	u1871
  2577     01DD  29DF               	goto	u1870
  2578     01DE                     u1871:
  2579     01DE  29E1               	goto	l3168
  2580     01DF                     u1870:
  2581     01DF                     l3164:
  2582                           
  2583                           ;main.c: 448:         {;main.c: 449:             __nop();
  2584     01DF  0000               	nop
  2585     01E0                     l3166:
  2586                           
  2587                           ;main.c: 450:             fRetLora=0;
  2588     01E0  01FB               	clrf	_fRetLora	;volatile
  2589     01E1                     l3168:
  2590                           
  2591                           ;main.c: 452:         if (fRetLora==1)
  2592     01E1  037B               	decf	_fRetLora,w	;volatile
  2593     01E2  1D03               	btfss	3,2
  2594     01E3  29E5               	goto	u1881
  2595     01E4  29E6               	goto	u1880
  2596     01E5                     u1881:
  2597     01E5  2930               	goto	l3102
  2598     01E6                     u1880:
  2599     01E6                     l3170:
  2600                           
  2601                           ;main.c: 453:         {;main.c: 454:             fRetLora=0;
  2602     01E6  01FB               	clrf	_fRetLora	;volatile
  2603                           
  2604                           ;main.c: 455:             fComandoSirene=0;
  2605     01E7  0022               	movlb	2	; select bank2
  2606     01E8  01EA               	clrf	_fComandoSirene^(0+256)	;volatile
  2607                           
  2608                           ;main.c: 456:             indice=0;
  2609     01E9  01FD               	clrf	_indice	;volatile
  2610     01EA                     l3172:
  2611                           
  2612                           ;main.c: 458:             ENDERECO = 9133;
  2613     01EA  30AD               	movlw	173
  2614     01EB  00E4               	movwf	_ENDERECO^(0+256)
  2615     01EC  3023               	movlw	35
  2616     01ED  00E5               	movwf	(_ENDERECO^(0+256)+1)
  2617     01EE                     l3174:
  2618                           
  2619                           ;main.c: 460:             __nop();
  2620     01EE  0000               	nop
  2621     01EF                     l3176:
  2622                           
  2623                           ;main.c: 462:             endereco_M = (uint8_t)(ENDERECO/1000);
  2624     01EF  30E8               	movlw	232
  2625     01F0  00F0               	movwf	___lwdiv@divisor
  2626     01F1  3003               	movlw	3
  2627     01F2  00F1               	movwf	___lwdiv@divisor+1
  2628     01F3  0022               	movlb	2	; select bank2
  2629     01F4  0865               	movf	(_ENDERECO+1)^(0+256),w
  2630     01F5  00F3               	movwf	___lwdiv@dividend+1
  2631     01F6  0864               	movf	_ENDERECO^(0+256),w
  2632     01F7  00F2               	movwf	___lwdiv@dividend
  2633     01F8  3187  27C6  3180   	fcall	___lwdiv
  2634     01FB  0870               	movf	?___lwdiv,w
  2635     01FC  0024               	movlb	4	; select bank4
  2636     01FD  00A3               	movwf	_endereco_M^(0+512)	;volatile
  2637     01FE                     l3178:
  2638                           
  2639                           ;main.c: 463:             temp16 = ENDERECO%1000;
  2640     01FE  30E8               	movlw	232
  2641     01FF  00F0               	movwf	___lwmod@divisor
  2642     0200  3003               	movlw	3
  2643     0201  00F1               	movwf	___lwmod@divisor+1
  2644     0202  0022               	movlb	2	; select bank2
  2645     0203  0865               	movf	(_ENDERECO+1)^(0+256),w
  2646     0204  00F3               	movwf	___lwmod@dividend+1
  2647     0205  0864               	movf	_ENDERECO^(0+256),w
  2648     0206  00F2               	movwf	___lwmod@dividend
  2649     0207  318F  275D  3180   	fcall	___lwmod
  2650     020A  0871               	movf	?___lwmod+1,w
  2651     020B  0023               	movlb	3	; select bank3
  2652     020C  00E7               	movwf	(_temp16+1)^(0+384)
  2653     020D  0870               	movf	?___lwmod,w
  2654     020E  00E6               	movwf	_temp16^(0+384)
  2655     020F                     l3180:
  2656                           
  2657                           ;main.c: 464:             endereco_C = (uint8_t)(temp16/100);
  2658     020F  3064               	movlw	100
  2659     0210  00F0               	movwf	___lwdiv@divisor
  2660     0211  3000               	movlw	0
  2661     0212  00F1               	movwf	___lwdiv@divisor+1
  2662     0213  0867               	movf	(_temp16+1)^(0+384),w
  2663     0214  00F3               	movwf	___lwdiv@dividend+1
  2664     0215  0866               	movf	_temp16^(0+384),w
  2665     0216  00F2               	movwf	___lwdiv@dividend
  2666     0217  3187  27C6  3180   	fcall	___lwdiv
  2667     021A  0870               	movf	?___lwdiv,w
  2668     021B  0024               	movlb	4	; select bank4
  2669     021C  00A2               	movwf	_endereco_C^(0+512)	;volatile
  2670     021D                     l3182:
  2671                           
  2672                           ;main.c: 465:             temp16 = temp16%100;
  2673     021D  3064               	movlw	100
  2674     021E  00F0               	movwf	___lwmod@divisor
  2675     021F  3000               	movlw	0
  2676     0220  00F1               	movwf	___lwmod@divisor+1
  2677     0221  0023               	movlb	3	; select bank3
  2678     0222  0867               	movf	(_temp16+1)^(0+384),w
  2679     0223  00F3               	movwf	___lwmod@dividend+1
  2680     0224  0866               	movf	_temp16^(0+384),w
  2681     0225  00F2               	movwf	___lwmod@dividend
  2682     0226  318F  275D  3180   	fcall	___lwmod
  2683     0229  0871               	movf	?___lwmod+1,w
  2684     022A  0023               	movlb	3	; select bank3
  2685     022B  00E7               	movwf	(_temp16+1)^(0+384)
  2686     022C  0870               	movf	?___lwmod,w
  2687     022D  00E6               	movwf	_temp16^(0+384)
  2688     022E                     l3184:
  2689                           
  2690                           ;main.c: 466:             endereco_D = (uint8_t)(temp16/10);
  2691     022E  300A               	movlw	10
  2692     022F  00F0               	movwf	___lwdiv@divisor
  2693     0230  3000               	movlw	0
  2694     0231  00F1               	movwf	___lwdiv@divisor+1
  2695     0232  0867               	movf	(_temp16+1)^(0+384),w
  2696     0233  00F3               	movwf	___lwdiv@dividend+1
  2697     0234  0866               	movf	_temp16^(0+384),w
  2698     0235  00F2               	movwf	___lwdiv@dividend
  2699     0236  3187  27C6  3180   	fcall	___lwdiv
  2700     0239  0870               	movf	?___lwdiv,w
  2701     023A  0024               	movlb	4	; select bank4
  2702     023B  00A1               	movwf	_endereco_D^(0+512)	;volatile
  2703     023C                     l3186:
  2704                           
  2705                           ;main.c: 467:             endereco_U = (uint8_t)(temp16%10);
  2706     023C  300A               	movlw	10
  2707     023D  00F0               	movwf	___lwmod@divisor
  2708     023E  3000               	movlw	0
  2709     023F  00F1               	movwf	___lwmod@divisor+1
  2710     0240  0023               	movlb	3	; select bank3
  2711     0241  0867               	movf	(_temp16+1)^(0+384),w
  2712     0242  00F3               	movwf	___lwmod@dividend+1
  2713     0243  0866               	movf	_temp16^(0+384),w
  2714     0244  00F2               	movwf	___lwmod@dividend
  2715     0245  318F  275D  3180   	fcall	___lwmod
  2716     0248  0870               	movf	?___lwmod,w
  2717     0249  0024               	movlb	4	; select bank4
  2718     024A  00A0               	movwf	_endereco_U^(0+512)	;volatile
  2719     024B                     l3188:
  2720                           
  2721                           ;main.c: 469:             OFFSET = ENDERECO-9000;
  2722     024B  0022               	movlb	2	; select bank2
  2723     024C  0864               	movf	_ENDERECO^(0+256),w
  2724     024D  3ED8               	addlw	216
  2725     024E  00E6               	movwf	_OFFSET^(0+256)
  2726     024F  30DC               	movlw	220
  2727     0250  3D65               	addwfc	(_ENDERECO+1)^(0+256),w
  2728     0251  00E7               	movwf	(_OFFSET+1)^(0+256)
  2729     0252                     l3190:
  2730                           
  2731                           ;main.c: 470:             __nop();
  2732     0252  0000               	nop
  2733                           
  2734                           ;main.c: 471:             switch (endereco_U)
  2735     0253  2A78               	goto	l3206
  2736     0254                     l3192:
  2737                           
  2738                           ;main.c: 475:                     TempoDeReplicacao = 3;
  2739     0254  3003               	movlw	3
  2740     0255  0022               	movlb	2	; select bank2
  2741     0256  00E2               	movwf	_TempoDeReplicacao^(0+256)
  2742     0257  3000               	movlw	0
  2743     0258  00E3               	movwf	(_TempoDeReplicacao^(0+256)+1)
  2744                           
  2745                           ;main.c: 476:                     break;
  2746     0259  2A99               	goto	l3208
  2747     025A                     l3194:
  2748                           
  2749                           ;main.c: 479:                     TempoDeReplicacao = 5;
  2750     025A  3005               	movlw	5
  2751     025B  0022               	movlb	2	; select bank2
  2752     025C  00E2               	movwf	_TempoDeReplicacao^(0+256)
  2753     025D  3000               	movlw	0
  2754     025E  00E3               	movwf	(_TempoDeReplicacao^(0+256)+1)
  2755                           
  2756                           ;main.c: 480:                     break;
  2757     025F  2A99               	goto	l3208
  2758     0260                     l3196:
  2759                           
  2760                           ;main.c: 483:                     TempoDeReplicacao = 7;
  2761     0260  3007               	movlw	7
  2762     0261  0022               	movlb	2	; select bank2
  2763     0262  00E2               	movwf	_TempoDeReplicacao^(0+256)
  2764     0263  3000               	movlw	0
  2765     0264  00E3               	movwf	(_TempoDeReplicacao^(0+256)+1)
  2766                           
  2767                           ;main.c: 484:                     break;
  2768     0265  2A99               	goto	l3208
  2769     0266                     l3198:
  2770                           
  2771                           ;main.c: 487:                     TempoDeReplicacao = 9;
  2772     0266  3009               	movlw	9
  2773     0267  0022               	movlb	2	; select bank2
  2774     0268  00E2               	movwf	_TempoDeReplicacao^(0+256)
  2775     0269  3000               	movlw	0
  2776     026A  00E3               	movwf	(_TempoDeReplicacao^(0+256)+1)
  2777                           
  2778                           ;main.c: 488:                     break;
  2779     026B  2A99               	goto	l3208
  2780     026C                     l3200:
  2781                           
  2782                           ;main.c: 491:                     TempoDeReplicacao = 11;
  2783     026C  300B               	movlw	11
  2784     026D  0022               	movlb	2	; select bank2
  2785     026E  00E2               	movwf	_TempoDeReplicacao^(0+256)
  2786     026F  3000               	movlw	0
  2787     0270  00E3               	movwf	(_TempoDeReplicacao^(0+256)+1)
  2788                           
  2789                           ;main.c: 492:                     break;
  2790     0271  2A99               	goto	l3208
  2791     0272                     l3202:
  2792                           
  2793                           ;main.c: 494:                     TempoDeReplicacao = 4;
  2794     0272  3004               	movlw	4
  2795     0273  0022               	movlb	2	; select bank2
  2796     0274  00E2               	movwf	_TempoDeReplicacao^(0+256)
  2797     0275  3000               	movlw	0
  2798     0276  00E3               	movwf	(_TempoDeReplicacao^(0+256)+1)
  2799                           
  2800                           ;main.c: 495:                     break;
  2801     0277  2A99               	goto	l3208
  2802     0278                     l3206:
  2803     0278  0024               	movlb	4	; select bank4
  2804     0279  0820               	movf	_endereco_U^(0+512),w	;volatile
  2805                           
  2806                           ; Switch size 1, requested type "simple"
  2807                           ; Number of cases is 10, Range of values is 0 to 9
  2808                           ; switch strategies available:
  2809                           ; Name         Instructions Cycles
  2810                           ; direct_byte           26     6 (fixed)
  2811                           ; simple_byte           31    16 (average)
  2812                           ; jumptable            260     6 (fixed)
  2813                           ;	Chosen strategy is simple_byte
  2814     027A  3A00               	xorlw	0	; case 0
  2815     027B  1903               	skipnz
  2816     027C  2A6C               	goto	l3200
  2817     027D  3A01               	xorlw	1	; case 1
  2818     027E  1903               	skipnz
  2819     027F  2A54               	goto	l3192
  2820     0280  3A03               	xorlw	3	; case 2
  2821     0281  1903               	skipnz
  2822     0282  2A5A               	goto	l3194
  2823     0283  3A01               	xorlw	1	; case 3
  2824     0284  1903               	skipnz
  2825     0285  2A60               	goto	l3196
  2826     0286  3A07               	xorlw	7	; case 4
  2827     0287  1903               	skipnz
  2828     0288  2A66               	goto	l3198
  2829     0289  3A01               	xorlw	1	; case 5
  2830     028A  1903               	skipnz
  2831     028B  2A6C               	goto	l3200
  2832     028C  3A03               	xorlw	3	; case 6
  2833     028D  1903               	skipnz
  2834     028E  2A54               	goto	l3192
  2835     028F  3A01               	xorlw	1	; case 7
  2836     0290  1903               	skipnz
  2837     0291  2A5A               	goto	l3194
  2838     0292  3A0F               	xorlw	15	; case 8
  2839     0293  1903               	skipnz
  2840     0294  2A60               	goto	l3196
  2841     0295  3A01               	xorlw	1	; case 9
  2842     0296  1903               	skipnz
  2843     0297  2A66               	goto	l3198
  2844     0298  2A72               	goto	l3202
  2845     0299                     l3208:
  2846                           
  2847                           ;main.c: 497:             TempoDeReplicacao *= 1000;
  2848     0299  30E8               	movlw	232
  2849     029A  00F0               	movwf	___wmul@multiplier
  2850     029B  3003               	movlw	3
  2851     029C  00F1               	movwf	___wmul@multiplier+1
  2852     029D  0863               	movf	(_TempoDeReplicacao+1)^(0+256),w
  2853     029E  00F3               	movwf	___wmul@multiplicand+1
  2854     029F  0862               	movf	_TempoDeReplicacao^(0+256),w
  2855     02A0  00F2               	movwf	___wmul@multiplicand
  2856     02A1  318E  261A  3180   	fcall	___wmul
  2857     02A4  0871               	movf	?___wmul+1,w
  2858     02A5  0022               	movlb	2	; select bank2
  2859     02A6  00E3               	movwf	(_TempoDeReplicacao+1)^(0+256)
  2860     02A7  0870               	movf	?___wmul,w
  2861     02A8  00E2               	movwf	_TempoDeReplicacao^(0+256)
  2862     02A9                     l3210:
  2863                           
  2864                           ;main.c: 499:             ENDERECO -= OFFSET;
  2865     02A9  0866               	movf	_OFFSET^(0+256),w
  2866     02AA  02E4               	subwf	_ENDERECO^(0+256),f
  2867     02AB  0867               	movf	(_OFFSET+1)^(0+256),w
  2868     02AC  3BE5               	subwfb	(_ENDERECO+1)^(0+256),f
  2869     02AD                     l3212:
  2870                           
  2871                           ;main.c: 500:             endereco.end16 = ENDERECO;
  2872     02AD  0865               	movf	(_ENDERECO+1)^(0+256),w
  2873     02AE  0023               	movlb	3	; select bank3
  2874     02AF  00E3               	movwf	(_endereco+1)^(0+384)
  2875     02B0  0022               	movlb	2	; select bank2
  2876     02B1  0864               	movf	_ENDERECO^(0+256),w
  2877     02B2  0023               	movlb	3	; select bank3
  2878     02B3  00E2               	movwf	_endereco^(0+384)
  2879     02B4                     l3214:
  2880                           
  2881                           ;main.c: 501:             offset.end16 = OFFSET;
  2882     02B4  0022               	movlb	2	; select bank2
  2883     02B5  0867               	movf	(_OFFSET+1)^(0+256),w
  2884     02B6  0023               	movlb	3	; select bank3
  2885     02B7  00E1               	movwf	(_offset+1)^(0+384)
  2886     02B8  0022               	movlb	2	; select bank2
  2887     02B9  0866               	movf	_OFFSET^(0+256),w
  2888     02BA  0023               	movlb	3	; select bank3
  2889     02BB  00E0               	movwf	_offset^(0+384)
  2890     02BC                     l3216:
  2891                           
  2892                           ;main.c: 502:             __nop();
  2893     02BC  0000               	nop
  2894     02BD                     l3218:
  2895                           
  2896                           ;main.c: 504:             M_EnderecoRecebido = DadosLora[4]-48;
  2897     02BD  0022               	movlb	2	; select bank2
  2898     02BE  0824               	movf	(_DadosLora^(0+256)+4),w	;volatile
  2899     02BF  3ED0               	addlw	208
  2900     02C0  0024               	movlb	4	; select bank4
  2901     02C1  00A5               	movwf	_M_EnderecoRecebido^(0+512)
  2902     02C2                     l3220:
  2903                           
  2904                           ;main.c: 505:             C_EnderecoRecebido = DadosLora[5]-48;
  2905     02C2  0022               	movlb	2	; select bank2
  2906     02C3  0825               	movf	(_DadosLora^(0+256)+5),w	;volatile
  2907     02C4  3ED0               	addlw	208
  2908     02C5  0024               	movlb	4	; select bank4
  2909     02C6  00B8               	movwf	_C_EnderecoRecebido^(0+512)
  2910     02C7                     l3222:
  2911                           
  2912                           ;main.c: 506:             D_EnderecoRecebido = DadosLora[6]-48;
  2913     02C7  0022               	movlb	2	; select bank2
  2914     02C8  0826               	movf	(_DadosLora^(0+256)+6),w	;volatile
  2915     02C9  3ED0               	addlw	208
  2916     02CA  0024               	movlb	4	; select bank4
  2917     02CB  00B7               	movwf	_D_EnderecoRecebido^(0+512)
  2918     02CC                     l3224:
  2919                           
  2920                           ;main.c: 507:             U_EnderecoRecebido = DadosLora[7]-48;
  2921     02CC  0022               	movlb	2	; select bank2
  2922     02CD  0827               	movf	(_DadosLora^(0+256)+7),w	;volatile
  2923     02CE  3ED0               	addlw	208
  2924     02CF  0024               	movlb	4	; select bank4
  2925     02D0  00A4               	movwf	_U_EnderecoRecebido^(0+512)
  2926     02D1                     l3226:
  2927                           
  2928                           ;main.c: 508:             __nop();
  2929     02D1  0000               	nop
  2930     02D2                     l3228:
  2931                           
  2932                           ;main.c: 509:             enderecoRecebido = M_EnderecoRecebido*1000;
  2933     02D2  0024               	movlb	4	; select bank4
  2934     02D3  0825               	movf	_M_EnderecoRecebido^(0+512),w
  2935     02D4  00F9               	movwf	??_main
  2936     02D5  01FA               	clrf	??_main+1
  2937     02D6  0879               	movf	??_main,w
  2938     02D7  00F0               	movwf	___wmul@multiplier
  2939     02D8  087A               	movf	??_main+1,w
  2940     02D9  00F1               	movwf	___wmul@multiplier+1
  2941     02DA  30E8               	movlw	232
  2942     02DB  00F2               	movwf	___wmul@multiplicand
  2943     02DC  3003               	movlw	3
  2944     02DD  00F3               	movwf	___wmul@multiplicand+1
  2945     02DE  318E  261A  3180   	fcall	___wmul
  2946     02E1  0871               	movf	?___wmul+1,w
  2947     02E2  0023               	movlb	3	; select bank3
  2948     02E3  00E5               	movwf	(_enderecoRecebido+1)^(0+384)
  2949     02E4  0870               	movf	?___wmul,w
  2950     02E5  00E4               	movwf	_enderecoRecebido^(0+384)
  2951     02E6                     l3230:
  2952                           
  2953                           ;main.c: 510:             enderecoRecebido += C_EnderecoRecebido*100;
  2954     02E6  0024               	movlb	4	; select bank4
  2955     02E7  0838               	movf	_C_EnderecoRecebido^(0+512),w
  2956     02E8  00F9               	movwf	??_main
  2957     02E9  01FA               	clrf	??_main+1
  2958     02EA  0879               	movf	??_main,w
  2959     02EB  00F0               	movwf	___wmul@multiplier
  2960     02EC  087A               	movf	??_main+1,w
  2961     02ED  00F1               	movwf	___wmul@multiplier+1
  2962     02EE  3064               	movlw	100
  2963     02EF  00F2               	movwf	___wmul@multiplicand
  2964     02F0  3000               	movlw	0
  2965     02F1  00F3               	movwf	___wmul@multiplicand+1
  2966     02F2  318E  261A  3180   	fcall	___wmul
  2967     02F5  0870               	movf	?___wmul,w
  2968     02F6  0023               	movlb	3	; select bank3
  2969     02F7  07E4               	addwf	_enderecoRecebido^(0+384),f
  2970     02F8  0871               	movf	?___wmul+1,w
  2971     02F9  3DE5               	addwfc	(_enderecoRecebido+1)^(0+384),f
  2972     02FA                     l3232:
  2973                           
  2974                           ;main.c: 511:             enderecoRecebido += D_EnderecoRecebido*10;
  2975     02FA  0024               	movlb	4	; select bank4
  2976     02FB  0837               	movf	_D_EnderecoRecebido^(0+512),w
  2977     02FC  00F9               	movwf	??_main
  2978     02FD  01FA               	clrf	??_main+1
  2979     02FE  0879               	movf	??_main,w
  2980     02FF  00F0               	movwf	___wmul@multiplier
  2981     0300  087A               	movf	??_main+1,w
  2982     0301  00F1               	movwf	___wmul@multiplier+1
  2983     0302  300A               	movlw	10
  2984     0303  00F2               	movwf	___wmul@multiplicand
  2985     0304  3000               	movlw	0
  2986     0305  00F3               	movwf	___wmul@multiplicand+1
  2987     0306  318E  261A  3180   	fcall	___wmul
  2988     0309  0870               	movf	?___wmul,w
  2989     030A  0023               	movlb	3	; select bank3
  2990     030B  07E4               	addwf	_enderecoRecebido^(0+384),f
  2991     030C  0871               	movf	?___wmul+1,w
  2992     030D  3DE5               	addwfc	(_enderecoRecebido+1)^(0+384),f
  2993                           
  2994                           ;main.c: 512:             enderecoRecebido += U_EnderecoRecebido;
  2995     030E  0024               	movlb	4	; select bank4
  2996     030F  0824               	movf	_U_EnderecoRecebido^(0+512),w
  2997     0310  00F9               	movwf	??_main
  2998     0311  01FA               	clrf	??_main+1
  2999     0312  0879               	movf	??_main,w
  3000     0313  0023               	movlb	3	; select bank3
  3001     0314  07E4               	addwf	_enderecoRecebido^(0+384),f
  3002     0315  087A               	movf	??_main+1,w
  3003     0316  3DE5               	addwfc	(_enderecoRecebido+1)^(0+384),f
  3004     0317                     l3234:
  3005                           
  3006                           ;main.c: 513:             __nop();
  3007     0317  0000               	nop
  3008                           
  3009                           ;main.c: 515:             pacoteTRX[ 0] = DadosLora[ 2];
  3010     0318  0022               	movlb	2	; select bank2
  3011     0319  0822               	movf	(_DadosLora^(0+256)+2),w	;volatile
  3012     031A  0021               	movlb	1	; select bank1
  3013     031B  00C0               	movwf	_pacoteTRX^(0+128)	;volatile
  3014                           
  3015                           ;main.c: 516:             pacoteTRX[ 1] = DadosLora[ 3];
  3016     031C  0022               	movlb	2	; select bank2
  3017     031D  0823               	movf	(_DadosLora^(0+256)+3),w	;volatile
  3018     031E  0021               	movlb	1	; select bank1
  3019     031F  00C1               	movwf	(_pacoteTRX^(0+128)+1)	;volatile
  3020                           
  3021                           ;main.c: 517:             pacoteTRX[ 2] = DadosLora[ 4];
  3022     0320  0022               	movlb	2	; select bank2
  3023     0321  0824               	movf	(_DadosLora^(0+256)+4),w	;volatile
  3024     0322  0021               	movlb	1	; select bank1
  3025     0323  00C2               	movwf	(_pacoteTRX^(0+128)+2)	;volatile
  3026                           
  3027                           ;main.c: 518:             pacoteTRX[ 3] = DadosLora[ 5];
  3028     0324  0022               	movlb	2	; select bank2
  3029     0325  0825               	movf	(_DadosLora^(0+256)+5),w	;volatile
  3030     0326  0021               	movlb	1	; select bank1
  3031     0327  00C3               	movwf	(_pacoteTRX^(0+128)+3)	;volatile
  3032                           
  3033                           ;main.c: 519:             pacoteTRX[ 4] = DadosLora[ 6];
  3034     0328  0022               	movlb	2	; select bank2
  3035     0329  0826               	movf	(_DadosLora^(0+256)+6),w	;volatile
  3036     032A  0021               	movlb	1	; select bank1
  3037     032B  00C4               	movwf	(_pacoteTRX^(0+128)+4)	;volatile
  3038                           
  3039                           ;main.c: 520:             pacoteTRX[ 5] = DadosLora[ 7];
  3040     032C  0022               	movlb	2	; select bank2
  3041     032D  0827               	movf	(_DadosLora^(0+256)+7),w	;volatile
  3042     032E  0021               	movlb	1	; select bank1
  3043     032F  00C5               	movwf	(_pacoteTRX^(0+128)+5)	;volatile
  3044                           
  3045                           ;main.c: 521:             pacoteTRX[ 6] = DadosLora[ 8];
  3046     0330  0022               	movlb	2	; select bank2
  3047     0331  0828               	movf	(_DadosLora^(0+256)+8),w	;volatile
  3048     0332  0021               	movlb	1	; select bank1
  3049     0333  00C6               	movwf	(_pacoteTRX^(0+128)+6)	;volatile
  3050                           
  3051                           ;main.c: 522:             pacoteTRX[ 7] = DadosLora[ 9];
  3052     0334  0022               	movlb	2	; select bank2
  3053     0335  0829               	movf	(_DadosLora^(0+256)+9),w	;volatile
  3054     0336  0021               	movlb	1	; select bank1
  3055     0337  00C7               	movwf	(_pacoteTRX^(0+128)+7)	;volatile
  3056                           
  3057                           ;main.c: 523:             pacoteTRX[ 8] = DadosLora[10];
  3058     0338  0022               	movlb	2	; select bank2
  3059     0339  082A               	movf	(_DadosLora^(0+256)+10),w	;volatile
  3060     033A  0021               	movlb	1	; select bank1
  3061     033B  00C8               	movwf	(_pacoteTRX^(0+128)+8)	;volatile
  3062                           
  3063                           ;main.c: 524:             pacoteTRX[ 9] = DadosLora[11];
  3064     033C  0022               	movlb	2	; select bank2
  3065     033D  082B               	movf	(_DadosLora^(0+256)+11),w	;volatile
  3066     033E  0021               	movlb	1	; select bank1
  3067     033F  00C9               	movwf	(_pacoteTRX^(0+128)+9)	;volatile
  3068                           
  3069                           ;main.c: 525:             pacoteTRX[10] = DadosLora[12];
  3070     0340  0022               	movlb	2	; select bank2
  3071     0341  082C               	movf	(_DadosLora^(0+256)+12),w	;volatile
  3072     0342  0021               	movlb	1	; select bank1
  3073     0343  00CA               	movwf	(_pacoteTRX^(0+128)+10)	;volatile
  3074                           
  3075                           ;main.c: 526:             pacoteTRX[11] = DadosLora[13];
  3076     0344  0022               	movlb	2	; select bank2
  3077     0345  082D               	movf	(_DadosLora^(0+256)+13),w	;volatile
  3078     0346  0021               	movlb	1	; select bank1
  3079     0347  00CB               	movwf	(_pacoteTRX^(0+128)+11)	;volatile
  3080                           
  3081                           ;main.c: 527:             pacoteTRX[12] = DadosLora[14];
  3082     0348  0022               	movlb	2	; select bank2
  3083     0349  082E               	movf	(_DadosLora^(0+256)+14),w	;volatile
  3084     034A  0021               	movlb	1	; select bank1
  3085     034B  00CC               	movwf	(_pacoteTRX^(0+128)+12)	;volatile
  3086     034C                     l3236:
  3087                           
  3088                           ;main.c: 528:             pacoteTRX[13] = 'F';
  3089     034C  3046               	movlw	70
  3090     034D  00CD               	movwf	(_pacoteTRX^(0+128)+13)	;volatile
  3091     034E                     l3238:
  3092                           
  3093                           ;main.c: 530:             if (DadosLora[15]=='F')
  3094     034E  3046               	movlw	70
  3095     034F  0022               	movlb	2	; select bank2
  3096     0350  062F               	xorwf	(_DadosLora^(0+256)+15),w	;volatile
  3097     0351  1D03               	btfss	3,2
  3098     0352  2B54               	goto	u1891
  3099     0353  2B55               	goto	u1890
  3100     0354                     u1891:
  3101     0354  2B80               	goto	l3248
  3102     0355                     u1890:
  3103     0355                     l685:	
  3104                           ;main.c: 531:             {;main.c: 533:                 do { LATAbits.LATA6 = 1; } whil
      +                          e(0); _delay((unsigned long)((50)*(16000000/4000.0))); do { LATAbits.LATA6 = 0; } while(
      +                          0); _delay((unsigned long)((50)*(16000000/4000.0)));
  3105                           
  3106     0355  170C               	bsf	12,6	;volatile
  3107     0356                     l3240:
  3108     0356  3002               	movlw	2
  3109     0357  00FA               	movwf	??_main+1
  3110     0358  3004               	movlw	4
  3111     0359  00F9               	movwf	??_main
  3112     035A  30BA               	movlw	186
  3113     035B                     u2157:
  3114     035B  0B89               	decfsz	9,f
  3115     035C  2B5B               	goto	u2157
  3116     035D  0BF9               	decfsz	??_main,f
  3117     035E  2B5B               	goto	u2157
  3118     035F  0BFA               	decfsz	??_main+1,f
  3119     0360  2B5B               	goto	u2157
  3120     0361  3200               	nop2
  3121     0362                     l3242:
  3122     0362  0022               	movlb	2	; select bank2
  3123     0363  130C               	bcf	12,6	;volatile
  3124     0364                     l688:
  3125     0364  3002               	movlw	2
  3126     0365  00FA               	movwf	??_main+1
  3127     0366  3004               	movlw	4
  3128     0367  00F9               	movwf	??_main
  3129     0368  30BA               	movlw	186
  3130     0369                     u2167:
  3131     0369  0B89               	decfsz	9,f
  3132     036A  2B69               	goto	u2167
  3133     036B  0BF9               	decfsz	??_main,f
  3134     036C  2B69               	goto	u2167
  3135     036D  0BFA               	decfsz	??_main+1,f
  3136     036E  2B69               	goto	u2167
  3137     036F  3200               	nop2
  3138     0370                     l3244:
  3139     0370  0022               	movlb	2	; select bank2
  3140     0371  170C               	bsf	12,6	;volatile
  3141     0372                     l690:
  3142     0372  3002               	movlw	2
  3143     0373  00FA               	movwf	??_main+1
  3144     0374  3004               	movlw	4
  3145     0375  00F9               	movwf	??_main
  3146     0376  30BA               	movlw	186
  3147     0377                     u2177:
  3148     0377  0B89               	decfsz	9,f
  3149     0378  2B77               	goto	u2177
  3150     0379  0BF9               	decfsz	??_main,f
  3151     037A  2B77               	goto	u2177
  3152     037B  0BFA               	decfsz	??_main+1,f
  3153     037C  2B77               	goto	u2177
  3154     037D  3200               	nop2
  3155     037E                     l3246:
  3156     037E  0022               	movlb	2	; select bank2
  3157     037F  130C               	bcf	12,6	;volatile
  3158     0380                     l3248:
  3159                           
  3160                           ;main.c: 537:             __nop();
  3161     0380  0000               	nop
  3162                           
  3163                           ;main.c: 540:             if ( enderecoRecebido == endereco.end16 )
  3164     0381  0023               	movlb	3	; select bank3
  3165     0382  0865               	movf	(_enderecoRecebido+1)^(0+384),w
  3166     0383  0663               	xorwf	(_endereco+1)^(0+384),w
  3167     0384  1D03               	skipz
  3168     0385  2B88               	goto	u1905
  3169     0386  0864               	movf	_enderecoRecebido^(0+384),w
  3170     0387  0662               	xorwf	_endereco^(0+384),w
  3171     0388                     u1905:
  3172     0388  1D03               	skipz
  3173     0389  2B8B               	goto	u1901
  3174     038A  2B8C               	goto	u1900
  3175     038B                     u1901:
  3176     038B  2B8F               	goto	l3252
  3177     038C                     u1900:
  3178     038C                     l3250:
  3179                           
  3180                           ;main.c: 541:                 fComandoSirene=1;
  3181     038C  3001               	movlw	1
  3182     038D  0022               	movlb	2	; select bank2
  3183     038E  00EA               	movwf	_fComandoSirene^(0+256)	;volatile
  3184     038F                     l3252:
  3185                           
  3186                           ;main.c: 544:             endereco.end16 += offset.end16;
  3187     038F  0023               	movlb	3	; select bank3
  3188     0390  0860               	movf	_offset^(0+384),w
  3189     0391  07E2               	addwf	_endereco^(0+384),f
  3190     0392  0861               	movf	(_offset+1)^(0+384),w
  3191     0393  3DE3               	addwfc	(_endereco+1)^(0+384),f
  3192                           
  3193                           ;main.c: 545:             if ( enderecoRecebido == endereco.end16 )
  3194     0394  0865               	movf	(_enderecoRecebido+1)^(0+384),w
  3195     0395  0663               	xorwf	(_endereco+1)^(0+384),w
  3196     0396  1D03               	skipz
  3197     0397  2B9A               	goto	u1915
  3198     0398  0864               	movf	_enderecoRecebido^(0+384),w
  3199     0399  0662               	xorwf	_endereco^(0+384),w
  3200     039A                     u1915:
  3201     039A  1D03               	skipz
  3202     039B  2B9D               	goto	u1911
  3203     039C  2B9E               	goto	u1910
  3204     039D                     u1911:
  3205     039D  2BA1               	goto	l3256
  3206     039E                     u1910:
  3207     039E                     l3254:
  3208                           
  3209                           ;main.c: 546:                 fComandoSirene=1;
  3210     039E  3001               	movlw	1
  3211     039F  0022               	movlb	2	; select bank2
  3212     03A0  00EA               	movwf	_fComandoSirene^(0+256)	;volatile
  3213     03A1                     l3256:
  3214                           
  3215                           ;main.c: 548:             if (fComandoSirene)
  3216     03A1  0022               	movlb	2	; select bank2
  3217     03A2  086A               	movf	_fComandoSirene^(0+256),w	;volatile
  3218     03A3  1903               	btfsc	3,2
  3219     03A4  2BA6               	goto	u1921
  3220     03A5  2BA7               	goto	u1920
  3221     03A6                     u1921:
  3222     03A6  2C2E               	goto	l3312
  3223     03A7                     u1920:
  3224     03A7                     l3258:
  3225                           
  3226                           ;main.c: 549:             {;main.c: 550:                 __nop();
  3227     03A7  0000               	nop
  3228     03A8                     l3260:
  3229                           
  3230                           ;main.c: 551:                 fComandoSirene=0;
  3231     03A8  0022               	movlb	2	; select bank2
  3232     03A9  01EA               	clrf	_fComandoSirene^(0+256)	;volatile
  3233     03AA                     l3262:
  3234                           
  3235                           ;main.c: 552:                 passagem=0;
  3236     03AA  3000               	movlw	0
  3237     03AB  0021               	movlb	1	; select bank1
  3238     03AC  00D9               	movwf	(_passagem+3)^(0+128)
  3239     03AD  3000               	movlw	0
  3240     03AE  00D8               	movwf	(_passagem+2)^(0+128)
  3241     03AF  3000               	movlw	0
  3242     03B0  00D7               	movwf	(_passagem+1)^(0+128)
  3243     03B1  3000               	movlw	0
  3244     03B2  00D6               	movwf	_passagem^(0+128)
  3245     03B3                     l3264:
  3246                           
  3247                           ;main.c: 554:                 if ( (DadosLora[ 8] == '1')&&(DadosLora[ 9] == '1')&&
  3248     03B3  3031               	movlw	49
  3249     03B4  0022               	movlb	2	; select bank2
  3250     03B5  0628               	xorwf	(_DadosLora^(0+256)+8),w	;volatile
  3251     03B6  1D03               	btfss	3,2
  3252     03B7  2BB9               	goto	u1931
  3253     03B8  2BBA               	goto	u1930
  3254     03B9                     u1931:
  3255     03B9  2BF1               	goto	l3286
  3256     03BA                     u1930:
  3257     03BA                     l3266:
  3258     03BA  3031               	movlw	49
  3259     03BB  0629               	xorwf	(_DadosLora^(0+256)+9),w	;volatile
  3260     03BC  1D03               	btfss	3,2
  3261     03BD  2BBF               	goto	u1941
  3262     03BE  2BC0               	goto	u1940
  3263     03BF                     u1941:
  3264     03BF  2BF1               	goto	l3286
  3265     03C0                     u1940:
  3266     03C0                     l3268:
  3267     03C0  3032               	movlw	50
  3268     03C1  062A               	xorwf	(_DadosLora^(0+256)+10),w	;volatile
  3269     03C2  1D03               	btfss	3,2
  3270     03C3  2BC5               	goto	u1951
  3271     03C4  2BC6               	goto	u1950
  3272     03C5                     u1951:
  3273     03C5  2BF1               	goto	l3286
  3274     03C6                     u1950:
  3275     03C6                     l3270:
  3276     03C6  3032               	movlw	50
  3277     03C7  062B               	xorwf	(_DadosLora^(0+256)+11),w	;volatile
  3278     03C8  1D03               	btfss	3,2
  3279     03C9  2BCB               	goto	u1961
  3280     03CA  2BCC               	goto	u1960
  3281     03CB                     u1961:
  3282     03CB  2BF1               	goto	l3286
  3283     03CC                     u1960:
  3284     03CC                     l3272:
  3285     03CC  3033               	movlw	51
  3286     03CD  062C               	xorwf	(_DadosLora^(0+256)+12),w	;volatile
  3287     03CE  1D03               	btfss	3,2
  3288     03CF  2BD1               	goto	u1971
  3289     03D0  2BD2               	goto	u1970
  3290     03D1                     u1971:
  3291     03D1  2BF1               	goto	l3286
  3292     03D2                     u1970:
  3293     03D2                     l3274:
  3294     03D2  3033               	movlw	51
  3295     03D3  062D               	xorwf	(_DadosLora^(0+256)+13),w	;volatile
  3296     03D4  1D03               	btfss	3,2
  3297     03D5  2BD7               	goto	u1981
  3298     03D6  2BD8               	goto	u1980
  3299     03D7                     u1981:
  3300     03D7  2BF1               	goto	l3286
  3301     03D8                     u1980:
  3302     03D8                     l3276:
  3303                           
  3304                           ;main.c: 557:                 {;main.c: 558:                     if (fLigado==0)
  3305     03D8  086D               	movf	_fLigado^(0+256),w	;volatile
  3306     03D9  1D03               	btfss	3,2
  3307     03DA  2BDC               	goto	u1991
  3308     03DB  2BDD               	goto	u1990
  3309     03DC                     u1991:
  3310     03DC  2BEC               	goto	l3284
  3311     03DD                     u1990:
  3312     03DD                     l3278:
  3313                           
  3314                           ;main.c: 559:                     {;main.c: 560:                         __nop();
  3315     03DD  0000               	nop
  3316                           
  3317                           ;main.c: 561:                         fLigado = 1;
  3318     03DE  3001               	movlw	1
  3319     03DF  0022               	movlb	2	; select bank2
  3320     03E0  00ED               	movwf	_fLigado^(0+256)	;volatile
  3321                           
  3322                           ;main.c: 562:                         fRTX=1;
  3323     03E1  3001               	movlw	1
  3324     03E2  00EC               	movwf	_fRTX^(0+256)	;volatile
  3325     03E3                     l698:	
  3326                           ;main.c: 563:                         do { LATAbits.LATA6 = 1; } while(0);
  3327                           
  3328     03E3  170C               	bsf	12,6	;volatile
  3329     03E4                     l3280:
  3330                           
  3331                           ;main.c: 564:                         cicloLED=0;
  3332     03E4  0023               	movlb	3	; select bank3
  3333     03E5  01EC               	clrf	_cicloLED^(0+384)
  3334     03E6  01ED               	clrf	(_cicloLED+1)^(0+384)
  3335                           
  3336                           ;main.c: 565:                         tempoRTX=0;
  3337     03E7  01EA               	clrf	_tempoRTX^(0+384)
  3338     03E8  01EB               	clrf	(_tempoRTX+1)^(0+384)
  3339     03E9                     l3282:
  3340     03E9  0022               	movlb	2	; select bank2
  3341     03EA  140C               	bsf	12,0	;volatile
  3342     03EB  2BF1               	goto	l3286
  3343     03EC                     l3284:
  3344                           
  3345                           ;main.c: 569:                         contaRTX=1;
  3346     03EC  3001               	movlw	1
  3347     03ED  0023               	movlb	3	; select bank3
  3348     03EE  00E8               	movwf	_contaRTX^(0+384)
  3349     03EF  3000               	movlw	0
  3350     03F0  00E9               	movwf	(_contaRTX^(0+384)+1)
  3351     03F1                     l3286:
  3352                           
  3353                           ;main.c: 572:                 if ( (DadosLora[ 8] == '4')&&(DadosLora[ 9] == '4')&&
  3354     03F1  3034               	movlw	52
  3355     03F2  0022               	movlb	2	; select bank2
  3356     03F3  0628               	xorwf	(_DadosLora^(0+256)+8),w	;volatile
  3357     03F4  1D03               	btfss	3,2
  3358     03F5  2BF7               	goto	u2001
  3359     03F6  2BF8               	goto	u2000
  3360     03F7                     u2001:
  3361     03F7  2C2E               	goto	l3312
  3362     03F8                     u2000:
  3363     03F8                     l3288:
  3364     03F8  3034               	movlw	52
  3365     03F9  0629               	xorwf	(_DadosLora^(0+256)+9),w	;volatile
  3366     03FA  1D03               	btfss	3,2
  3367     03FB  2BFD               	goto	u2011
  3368     03FC  2BFE               	goto	u2010
  3369     03FD                     u2011:
  3370     03FD  2C2E               	goto	l3312
  3371     03FE                     u2010:
  3372     03FE                     l3290:
  3373     03FE  3035               	movlw	53
  3374     03FF  062A               	xorwf	(_DadosLora^(0+256)+10),w	;volatile
  3375     0400  1D03               	btfss	3,2
  3376     0401  2C03               	goto	u2021
  3377     0402  2C04               	goto	u2020
  3378     0403                     u2021:
  3379     0403  2C2E               	goto	l3312
  3380     0404                     u2020:
  3381     0404                     l3292:
  3382     0404  3035               	movlw	53
  3383     0405  062B               	xorwf	(_DadosLora^(0+256)+11),w	;volatile
  3384     0406  1D03               	btfss	3,2
  3385     0407  2C09               	goto	u2031
  3386     0408  2C0A               	goto	u2030
  3387     0409                     u2031:
  3388     0409  2C2E               	goto	l3312
  3389     040A                     u2030:
  3390     040A                     l3294:
  3391     040A  3036               	movlw	54
  3392     040B  062C               	xorwf	(_DadosLora^(0+256)+12),w	;volatile
  3393     040C  1D03               	btfss	3,2
  3394     040D  2C0F               	goto	u2041
  3395     040E  2C10               	goto	u2040
  3396     040F                     u2041:
  3397     040F  2C2E               	goto	l3312
  3398     0410                     u2040:
  3399     0410                     l3296:
  3400     0410  3036               	movlw	54
  3401     0411  062D               	xorwf	(_DadosLora^(0+256)+13),w	;volatile
  3402     0412  1D03               	btfss	3,2
  3403     0413  2C15               	goto	u2051
  3404     0414  2C16               	goto	u2050
  3405     0415                     u2051:
  3406     0415  2C2E               	goto	l3312
  3407     0416                     u2050:
  3408     0416                     l3298:
  3409                           
  3410                           ;main.c: 575:                 {;main.c: 576:                     if (fLigado==1)
  3411     0416  036D               	decf	_fLigado^(0+256),w	;volatile
  3412     0417  1D03               	btfss	3,2
  3413     0418  2C1A               	goto	u2061
  3414     0419  2C1B               	goto	u2060
  3415     041A                     u2061:
  3416     041A  2C29               	goto	l3310
  3417     041B                     u2060:
  3418     041B                     l3300:
  3419                           
  3420                           ;main.c: 577:                     {;main.c: 578:                         __nop();
  3421     041B  0000               	nop
  3422     041C                     l3302:
  3423                           
  3424                           ;main.c: 579:                         fLigado=0;
  3425     041C  0022               	movlb	2	; select bank2
  3426     041D  01ED               	clrf	_fLigado^(0+256)	;volatile
  3427     041E                     l3304:
  3428                           
  3429                           ;main.c: 580:                         fRTX=1;
  3430     041E  3001               	movlw	1
  3431     041F  00EC               	movwf	_fRTX^(0+256)	;volatile
  3432     0420                     l3306:
  3433     0420  170C               	bsf	12,6	;volatile
  3434     0421                     l706:
  3435                           
  3436                           ;main.c: 582:                         cicloLED=0;
  3437     0421  0023               	movlb	3	; select bank3
  3438     0422  01EC               	clrf	_cicloLED^(0+384)
  3439     0423  01ED               	clrf	(_cicloLED+1)^(0+384)
  3440                           
  3441                           ;main.c: 583:                         tempoRTX=0;
  3442     0424  01EA               	clrf	_tempoRTX^(0+384)
  3443     0425  01EB               	clrf	(_tempoRTX+1)^(0+384)
  3444     0426                     l3308:
  3445     0426  0022               	movlb	2	; select bank2
  3446     0427  100C               	bcf	12,0	;volatile
  3447     0428  2C2E               	goto	l3312
  3448     0429                     l3310:
  3449                           
  3450                           ;main.c: 587:                         contaRTX=2;
  3451     0429  3002               	movlw	2
  3452     042A  0023               	movlb	3	; select bank3
  3453     042B  00E8               	movwf	_contaRTX^(0+384)
  3454     042C  3000               	movlw	0
  3455     042D  00E9               	movwf	(_contaRTX^(0+384)+1)
  3456     042E                     l3312:
  3457                           
  3458                           ;main.c: 591:             SM_CFOFF();
  3459     042E  318E  26D3  3180   	fcall	_SM_CFOFF
  3460     0431                     l3314:
  3461                           
  3462                           ;main.c: 592:             SM_CONFIGRADIO(22);
  3463     0431  3016               	movlw	22
  3464     0432  318F  2700  3180   	fcall	_SM_CONFIGRADIO
  3465     0435                     l3316:
  3466                           
  3467                           ;main.c: 593:             SM_MODORX(22);
  3468     0435  3016               	movlw	22
  3469     0436  318F  272D  3180   	fcall	_SM_MODORX
  3470     0439                     l3318:
  3471                           
  3472                           ;main.c: 594:             SM_CFOFF();
  3473     0439  318E  26D3  3180   	fcall	_SM_CFOFF
  3474     043C                     l3320:
  3475                           
  3476                           ;main.c: 595:             SM_CONFIGRADIO(22);
  3477     043C  3016               	movlw	22
  3478     043D  318F  2700  3180   	fcall	_SM_CONFIGRADIO
  3479     0440                     l3322:
  3480                           
  3481                           ;main.c: 596:             SM_MODORX(22);
  3482     0440  3016               	movlw	22
  3483     0441  318F  272D  3180   	fcall	_SM_MODORX
  3484     0444  292F               	goto	l3100
  3485     0445  3180  282F         	ljmp	start
  3486     0447                     __end_of_main:
  3487                           
  3488                           	psect	text1
  3489     0E1A                     __ptext1:	
  3490 ;; *************** function ___wmul *****************
  3491 ;; Defined at:
  3492 ;;		line 15 in file "C:\Program Files\Microchip\xc8\v3.10\pic\sources\c99\common\Umul16.c"
  3493 ;; Parameters:    Size  Location     Type
  3494 ;;  multiplier      2    0[COMMON] unsigned int 
  3495 ;;  multiplicand    2    2[COMMON] unsigned int 
  3496 ;; Auto vars:     Size  Location     Type
  3497 ;;  product         2    4[COMMON] unsigned int 
  3498 ;; Return value:  Size  Location     Type
  3499 ;;                  2    0[COMMON] unsigned int 
  3500 ;; Registers used:
  3501 ;;		wreg, status,2, status,0
  3502 ;; Tracked objects:
  3503 ;;		On entry : 0/0
  3504 ;;		On exit  : 0/0
  3505 ;;		Unchanged: 0/0
  3506 ;; Data sizes:     COMMON   BANK0   BANK1   BANK2   BANK3   BANK4
  3507 ;;      Params:         4       0       0       0       0       0
  3508 ;;      Locals:         2       0       0       0       0       0
  3509 ;;      Temps:          0       0       0       0       0       0
  3510 ;;      Totals:         6       0       0       0       0       0
  3511 ;;Total ram usage:        6 bytes
  3512 ;; Hardware stack levels used: 1
  3513 ;; Hardware stack levels required when called: 4
  3514 ;; This function calls:
  3515 ;;		Nothing
  3516 ;; This function is called by:
  3517 ;;		_main
  3518 ;; This function uses a non-reentrant model
  3519 ;;
  3520                           
  3521     0E1A                     ___wmul:	
  3522                           ;psect for function ___wmul
  3523                           
  3524     0E1A                     l2916:	
  3525                           ;incstack = 0
  3526                           ; Regs used in ___wmul: [wreg+status,2+status,0]
  3527                           
  3528     0E1A  01F4               	clrf	___wmul@product
  3529     0E1B  01F5               	clrf	___wmul@product+1
  3530     0E1C                     l2918:
  3531     0E1C  1C70               	btfss	___wmul@multiplier,0
  3532     0E1D  2E1F               	goto	u1621
  3533     0E1E  2E20               	goto	u1620
  3534     0E1F                     u1621:
  3535     0E1F  2E24               	goto	l810
  3536     0E20                     u1620:
  3537     0E20                     l2920:
  3538     0E20  0872               	movf	___wmul@multiplicand,w
  3539     0E21  07F4               	addwf	___wmul@product,f
  3540     0E22  0873               	movf	___wmul@multiplicand+1,w
  3541     0E23  3DF5               	addwfc	___wmul@product+1,f
  3542     0E24                     l810:
  3543     0E24  3001               	movlw	1
  3544     0E25                     u1635:
  3545     0E25  35F2               	lslf	___wmul@multiplicand,f
  3546     0E26  0DF3               	rlf	___wmul@multiplicand+1,f
  3547     0E27  0B89               	decfsz	9,f
  3548     0E28  2E25               	goto	u1635
  3549     0E29                     l2922:
  3550     0E29  3001               	movlw	1
  3551     0E2A                     u1645:
  3552     0E2A  36F1               	lsrf	___wmul@multiplier+1,f
  3553     0E2B  0CF0               	rrf	___wmul@multiplier,f
  3554     0E2C  0B89               	decfsz	9,f
  3555     0E2D  2E2A               	goto	u1645
  3556     0E2E                     l2924:
  3557     0E2E  0870               	movf	___wmul@multiplier,w
  3558     0E2F  0471               	iorwf	___wmul@multiplier+1,w
  3559     0E30  1D03               	btfss	3,2
  3560     0E31  2E33               	goto	u1651
  3561     0E32  2E34               	goto	u1650
  3562     0E33                     u1651:
  3563     0E33  2E1C               	goto	l2918
  3564     0E34                     u1650:
  3565     0E34                     l2926:
  3566     0E34  0875               	movf	___wmul@product+1,w
  3567     0E35  00F1               	movwf	?___wmul+1
  3568     0E36  0874               	movf	___wmul@product,w
  3569     0E37  00F0               	movwf	?___wmul
  3570     0E38                     l812:
  3571     0E38  0008               	return
  3572     0E39                     __end_of___wmul:
  3573                           
  3574                           	psect	text2
  3575     0DA2                     __ptext2:	
  3576 ;; *************** function _WDT_Initialize *****************
  3577 ;; Defined at:
  3578 ;;		line 70 in file "mcc_generated_files/mcc.c"
  3579 ;; Parameters:    Size  Location     Type
  3580 ;;		None
  3581 ;; Auto vars:     Size  Location     Type
  3582 ;;		None
  3583 ;; Return value:  Size  Location     Type
  3584 ;;                  1    wreg      void 
  3585 ;; Registers used:
  3586 ;;		None
  3587 ;; Tracked objects:
  3588 ;;		On entry : 0/0
  3589 ;;		On exit  : 0/0
  3590 ;;		Unchanged: 0/0
  3591 ;; Data sizes:     COMMON   BANK0   BANK1   BANK2   BANK3   BANK4
  3592 ;;      Params:         0       0       0       0       0       0
  3593 ;;      Locals:         0       0       0       0       0       0
  3594 ;;      Temps:          0       0       0       0       0       0
  3595 ;;      Totals:         0       0       0       0       0       0
  3596 ;;Total ram usage:        0 bytes
  3597 ;; Hardware stack levels used: 1
  3598 ;; Hardware stack levels required when called: 4
  3599 ;; This function calls:
  3600 ;;		Nothing
  3601 ;; This function is called by:
  3602 ;;		_main
  3603 ;; This function uses a non-reentrant model
  3604 ;;
  3605                           
  3606     0DA2                     _WDT_Initialize:	
  3607                           ;psect for function _WDT_Initialize
  3608                           
  3609     0DA2                     l2662:	
  3610                           ;incstack = 0
  3611                           ; Regs used in _WDT_Initialize: []
  3612                           
  3613                           
  3614                           ;mcc_generated_files/mcc.c: 73:     WDTCON = 0x24;
  3615     0DA2  3024               	movlw	36
  3616     0DA3  0021               	movlb	1	; select bank1
  3617     0DA4  0097               	movwf	23	;volatile
  3618     0DA5                     l17:
  3619     0DA5  0008               	return
  3620     0DA6                     __end_of_WDT_Initialize:
  3621                           
  3622                           	psect	text3
  3623     0447                     __ptext3:	
  3624 ;; *************** function _TesteEnvio *****************
  3625 ;; Defined at:
  3626 ;;		line 261 in file "main.c"
  3627 ;; Parameters:    Size  Location     Type
  3628 ;;		None
  3629 ;; Auto vars:     Size  Location     Type
  3630 ;;		None
  3631 ;; Return value:  Size  Location     Type
  3632 ;;                  1    wreg      void 
  3633 ;; Registers used:
  3634 ;;		wreg, fsr0l, fsr0h, fsr1l, fsr1h, status,2, status,0, pclath, cstack
  3635 ;; Tracked objects:
  3636 ;;		On entry : 0/0
  3637 ;;		On exit  : 0/0
  3638 ;;		Unchanged: 0/0
  3639 ;; Data sizes:     COMMON   BANK0   BANK1   BANK2   BANK3   BANK4
  3640 ;;      Params:         0       0       0       0       0       0
  3641 ;;      Locals:         0       0       0       0       0       0
  3642 ;;      Temps:          2       0       0       0       0       0
  3643 ;;      Totals:         2       0       0       0       0       0
  3644 ;;Total ram usage:        2 bytes
  3645 ;; Hardware stack levels used: 1
  3646 ;; Hardware stack levels required when called: 5
  3647 ;; This function calls:
  3648 ;;		_EUSART_Reset
  3649 ;;		_EUSART_Write
  3650 ;;		_SM_CFOFF
  3651 ;;		_SM_CONFIGRADIO
  3652 ;;		_SM_MODORX
  3653 ;;		___lwdiv
  3654 ;;		___lwmod
  3655 ;; This function is called by:
  3656 ;;		_main
  3657 ;; This function uses a non-reentrant model
  3658 ;;
  3659                           
  3660     0447                     _TesteEnvio:	
  3661                           ;psect for function _TesteEnvio
  3662                           
  3663     0447                     l2848:	
  3664                           ;incstack = 0
  3665                           ; Regs used in _TesteEnvio: [wreg-fsr1h+status,2+status,0+pclath+cstack]
  3666                           
  3667                           
  3668                           ;main.c: 263:     while (PORTBbits.RB0==0)
  3669     0447  2C64               	goto	l2854
  3670     0448                     l585:	
  3671                           ;main.c: 264:     { do { LATAbits.LATA7 = 1; } while(0); _delay((unsigned long)((50)*(16
      +                          000000/4000.0))); do { LATAbits.LATA7 = 0; } while(0); _delay((unsigned long)((50)*(1600
      +                          0000/4000.0))); }
  3672                           
  3673     0448  0022               	movlb	2	; select bank2
  3674     0449  178C               	bsf	12,7	;volatile
  3675     044A                     l2850:
  3676     044A  3002               	movlw	2
  3677     044B  00F8               	movwf	??_TesteEnvio+1
  3678     044C  3004               	movlw	4
  3679     044D  00F7               	movwf	??_TesteEnvio
  3680     044E  30BA               	movlw	186
  3681     044F                     u2187:
  3682     044F  0B89               	decfsz	9,f
  3683     0450  2C4F               	goto	u2187
  3684     0451  0BF7               	decfsz	??_TesteEnvio,f
  3685     0452  2C4F               	goto	u2187
  3686     0453  0BF8               	decfsz	??_TesteEnvio+1,f
  3687     0454  2C4F               	goto	u2187
  3688     0455  3200               	nop2
  3689     0456                     l2852:
  3690     0456  0022               	movlb	2	; select bank2
  3691     0457  138C               	bcf	12,7	;volatile
  3692     0458                     l588:
  3693     0458  3002               	movlw	2
  3694     0459  00F8               	movwf	??_TesteEnvio+1
  3695     045A  3004               	movlw	4
  3696     045B  00F7               	movwf	??_TesteEnvio
  3697     045C  30BA               	movlw	186
  3698     045D                     u2197:
  3699     045D  0B89               	decfsz	9,f
  3700     045E  2C5D               	goto	u2197
  3701     045F  0BF7               	decfsz	??_TesteEnvio,f
  3702     0460  2C5D               	goto	u2197
  3703     0461  0BF8               	decfsz	??_TesteEnvio+1,f
  3704     0462  2C5D               	goto	u2197
  3705     0463  3200               	nop2
  3706     0464                     l2854:
  3707                           
  3708                           ;main.c: 263:     while (PORTBbits.RB0==0)
  3709     0464  0020               	movlb	0	; select bank0
  3710     0465  1C0D               	btfss	13,0	;volatile
  3711     0466  2C68               	goto	u1601
  3712     0467  2C69               	goto	u1600
  3713     0468                     u1601:
  3714     0468  2C48               	goto	l585
  3715     0469                     u1600:
  3716     0469                     l590:	
  3717                           ;main.c: 266:     do { LATAbits.LATA7 = 1; } while(0);
  3718                           
  3719     0469  0022               	movlb	2	; select bank2
  3720     046A  178C               	bsf	12,7	;volatile
  3721     046B                     l2856:
  3722                           
  3723                           ;main.c: 268:     SM_CFOFF();
  3724     046B  318E  26D3  3184   	fcall	_SM_CFOFF
  3725     046E                     l2858:
  3726                           
  3727                           ;main.c: 269:     __nop();
  3728     046E  0000               	nop
  3729                           
  3730                           ;main.c: 270:     SM_CONFIGRADIO(22);
  3731     046F  3016               	movlw	22
  3732     0470  318F  2700  3184   	fcall	_SM_CONFIGRADIO
  3733     0473                     l2860:
  3734                           
  3735                           ;main.c: 271:     __nop();
  3736     0473  0000               	nop
  3737     0474                     l2862:
  3738                           
  3739                           ;main.c: 274:     ENDERECO = 9133;
  3740     0474  30AD               	movlw	173
  3741     0475  0022               	movlb	2	; select bank2
  3742     0476  00E4               	movwf	_ENDERECO^(0+256)
  3743     0477  3023               	movlw	35
  3744     0478  00E5               	movwf	(_ENDERECO^(0+256)+1)
  3745     0479                     l2864:
  3746                           
  3747                           ;main.c: 275:     endereco_M = (uint8_t)(ENDERECO/1000);
  3748     0479  30E8               	movlw	232
  3749     047A  00F0               	movwf	___lwdiv@divisor
  3750     047B  3003               	movlw	3
  3751     047C  00F1               	movwf	___lwdiv@divisor+1
  3752     047D  0865               	movf	(_ENDERECO+1)^(0+256),w
  3753     047E  00F3               	movwf	___lwdiv@dividend+1
  3754     047F  0864               	movf	_ENDERECO^(0+256),w
  3755     0480  00F2               	movwf	___lwdiv@dividend
  3756     0481  3187  27C6  3184   	fcall	___lwdiv
  3757     0484  0870               	movf	?___lwdiv,w
  3758     0485  0024               	movlb	4	; select bank4
  3759     0486  00A3               	movwf	_endereco_M^(0+512)	;volatile
  3760     0487                     l2866:
  3761                           
  3762                           ;main.c: 276:     temp16 = ENDERECO%1000;
  3763     0487  30E8               	movlw	232
  3764     0488  00F0               	movwf	___lwmod@divisor
  3765     0489  3003               	movlw	3
  3766     048A  00F1               	movwf	___lwmod@divisor+1
  3767     048B  0022               	movlb	2	; select bank2
  3768     048C  0865               	movf	(_ENDERECO+1)^(0+256),w
  3769     048D  00F3               	movwf	___lwmod@dividend+1
  3770     048E  0864               	movf	_ENDERECO^(0+256),w
  3771     048F  00F2               	movwf	___lwmod@dividend
  3772     0490  318F  275D  3184   	fcall	___lwmod
  3773     0493  0871               	movf	?___lwmod+1,w
  3774     0494  0023               	movlb	3	; select bank3
  3775     0495  00E7               	movwf	(_temp16+1)^(0+384)
  3776     0496  0870               	movf	?___lwmod,w
  3777     0497  00E6               	movwf	_temp16^(0+384)
  3778     0498                     l2868:
  3779                           
  3780                           ;main.c: 277:     endereco_C = (uint8_t)(temp16/100);
  3781     0498  3064               	movlw	100
  3782     0499  00F0               	movwf	___lwdiv@divisor
  3783     049A  3000               	movlw	0
  3784     049B  00F1               	movwf	___lwdiv@divisor+1
  3785     049C  0867               	movf	(_temp16+1)^(0+384),w
  3786     049D  00F3               	movwf	___lwdiv@dividend+1
  3787     049E  0866               	movf	_temp16^(0+384),w
  3788     049F  00F2               	movwf	___lwdiv@dividend
  3789     04A0  3187  27C6  3184   	fcall	___lwdiv
  3790     04A3  0870               	movf	?___lwdiv,w
  3791     04A4  0024               	movlb	4	; select bank4
  3792     04A5  00A2               	movwf	_endereco_C^(0+512)	;volatile
  3793     04A6                     l2870:
  3794                           
  3795                           ;main.c: 278:     temp16 = temp16%100;
  3796     04A6  3064               	movlw	100
  3797     04A7  00F0               	movwf	___lwmod@divisor
  3798     04A8  3000               	movlw	0
  3799     04A9  00F1               	movwf	___lwmod@divisor+1
  3800     04AA  0023               	movlb	3	; select bank3
  3801     04AB  0867               	movf	(_temp16+1)^(0+384),w
  3802     04AC  00F3               	movwf	___lwmod@dividend+1
  3803     04AD  0866               	movf	_temp16^(0+384),w
  3804     04AE  00F2               	movwf	___lwmod@dividend
  3805     04AF  318F  275D  3184   	fcall	___lwmod
  3806     04B2  0871               	movf	?___lwmod+1,w
  3807     04B3  0023               	movlb	3	; select bank3
  3808     04B4  00E7               	movwf	(_temp16+1)^(0+384)
  3809     04B5  0870               	movf	?___lwmod,w
  3810     04B6  00E6               	movwf	_temp16^(0+384)
  3811     04B7                     l2872:
  3812                           
  3813                           ;main.c: 279:     endereco_D = (uint8_t)(temp16/10);
  3814     04B7  300A               	movlw	10
  3815     04B8  00F0               	movwf	___lwdiv@divisor
  3816     04B9  3000               	movlw	0
  3817     04BA  00F1               	movwf	___lwdiv@divisor+1
  3818     04BB  0867               	movf	(_temp16+1)^(0+384),w
  3819     04BC  00F3               	movwf	___lwdiv@dividend+1
  3820     04BD  0866               	movf	_temp16^(0+384),w
  3821     04BE  00F2               	movwf	___lwdiv@dividend
  3822     04BF  3187  27C6  3184   	fcall	___lwdiv
  3823     04C2  0870               	movf	?___lwdiv,w
  3824     04C3  0024               	movlb	4	; select bank4
  3825     04C4  00A1               	movwf	_endereco_D^(0+512)	;volatile
  3826     04C5                     l2874:
  3827                           
  3828                           ;main.c: 280:     endereco_U = (uint8_t)(temp16%10);
  3829     04C5  300A               	movlw	10
  3830     04C6  00F0               	movwf	___lwmod@divisor
  3831     04C7  3000               	movlw	0
  3832     04C8  00F1               	movwf	___lwmod@divisor+1
  3833     04C9  0023               	movlb	3	; select bank3
  3834     04CA  0867               	movf	(_temp16+1)^(0+384),w
  3835     04CB  00F3               	movwf	___lwmod@dividend+1
  3836     04CC  0866               	movf	_temp16^(0+384),w
  3837     04CD  00F2               	movwf	___lwmod@dividend
  3838     04CE  318F  275D  3184   	fcall	___lwmod
  3839     04D1  0870               	movf	?___lwmod,w
  3840     04D2  0024               	movlb	4	; select bank4
  3841     04D3  00A0               	movwf	_endereco_U^(0+512)	;volatile
  3842     04D4                     l2876:
  3843                           
  3844                           ;main.c: 282:     endereco_M += 48;
  3845     04D4  3030               	movlw	48
  3846     04D5  07A3               	addwf	_endereco_M^(0+512),f	;volatile
  3847     04D6                     l2878:
  3848                           
  3849                           ;main.c: 283:     endereco_C += 48;
  3850     04D6  3030               	movlw	48
  3851     04D7  07A2               	addwf	_endereco_C^(0+512),f	;volatile
  3852     04D8                     l2880:
  3853                           
  3854                           ;main.c: 284:     endereco_D += 48;
  3855     04D8  3030               	movlw	48
  3856     04D9  07A1               	addwf	_endereco_D^(0+512),f	;volatile
  3857     04DA                     l2882:
  3858                           
  3859                           ;main.c: 285:     endereco_U += 48;
  3860     04DA  3030               	movlw	48
  3861     04DB  07A0               	addwf	_endereco_U^(0+512),f	;volatile
  3862     04DC                     l2884:
  3863                           
  3864                           ;main.c: 286:     __nop();
  3865     04DC  0000               	nop
  3866     04DD                     l2886:
  3867                           
  3868                           ;main.c: 288:     EUSART_Reset();
  3869     04DD  318F  278F  3184   	fcall	_EUSART_Reset
  3870     04E0                     l2888:
  3871                           
  3872                           ;main.c: 289:     for (loop=0; _TXSTART22[loop]!=0; loop++) EUSART_Write (_TXSTART22[loo
      +                          p]);
  3873     04E0  0024               	movlb	4	; select bank4
  3874     04E1  01AC               	clrf	_loop^(0+512)
  3875     04E2  2CF1               	goto	l2894
  3876     04E3                     l2890:
  3877     04E3  082C               	movf	_loop^(0+512),w
  3878     04E4  3E4E               	addlw	low (__TXSTART22| (0+32768))
  3879     04E5  0084               	movwf	4
  3880     04E6  3088               	movlw	high (__TXSTART22| (0+32768))
  3881     04E7  1803               	skipnc
  3882     04E8  3E01               	addlw	1
  3883     04E9  0085               	movwf	5
  3884     04EA  0800               	movf	0,w	;code access
  3885     04EB  318E  2680  3184   	fcall	_EUSART_Write
  3886     04EE                     l2892:
  3887     04EE  3001               	movlw	1
  3888     04EF  0024               	movlb	4	; select bank4
  3889     04F0  07AC               	addwf	_loop^(0+512),f
  3890     04F1                     l2894:
  3891     04F1  082C               	movf	_loop^(0+512),w
  3892     04F2  3E4E               	addlw	low (__TXSTART22| (0+32768))
  3893     04F3  0084               	movwf	4
  3894     04F4  3088               	movlw	high (__TXSTART22| (0+32768))
  3895     04F5  1803               	skipnc
  3896     04F6  3E01               	addlw	1
  3897     04F7  0085               	movwf	5
  3898     04F8  0012               	moviw fsr0++
  3899     04F9  1D03               	btfss	3,2
  3900     04FA  2CFC               	goto	u1611
  3901     04FB  2CFD               	goto	u1610
  3902     04FC                     u1611:
  3903     04FC  2CE3               	goto	l2890
  3904     04FD                     u1610:
  3905     04FD                     l2896:
  3906                           
  3907                           ;main.c: 290:     EUSART_Write('S');
  3908     04FD  3053               	movlw	83
  3909     04FE  318E  2680  3184   	fcall	_EUSART_Write
  3910                           
  3911                           ;main.c: 291:     EUSART_Write('i');
  3912     0501  3069               	movlw	105
  3913     0502  318E  2680  3184   	fcall	_EUSART_Write
  3914                           
  3915                           ;main.c: 292:     EUSART_Write('r');
  3916     0505  3072               	movlw	114
  3917     0506  318E  2680  3184   	fcall	_EUSART_Write
  3918                           
  3919                           ;main.c: 293:     EUSART_Write('e');
  3920     0509  3065               	movlw	101
  3921     050A  318E  2680  3184   	fcall	_EUSART_Write
  3922                           
  3923                           ;main.c: 294:     EUSART_Write('n');
  3924     050D  306E               	movlw	110
  3925     050E  318E  2680  3184   	fcall	_EUSART_Write
  3926                           
  3927                           ;main.c: 295:     EUSART_Write('e');
  3928     0511  3065               	movlw	101
  3929     0512  318E  2680  3184   	fcall	_EUSART_Write
  3930                           
  3931                           ;main.c: 296:     EUSART_Write(':');
  3932     0515  303A               	movlw	58
  3933     0516  318E  2680  3184   	fcall	_EUSART_Write
  3934                           
  3935                           ;main.c: 297:     EUSART_Write(' ');
  3936     0519  3020               	movlw	32
  3937     051A  318E  2680  3184   	fcall	_EUSART_Write
  3938                           
  3939                           ;main.c: 298:     EUSART_Write(endereco_M);
  3940     051D  0024               	movlb	4	; select bank4
  3941     051E  0823               	movf	_endereco_M^(0+512),w	;volatile
  3942     051F  318E  2680  3184   	fcall	_EUSART_Write
  3943                           
  3944                           ;main.c: 299:     EUSART_Write(endereco_C);
  3945     0522  0024               	movlb	4	; select bank4
  3946     0523  0822               	movf	_endereco_C^(0+512),w	;volatile
  3947     0524  318E  2680  3184   	fcall	_EUSART_Write
  3948                           
  3949                           ;main.c: 300:     EUSART_Write(endereco_D);
  3950     0527  0024               	movlb	4	; select bank4
  3951     0528  0821               	movf	_endereco_D^(0+512),w	;volatile
  3952     0529  318E  2680  3184   	fcall	_EUSART_Write
  3953                           
  3954                           ;main.c: 301:     EUSART_Write(endereco_U);
  3955     052C  0024               	movlb	4	; select bank4
  3956     052D  0820               	movf	_endereco_U^(0+512),w	;volatile
  3957     052E  318E  2680  3184   	fcall	_EUSART_Write
  3958                           
  3959                           ;main.c: 302:     EUSART_Write (0x0D);
  3960     0531  300D               	movlw	13
  3961     0532  318E  2680  3184   	fcall	_EUSART_Write
  3962     0535                     l2898:
  3963                           
  3964                           ;main.c: 303:     _delay((unsigned long)((2000)*(16000000/4000.0)));
  3965     0535  3029               	movlw	41
  3966     0536  00F8               	movwf	??_TesteEnvio+1
  3967     0537  3096               	movlw	150
  3968     0538  00F7               	movwf	??_TesteEnvio
  3969     0539  307F               	movlw	127
  3970     053A                     u2207:
  3971     053A  0B89               	decfsz	9,f
  3972     053B  2D3A               	goto	u2207
  3973     053C  0BF7               	decfsz	??_TesteEnvio,f
  3974     053D  2D3A               	goto	u2207
  3975     053E  0BF8               	decfsz	??_TesteEnvio+1,f
  3976     053F  2D3A               	goto	u2207
  3977     0540  0000               	nop
  3978     0541                     l2900:
  3979                           
  3980                           ;main.c: 306:     SM_CFOFF();
  3981     0541  318E  26D3  3184   	fcall	_SM_CFOFF
  3982     0544                     l2902:
  3983                           
  3984                           ;main.c: 307:     SM_CONFIGRADIO(22);
  3985     0544  3016               	movlw	22
  3986     0545  318F  2700  3184   	fcall	_SM_CONFIGRADIO
  3987     0548                     l2904:
  3988                           
  3989                           ;main.c: 308:     SM_MODORX(22);
  3990     0548  3016               	movlw	22
  3991     0549  318F  272D  3184   	fcall	_SM_MODORX
  3992     054C                     l2906:
  3993                           
  3994                           ;main.c: 309:     SM_CFOFF();
  3995     054C  318E  26D3  3184   	fcall	_SM_CFOFF
  3996     054F                     l2908:
  3997                           
  3998                           ;main.c: 310:     SM_CONFIGRADIO(22);
  3999     054F  3016               	movlw	22
  4000     0550  318F  2700  3184   	fcall	_SM_CONFIGRADIO
  4001     0553                     l2910:
  4002                           
  4003                           ;main.c: 311:     SM_MODORX(22);
  4004     0553  3016               	movlw	22
  4005     0554  318F  272D  3184   	fcall	_SM_MODORX
  4006     0557                     l2912:
  4007                           
  4008                           ;main.c: 312:     __nop();
  4009     0557  0000               	nop
  4010     0558                     l2914:
  4011     0558  0022               	movlb	2	; select bank2
  4012     0559  138C               	bcf	12,7	;volatile
  4013     055A                     l597:
  4014     055A  0008               	return
  4015     055B                     __end_of_TesteEnvio:
  4016                           
  4017                           	psect	text4
  4018     0F5D                     __ptext4:	
  4019 ;; *************** function ___lwmod *****************
  4020 ;; Defined at:
  4021 ;;		line 5 in file "C:\Program Files\Microchip\xc8\v3.10\pic\sources\c99\common\lwmod.c"
  4022 ;; Parameters:    Size  Location     Type
  4023 ;;  divisor         2    0[COMMON] unsigned int 
  4024 ;;  dividend        2    2[COMMON] unsigned int 
  4025 ;; Auto vars:     Size  Location     Type
  4026 ;;  counter         1    4[COMMON] unsigned char 
  4027 ;; Return value:  Size  Location     Type
  4028 ;;                  2    0[COMMON] unsigned int 
  4029 ;; Registers used:
  4030 ;;		wreg, status,2, status,0
  4031 ;; Tracked objects:
  4032 ;;		On entry : 0/0
  4033 ;;		On exit  : 0/0
  4034 ;;		Unchanged: 0/0
  4035 ;; Data sizes:     COMMON   BANK0   BANK1   BANK2   BANK3   BANK4
  4036 ;;      Params:         4       0       0       0       0       0
  4037 ;;      Locals:         1       0       0       0       0       0
  4038 ;;      Temps:          0       0       0       0       0       0
  4039 ;;      Totals:         5       0       0       0       0       0
  4040 ;;Total ram usage:        5 bytes
  4041 ;; Hardware stack levels used: 1
  4042 ;; Hardware stack levels required when called: 4
  4043 ;; This function calls:
  4044 ;;		Nothing
  4045 ;; This function is called by:
  4046 ;;		_TesteEnvio
  4047 ;;		_main
  4048 ;; This function uses a non-reentrant model
  4049 ;;
  4050                           
  4051     0F5D                     ___lwmod:	
  4052                           ;psect for function ___lwmod
  4053                           
  4054     0F5D                     l2636:	
  4055                           ;incstack = 0
  4056                           ; Regs used in ___lwmod: [wreg+status,2+status,0]
  4057                           
  4058     0F5D  0870               	movf	___lwmod@divisor,w
  4059     0F5E  0471               	iorwf	___lwmod@divisor+1,w
  4060     0F5F  1903               	btfsc	3,2
  4061     0F60  2F62               	goto	u1451
  4062     0F61  2F63               	goto	u1450
  4063     0F62                     u1451:
  4064     0F62  2F8A               	goto	l2654
  4065     0F63                     u1450:
  4066     0F63                     l2638:
  4067     0F63  3001               	movlw	1
  4068     0F64  00F4               	movwf	___lwmod@counter
  4069     0F65  2F6D               	goto	l2644
  4070     0F66                     l2640:
  4071     0F66  3001               	movlw	1
  4072     0F67                     u1465:
  4073     0F67  35F0               	lslf	___lwmod@divisor,f
  4074     0F68  0DF1               	rlf	___lwmod@divisor+1,f
  4075     0F69  0B89               	decfsz	9,f
  4076     0F6A  2F67               	goto	u1465
  4077     0F6B                     l2642:
  4078     0F6B  3001               	movlw	1
  4079     0F6C  07F4               	addwf	___lwmod@counter,f
  4080     0F6D                     l2644:
  4081     0F6D  1FF1               	btfss	___lwmod@divisor+1,7
  4082     0F6E  2F70               	goto	u1471
  4083     0F6F  2F71               	goto	u1470
  4084     0F70                     u1471:
  4085     0F70  2F66               	goto	l2640
  4086     0F71                     u1470:
  4087     0F71                     l2646:
  4088     0F71  0871               	movf	___lwmod@divisor+1,w
  4089     0F72  0273               	subwf	___lwmod@dividend+1,w
  4090     0F73  1D03               	skipz
  4091     0F74  2F77               	goto	u1485
  4092     0F75  0870               	movf	___lwmod@divisor,w
  4093     0F76  0272               	subwf	___lwmod@dividend,w
  4094     0F77                     u1485:
  4095     0F77  1C03               	skipc
  4096     0F78  2F7A               	goto	u1481
  4097     0F79  2F7B               	goto	u1480
  4098     0F7A                     u1481:
  4099     0F7A  2F7F               	goto	l2650
  4100     0F7B                     u1480:
  4101     0F7B                     l2648:
  4102     0F7B  0870               	movf	___lwmod@divisor,w
  4103     0F7C  02F2               	subwf	___lwmod@dividend,f
  4104     0F7D  0871               	movf	___lwmod@divisor+1,w
  4105     0F7E  3BF3               	subwfb	___lwmod@dividend+1,f
  4106     0F7F                     l2650:
  4107     0F7F  3001               	movlw	1
  4108     0F80                     u1495:
  4109     0F80  36F1               	lsrf	___lwmod@divisor+1,f
  4110     0F81  0CF0               	rrf	___lwmod@divisor,f
  4111     0F82  0B89               	decfsz	9,f
  4112     0F83  2F80               	goto	u1495
  4113     0F84                     l2652:
  4114     0F84  3001               	movlw	1
  4115     0F85  02F4               	subwf	___lwmod@counter,f
  4116     0F86  1D03               	btfss	3,2
  4117     0F87  2F89               	goto	u1501
  4118     0F88  2F8A               	goto	u1500
  4119     0F89                     u1501:
  4120     0F89  2F71               	goto	l2646
  4121     0F8A                     u1500:
  4122     0F8A                     l2654:
  4123     0F8A  0873               	movf	___lwmod@dividend+1,w
  4124     0F8B  00F1               	movwf	?___lwmod+1
  4125     0F8C  0872               	movf	___lwmod@dividend,w
  4126     0F8D  00F0               	movwf	?___lwmod
  4127     0F8E                     l1100:
  4128     0F8E  0008               	return
  4129     0F8F                     __end_of___lwmod:
  4130                           
  4131                           	psect	text5
  4132     07C6                     __ptext5:	
  4133 ;; *************** function ___lwdiv *****************
  4134 ;; Defined at:
  4135 ;;		line 5 in file "C:\Program Files\Microchip\xc8\v3.10\pic\sources\c99\common\lwdiv.c"
  4136 ;; Parameters:    Size  Location     Type
  4137 ;;  divisor         2    0[COMMON] unsigned int 
  4138 ;;  dividend        2    2[COMMON] unsigned int 
  4139 ;; Auto vars:     Size  Location     Type
  4140 ;;  quotient        2    4[COMMON] unsigned int 
  4141 ;;  counter         1    6[COMMON] unsigned char 
  4142 ;; Return value:  Size  Location     Type
  4143 ;;                  2    0[COMMON] unsigned int 
  4144 ;; Registers used:
  4145 ;;		wreg, status,2, status,0
  4146 ;; Tracked objects:
  4147 ;;		On entry : 0/0
  4148 ;;		On exit  : 0/0
  4149 ;;		Unchanged: 0/0
  4150 ;; Data sizes:     COMMON   BANK0   BANK1   BANK2   BANK3   BANK4
  4151 ;;      Params:         4       0       0       0       0       0
  4152 ;;      Locals:         3       0       0       0       0       0
  4153 ;;      Temps:          0       0       0       0       0       0
  4154 ;;      Totals:         7       0       0       0       0       0
  4155 ;;Total ram usage:        7 bytes
  4156 ;; Hardware stack levels used: 1
  4157 ;; Hardware stack levels required when called: 4
  4158 ;; This function calls:
  4159 ;;		Nothing
  4160 ;; This function is called by:
  4161 ;;		_TesteEnvio
  4162 ;;		_main
  4163 ;; This function uses a non-reentrant model
  4164 ;;
  4165                           
  4166     07C6                     ___lwdiv:	
  4167                           ;psect for function ___lwdiv
  4168                           
  4169     07C6                     l2610:	
  4170                           ;incstack = 0
  4171                           ; Regs used in ___lwdiv: [wreg+status,2+status,0]
  4172                           
  4173     07C6  01F4               	clrf	___lwdiv@quotient
  4174     07C7  01F5               	clrf	___lwdiv@quotient+1
  4175     07C8                     l2612:
  4176     07C8  0870               	movf	___lwdiv@divisor,w
  4177     07C9  0471               	iorwf	___lwdiv@divisor+1,w
  4178     07CA  1903               	btfsc	3,2
  4179     07CB  2FCD               	goto	u1381
  4180     07CC  2FCE               	goto	u1380
  4181     07CD                     u1381:
  4182     07CD  2FFB               	goto	l2632
  4183     07CE                     u1380:
  4184     07CE                     l2614:
  4185     07CE  3001               	movlw	1
  4186     07CF  00F6               	movwf	___lwdiv@counter
  4187     07D0  2FD8               	goto	l2620
  4188     07D1                     l2616:
  4189     07D1  3001               	movlw	1
  4190     07D2                     u1395:
  4191     07D2  35F0               	lslf	___lwdiv@divisor,f
  4192     07D3  0DF1               	rlf	___lwdiv@divisor+1,f
  4193     07D4  0B89               	decfsz	9,f
  4194     07D5  2FD2               	goto	u1395
  4195     07D6                     l2618:
  4196     07D6  3001               	movlw	1
  4197     07D7  07F6               	addwf	___lwdiv@counter,f
  4198     07D8                     l2620:
  4199     07D8  1FF1               	btfss	___lwdiv@divisor+1,7
  4200     07D9  2FDB               	goto	u1401
  4201     07DA  2FDC               	goto	u1400
  4202     07DB                     u1401:
  4203     07DB  2FD1               	goto	l2616
  4204     07DC                     u1400:
  4205     07DC                     l2622:
  4206     07DC  3001               	movlw	1
  4207     07DD                     u1415:
  4208     07DD  35F4               	lslf	___lwdiv@quotient,f
  4209     07DE  0DF5               	rlf	___lwdiv@quotient+1,f
  4210     07DF  0B89               	decfsz	9,f
  4211     07E0  2FDD               	goto	u1415
  4212     07E1  0871               	movf	___lwdiv@divisor+1,w
  4213     07E2  0273               	subwf	___lwdiv@dividend+1,w
  4214     07E3  1D03               	skipz
  4215     07E4  2FE7               	goto	u1425
  4216     07E5  0870               	movf	___lwdiv@divisor,w
  4217     07E6  0272               	subwf	___lwdiv@dividend,w
  4218     07E7                     u1425:
  4219     07E7  1C03               	skipc
  4220     07E8  2FEA               	goto	u1421
  4221     07E9  2FEB               	goto	u1420
  4222     07EA                     u1421:
  4223     07EA  2FF0               	goto	l2628
  4224     07EB                     u1420:
  4225     07EB                     l2624:
  4226     07EB  0870               	movf	___lwdiv@divisor,w
  4227     07EC  02F2               	subwf	___lwdiv@dividend,f
  4228     07ED  0871               	movf	___lwdiv@divisor+1,w
  4229     07EE  3BF3               	subwfb	___lwdiv@dividend+1,f
  4230     07EF                     l2626:
  4231     07EF  1474               	bsf	___lwdiv@quotient,0
  4232     07F0                     l2628:
  4233     07F0  3001               	movlw	1
  4234     07F1                     u1435:
  4235     07F1  36F1               	lsrf	___lwdiv@divisor+1,f
  4236     07F2  0CF0               	rrf	___lwdiv@divisor,f
  4237     07F3  0B89               	decfsz	9,f
  4238     07F4  2FF1               	goto	u1435
  4239     07F5                     l2630:
  4240     07F5  3001               	movlw	1
  4241     07F6  02F6               	subwf	___lwdiv@counter,f
  4242     07F7  1D03               	btfss	3,2
  4243     07F8  2FFA               	goto	u1441
  4244     07F9  2FFB               	goto	u1440
  4245     07FA                     u1441:
  4246     07FA  2FDC               	goto	l2622
  4247     07FB                     u1440:
  4248     07FB                     l2632:
  4249     07FB  0875               	movf	___lwdiv@quotient+1,w
  4250     07FC  00F1               	movwf	?___lwdiv+1
  4251     07FD  0874               	movf	___lwdiv@quotient,w
  4252     07FE  00F0               	movwf	?___lwdiv
  4253     07FF                     l1090:
  4254     07FF  0008               	return
  4255     0800                     __end_of___lwdiv:
  4256                           
  4257                           	psect	text6
  4258     0F2D                     __ptext6:	
  4259 ;; *************** function _SM_MODORX *****************
  4260 ;; Defined at:
  4261 ;;		line 177 in file "main.c"
  4262 ;; Parameters:    Size  Location     Type
  4263 ;;  ch              1    wreg     unsigned char 
  4264 ;; Auto vars:     Size  Location     Type
  4265 ;;  ch              1    0[COMMON] unsigned char 
  4266 ;; Return value:  Size  Location     Type
  4267 ;;                  1    wreg      void 
  4268 ;; Registers used:
  4269 ;;		wreg, fsr0l, fsr0h, fsr1l, fsr1h, status,2, status,0, pclath, cstack
  4270 ;; Tracked objects:
  4271 ;;		On entry : 0/0
  4272 ;;		On exit  : 0/0
  4273 ;;		Unchanged: 0/0
  4274 ;; Data sizes:     COMMON   BANK0   BANK1   BANK2   BANK3   BANK4
  4275 ;;      Params:         0       0       0       0       0       0
  4276 ;;      Locals:         0       0       0       0       0       0
  4277 ;;      Temps:          2       0       0       0       0       0
  4278 ;;      Totals:         2       0       0       0       0       0
  4279 ;;Total ram usage:        2 bytes
  4280 ;; Hardware stack levels used: 1
  4281 ;; Hardware stack levels required when called: 4
  4282 ;; This function calls:
  4283 ;;		_EUSART_Reset
  4284 ;;		_EUSART_Write
  4285 ;; This function is called by:
  4286 ;;		_TesteEnvio
  4287 ;;		_main
  4288 ;; This function uses a non-reentrant model
  4289 ;;
  4290                           
  4291     0F2D                     _SM_MODORX:	
  4292                           ;psect for function _SM_MODORX
  4293                           
  4294     0F2D                     l2584:	
  4295                           ;incstack = 0
  4296                           ; Regs used in _SM_MODORX: [wreg-fsr1h+status,2+status,0+pclath+cstack]
  4297                           
  4298                           
  4299                           ;main.c: 177: void SM_MODORX(uint8_t ch);main.c: 178: {;main.c: 179:     EUSART_Reset();
  4300     0F2D  318F  278F  318F   	fcall	_EUSART_Reset
  4301     0F30                     l2586:
  4302                           
  4303                           ;main.c: 180:     for (loop=0; _RXC22[loop]!=0; loop++) EUSART_Write (_RXC22[loop]);
  4304     0F30  0024               	movlb	4	; select bank4
  4305     0F31  01AC               	clrf	_loop^(0+512)
  4306     0F32  2F41               	goto	l2592
  4307     0F33                     l2588:
  4308     0F33  082C               	movf	_loop^(0+512),w
  4309     0F34  3E3B               	addlw	low (__RXC22| (0+32768))
  4310     0F35  0084               	movwf	4
  4311     0F36  3088               	movlw	high (__RXC22| (0+32768))
  4312     0F37  1803               	skipnc
  4313     0F38  3E01               	addlw	1
  4314     0F39  0085               	movwf	5
  4315     0F3A  0800               	movf	0,w	;code access
  4316     0F3B  318E  2680  318F   	fcall	_EUSART_Write
  4317     0F3E                     l2590:
  4318     0F3E  3001               	movlw	1
  4319     0F3F  0024               	movlb	4	; select bank4
  4320     0F40  07AC               	addwf	_loop^(0+512),f
  4321     0F41                     l2592:
  4322     0F41  082C               	movf	_loop^(0+512),w
  4323     0F42  3E3B               	addlw	low (__RXC22| (0+32768))
  4324     0F43  0084               	movwf	4
  4325     0F44  3088               	movlw	high (__RXC22| (0+32768))
  4326     0F45  1803               	skipnc
  4327     0F46  3E01               	addlw	1
  4328     0F47  0085               	movwf	5
  4329     0F48  0012               	moviw fsr0++
  4330     0F49  1D03               	btfss	3,2
  4331     0F4A  2F4C               	goto	u1361
  4332     0F4B  2F4D               	goto	u1360
  4333     0F4C                     u1361:
  4334     0F4C  2F33               	goto	l2588
  4335     0F4D                     u1360:
  4336     0F4D                     l2594:
  4337                           
  4338                           ;main.c: 181:     _delay((unsigned long)((100)*(16000000/4000.0)));
  4339     0F4D  3003               	movlw	3
  4340     0F4E  00F2               	movwf	??_SM_MODORX+1
  4341     0F4F  3008               	movlw	8
  4342     0F50  00F1               	movwf	??_SM_MODORX
  4343     0F51  3077               	movlw	119
  4344     0F52                     u2217:
  4345     0F52  0B89               	decfsz	9,f
  4346     0F53  2F52               	goto	u2217
  4347     0F54  0BF1               	decfsz	??_SM_MODORX,f
  4348     0F55  2F52               	goto	u2217
  4349     0F56  0BF2               	decfsz	??_SM_MODORX+1,f
  4350     0F57  2F52               	goto	u2217
  4351     0F58  0000               	nop
  4352     0F59                     l2596:
  4353                           
  4354                           ;main.c: 182:     EUSART_Reset();
  4355     0F59  318F  278F  318F   	fcall	_EUSART_Reset
  4356     0F5C                     l548:
  4357     0F5C  0008               	return
  4358     0F5D                     __end_of_SM_MODORX:
  4359                           
  4360                           	psect	text7
  4361     0648                     __ptext7:	
  4362 ;; *************** function _TX_Lora *****************
  4363 ;; Defined at:
  4364 ;;		line 219 in file "main.c"
  4365 ;; Parameters:    Size  Location     Type
  4366 ;;		None
  4367 ;; Auto vars:     Size  Location     Type
  4368 ;;		None
  4369 ;; Return value:  Size  Location     Type
  4370 ;;                  1    wreg      void 
  4371 ;; Registers used:
  4372 ;;		wreg, fsr0l, fsr0h, fsr1l, fsr1h, status,2, status,0, pclath, cstack
  4373 ;; Tracked objects:
  4374 ;;		On entry : 0/0
  4375 ;;		On exit  : 0/0
  4376 ;;		Unchanged: 0/0
  4377 ;; Data sizes:     COMMON   BANK0   BANK1   BANK2   BANK3   BANK4
  4378 ;;      Params:         0       0       0       0       0       0
  4379 ;;      Locals:         0       0       0       0       0       0
  4380 ;;      Temps:          1       0       0       0       0       0
  4381 ;;      Totals:         1       0       0       0       0       0
  4382 ;;Total ram usage:        1 bytes
  4383 ;; Hardware stack levels used: 1
  4384 ;; Hardware stack levels required when called: 5
  4385 ;; This function calls:
  4386 ;;		_EUSART_Reset
  4387 ;;		_EUSART_Write
  4388 ;;		_Espera_TxOk
  4389 ;;		_ModuloOn
  4390 ;;		_SM_CFOFF
  4391 ;;		_SM_CONFIGRADIO
  4392 ;; This function is called by:
  4393 ;;		_main
  4394 ;; This function uses a non-reentrant model
  4395 ;;
  4396                           
  4397     0648                     _TX_Lora:	
  4398                           ;psect for function _TX_Lora
  4399                           
  4400     0648                     l2818:	
  4401                           ;incstack = 0
  4402                           ; Regs used in _TX_Lora: [wreg-fsr1h+status,2+status,0+pclath+cstack]
  4403                           
  4404                           
  4405                           ;main.c: 221:     __nop();
  4406     0648  0000               	nop
  4407     0649                     l573:	
  4408                           ;main.c: 223:     do { LATAbits.LATA6 = 1; } while(0);
  4409                           
  4410     0649  0022               	movlb	2	; select bank2
  4411     064A  170C               	bsf	12,6	;volatile
  4412     064B                     l2820:
  4413                           
  4414                           ;main.c: 226:     ModuloOn();
  4415     064B  318E  265B  3186   	fcall	_ModuloOn
  4416     064E                     l2822:
  4417                           
  4418                           ;main.c: 228:     SM_CFOFF();
  4419     064E  318E  26D3  3186   	fcall	_SM_CFOFF
  4420     0651                     l2824:
  4421                           
  4422                           ;main.c: 229:     __nop();
  4423     0651  0000               	nop
  4424     0652                     l2826:
  4425                           
  4426                           ;main.c: 230:     SM_CONFIGRADIO(22);
  4427     0652  3016               	movlw	22
  4428     0653  318F  2700  3186   	fcall	_SM_CONFIGRADIO
  4429     0656                     l2828:
  4430                           
  4431                           ;main.c: 231:     __nop();
  4432     0656  0000               	nop
  4433     0657                     l2830:
  4434                           
  4435                           ;main.c: 234:     EUSART_Reset();
  4436     0657  318F  278F  3186   	fcall	_EUSART_Reset
  4437     065A                     l2832:
  4438                           
  4439                           ;main.c: 235:     for (loop=0; _TXSTART22[loop]!=0; loop++) EUSART_Write (_TXSTART22[loo
      +                          p]);
  4440     065A  0024               	movlb	4	; select bank4
  4441     065B  01AC               	clrf	_loop^(0+512)
  4442     065C  2E6B               	goto	l2838
  4443     065D                     l2834:
  4444     065D  082C               	movf	_loop^(0+512),w
  4445     065E  3E4E               	addlw	low (__TXSTART22| (0+32768))
  4446     065F  0084               	movwf	4
  4447     0660  3088               	movlw	high (__TXSTART22| (0+32768))
  4448     0661  1803               	skipnc
  4449     0662  3E01               	addlw	1
  4450     0663  0085               	movwf	5
  4451     0664  0800               	movf	0,w	;code access
  4452     0665  318E  2680  3186   	fcall	_EUSART_Write
  4453     0668                     l2836:
  4454     0668  3001               	movlw	1
  4455     0669  0024               	movlb	4	; select bank4
  4456     066A  07AC               	addwf	_loop^(0+512),f
  4457     066B                     l2838:
  4458     066B  082C               	movf	_loop^(0+512),w
  4459     066C  3E4E               	addlw	low (__TXSTART22| (0+32768))
  4460     066D  0084               	movwf	4
  4461     066E  3088               	movlw	high (__TXSTART22| (0+32768))
  4462     066F  1803               	skipnc
  4463     0670  3E01               	addlw	1
  4464     0671  0085               	movwf	5
  4465     0672  0012               	moviw fsr0++
  4466     0673  1D03               	btfss	3,2
  4467     0674  2E76               	goto	u1591
  4468     0675  2E77               	goto	u1590
  4469     0676                     u1591:
  4470     0676  2E5D               	goto	l2834
  4471     0677                     u1590:
  4472     0677                     l2840:
  4473                           
  4474                           ;main.c: 237:     EUSART_Write(pacoteTRX[ 0]);
  4475     0677  0021               	movlb	1	; select bank1
  4476     0678  0840               	movf	_pacoteTRX^(0+128),w	;volatile
  4477     0679  318E  2680  3186   	fcall	_EUSART_Write
  4478                           
  4479                           ;main.c: 238:     EUSART_Write(pacoteTRX[ 1]);
  4480     067C  0021               	movlb	1	; select bank1
  4481     067D  0841               	movf	(_pacoteTRX^(0+128)+1),w	;volatile
  4482     067E  318E  2680  3186   	fcall	_EUSART_Write
  4483                           
  4484                           ;main.c: 239:     EUSART_Write(pacoteTRX[ 2]);
  4485     0681  0021               	movlb	1	; select bank1
  4486     0682  0842               	movf	(_pacoteTRX^(0+128)+2),w	;volatile
  4487     0683  318E  2680  3186   	fcall	_EUSART_Write
  4488                           
  4489                           ;main.c: 240:     EUSART_Write(pacoteTRX[ 3]);
  4490     0686  0021               	movlb	1	; select bank1
  4491     0687  0843               	movf	(_pacoteTRX^(0+128)+3),w	;volatile
  4492     0688  318E  2680  3186   	fcall	_EUSART_Write
  4493                           
  4494                           ;main.c: 241:     EUSART_Write(pacoteTRX[ 4]);
  4495     068B  0021               	movlb	1	; select bank1
  4496     068C  0844               	movf	(_pacoteTRX^(0+128)+4),w	;volatile
  4497     068D  318E  2680  3186   	fcall	_EUSART_Write
  4498                           
  4499                           ;main.c: 242:     EUSART_Write(pacoteTRX[ 5]);
  4500     0690  0021               	movlb	1	; select bank1
  4501     0691  0845               	movf	(_pacoteTRX^(0+128)+5),w	;volatile
  4502     0692  318E  2680  3186   	fcall	_EUSART_Write
  4503                           
  4504                           ;main.c: 243:     EUSART_Write(pacoteTRX[ 6]);
  4505     0695  0021               	movlb	1	; select bank1
  4506     0696  0846               	movf	(_pacoteTRX^(0+128)+6),w	;volatile
  4507     0697  318E  2680  3186   	fcall	_EUSART_Write
  4508                           
  4509                           ;main.c: 244:     EUSART_Write(pacoteTRX[ 7]);
  4510     069A  0021               	movlb	1	; select bank1
  4511     069B  0847               	movf	(_pacoteTRX^(0+128)+7),w	;volatile
  4512     069C  318E  2680  3186   	fcall	_EUSART_Write
  4513                           
  4514                           ;main.c: 245:     EUSART_Write(pacoteTRX[ 8]);
  4515     069F  0021               	movlb	1	; select bank1
  4516     06A0  0848               	movf	(_pacoteTRX^(0+128)+8),w	;volatile
  4517     06A1  318E  2680  3186   	fcall	_EUSART_Write
  4518                           
  4519                           ;main.c: 246:     EUSART_Write(pacoteTRX[ 9]);
  4520     06A4  0021               	movlb	1	; select bank1
  4521     06A5  0849               	movf	(_pacoteTRX^(0+128)+9),w	;volatile
  4522     06A6  318E  2680  3186   	fcall	_EUSART_Write
  4523                           
  4524                           ;main.c: 247:     EUSART_Write(pacoteTRX[10]);
  4525     06A9  0021               	movlb	1	; select bank1
  4526     06AA  084A               	movf	(_pacoteTRX^(0+128)+10),w	;volatile
  4527     06AB  318E  2680  3186   	fcall	_EUSART_Write
  4528                           
  4529                           ;main.c: 248:     EUSART_Write(pacoteTRX[11]);
  4530     06AE  0021               	movlb	1	; select bank1
  4531     06AF  084B               	movf	(_pacoteTRX^(0+128)+11),w	;volatile
  4532     06B0  318E  2680  3186   	fcall	_EUSART_Write
  4533                           
  4534                           ;main.c: 249:     EUSART_Write(pacoteTRX[12]);
  4535     06B3  0021               	movlb	1	; select bank1
  4536     06B4  084C               	movf	(_pacoteTRX^(0+128)+12),w	;volatile
  4537     06B5  318E  2680  3186   	fcall	_EUSART_Write
  4538                           
  4539                           ;main.c: 250:     EUSART_Write(pacoteTRX[13]);
  4540     06B8  0021               	movlb	1	; select bank1
  4541     06B9  084D               	movf	(_pacoteTRX^(0+128)+13),w	;volatile
  4542     06BA  318E  2680  3186   	fcall	_EUSART_Write
  4543                           
  4544                           ;main.c: 252:     EUSART_Write (0x0D);
  4545     06BD  300D               	movlw	13
  4546     06BE  318E  2680  3186   	fcall	_EUSART_Write
  4547     06C1                     l2842:
  4548                           
  4549                           ;main.c: 253:     Espera_TxOk();
  4550     06C1  318E  2639  3186   	fcall	_Espera_TxOk
  4551     06C4                     l2844:
  4552                           
  4553                           ;main.c: 254:     __nop();
  4554     06C4  0000               	nop
  4555     06C5                     l2846:
  4556     06C5  0022               	movlb	2	; select bank2
  4557     06C6  130C               	bcf	12,6	;volatile
  4558     06C7                     l580:
  4559     06C7  0008               	return
  4560     06C8                     __end_of_TX_Lora:
  4561                           
  4562                           	psect	text8
  4563     0F00                     __ptext8:	
  4564 ;; *************** function _SM_CONFIGRADIO *****************
  4565 ;; Defined at:
  4566 ;;		line 171 in file "main.c"
  4567 ;; Parameters:    Size  Location     Type
  4568 ;;  ch              1    wreg     unsigned char 
  4569 ;; Auto vars:     Size  Location     Type
  4570 ;;  ch              1    0[COMMON] unsigned char 
  4571 ;; Return value:  Size  Location     Type
  4572 ;;                  1    wreg      void 
  4573 ;; Registers used:
  4574 ;;		wreg, fsr0l, fsr0h, fsr1l, fsr1h, status,2, status,0, pclath, cstack
  4575 ;; Tracked objects:
  4576 ;;		On entry : 0/0
  4577 ;;		On exit  : 0/0
  4578 ;;		Unchanged: 0/0
  4579 ;; Data sizes:     COMMON   BANK0   BANK1   BANK2   BANK3   BANK4
  4580 ;;      Params:         0       0       0       0       0       0
  4581 ;;      Locals:         0       0       0       0       0       0
  4582 ;;      Temps:          2       0       0       0       0       0
  4583 ;;      Totals:         2       0       0       0       0       0
  4584 ;;Total ram usage:        2 bytes
  4585 ;; Hardware stack levels used: 1
  4586 ;; Hardware stack levels required when called: 4
  4587 ;; This function calls:
  4588 ;;		_EUSART_Reset
  4589 ;;		_EUSART_Write
  4590 ;; This function is called by:
  4591 ;;		_TX_Lora
  4592 ;;		_TesteEnvio
  4593 ;;		_main
  4594 ;; This function uses a non-reentrant model
  4595 ;;
  4596                           
  4597     0F00                     _SM_CONFIGRADIO:	
  4598                           ;psect for function _SM_CONFIGRADIO
  4599                           
  4600     0F00                     l2572:	
  4601                           ;incstack = 0
  4602                           ; Regs used in _SM_CONFIGRADIO: [wreg-fsr1h+status,2+status,0+pclath+cstack]
  4603                           
  4604                           
  4605                           ;main.c: 171: void SM_CONFIGRADIO(uint8_t ch);main.c: 172: {;main.c: 173:     EUSART_Res
      +                          et();
  4606     0F00  318F  278F  318F   	fcall	_EUSART_Reset
  4607     0F03                     l2574:
  4608                           
  4609                           ;main.c: 174:     for (loop=0; _CFC22[loop]!=0; loop++) EUSART_Write (_CFC22[loop]);
  4610     0F03  0024               	movlb	4	; select bank4
  4611     0F04  01AC               	clrf	_loop^(0+512)
  4612     0F05  2F14               	goto	l2580
  4613     0F06                     l2576:
  4614     0F06  082C               	movf	_loop^(0+512),w
  4615     0F07  3E00               	addlw	low (__CFC22| (0+32768))
  4616     0F08  0084               	movwf	4
  4617     0F09  3088               	movlw	high (__CFC22| (0+32768))
  4618     0F0A  1803               	skipnc
  4619     0F0B  3E01               	addlw	1
  4620     0F0C  0085               	movwf	5
  4621     0F0D  0800               	movf	0,w	;code access
  4622     0F0E  318E  2680  318F   	fcall	_EUSART_Write
  4623     0F11                     l2578:
  4624     0F11  3001               	movlw	1
  4625     0F12  0024               	movlb	4	; select bank4
  4626     0F13  07AC               	addwf	_loop^(0+512),f
  4627     0F14                     l2580:
  4628     0F14  082C               	movf	_loop^(0+512),w
  4629     0F15  3E00               	addlw	low (__CFC22| (0+32768))
  4630     0F16  0084               	movwf	4
  4631     0F17  3088               	movlw	high (__CFC22| (0+32768))
  4632     0F18  1803               	skipnc
  4633     0F19  3E01               	addlw	1
  4634     0F1A  0085               	movwf	5
  4635     0F1B  0012               	moviw fsr0++
  4636     0F1C  1D03               	btfss	3,2
  4637     0F1D  2F1F               	goto	u1351
  4638     0F1E  2F20               	goto	u1350
  4639     0F1F                     u1351:
  4640     0F1F  2F06               	goto	l2576
  4641     0F20                     u1350:
  4642     0F20                     l2582:
  4643                           
  4644                           ;main.c: 175:     _delay((unsigned long)((100)*(16000000/4000.0)));
  4645     0F20  3003               	movlw	3
  4646     0F21  00F2               	movwf	??_SM_CONFIGRADIO+1
  4647     0F22  3008               	movlw	8
  4648     0F23  00F1               	movwf	??_SM_CONFIGRADIO
  4649     0F24  3077               	movlw	119
  4650     0F25                     u2227:
  4651     0F25  0B89               	decfsz	9,f
  4652     0F26  2F25               	goto	u2227
  4653     0F27  0BF1               	decfsz	??_SM_CONFIGRADIO,f
  4654     0F28  2F25               	goto	u2227
  4655     0F29  0BF2               	decfsz	??_SM_CONFIGRADIO+1,f
  4656     0F2A  2F25               	goto	u2227
  4657     0F2B  0000               	nop
  4658     0F2C                     l542:
  4659     0F2C  0008               	return
  4660     0F2D                     __end_of_SM_CONFIGRADIO:
  4661                           
  4662                           	psect	text9
  4663     0ED3                     __ptext9:	
  4664 ;; *************** function _SM_CFOFF *****************
  4665 ;; Defined at:
  4666 ;;		line 184 in file "main.c"
  4667 ;; Parameters:    Size  Location     Type
  4668 ;;		None
  4669 ;; Auto vars:     Size  Location     Type
  4670 ;;		None
  4671 ;; Return value:  Size  Location     Type
  4672 ;;                  1    wreg      void 
  4673 ;; Registers used:
  4674 ;;		wreg, fsr0l, fsr0h, fsr1l, fsr1h, status,2, status,0, pclath, cstack
  4675 ;; Tracked objects:
  4676 ;;		On entry : 0/0
  4677 ;;		On exit  : 0/0
  4678 ;;		Unchanged: 0/0
  4679 ;; Data sizes:     COMMON   BANK0   BANK1   BANK2   BANK3   BANK4
  4680 ;;      Params:         0       0       0       0       0       0
  4681 ;;      Locals:         0       0       0       0       0       0
  4682 ;;      Temps:          2       0       0       0       0       0
  4683 ;;      Totals:         2       0       0       0       0       0
  4684 ;;Total ram usage:        2 bytes
  4685 ;; Hardware stack levels used: 1
  4686 ;; Hardware stack levels required when called: 4
  4687 ;; This function calls:
  4688 ;;		_EUSART_Reset
  4689 ;;		_EUSART_Write
  4690 ;; This function is called by:
  4691 ;;		_TX_Lora
  4692 ;;		_TesteEnvio
  4693 ;;		_main
  4694 ;; This function uses a non-reentrant model
  4695 ;;
  4696                           
  4697     0ED3                     _SM_CFOFF:	
  4698                           ;psect for function _SM_CFOFF
  4699                           
  4700     0ED3                     l2598:	
  4701                           ;incstack = 0
  4702                           ; Regs used in _SM_CFOFF: [wreg-fsr1h+status,2+status,0+pclath+cstack]
  4703                           
  4704                           
  4705                           ;main.c: 186:     EUSART_Reset();
  4706     0ED3  318F  278F  318E   	fcall	_EUSART_Reset
  4707     0ED6                     l2600:
  4708                           
  4709                           ;main.c: 187:     for (loop=0; _CFOFF[loop]!=0; loop++) EUSART_Write (_CFOFF[loop]);
  4710     0ED6  0024               	movlb	4	; select bank4
  4711     0ED7  01AC               	clrf	_loop^(0+512)
  4712     0ED8  2EE7               	goto	l2606
  4713     0ED9                     l2602:
  4714     0ED9  082C               	movf	_loop^(0+512),w
  4715     0EDA  3E61               	addlw	low (__CFOFF| (0+32768))
  4716     0EDB  0084               	movwf	4
  4717     0EDC  3088               	movlw	high (__CFOFF| (0+32768))
  4718     0EDD  1803               	skipnc
  4719     0EDE  3E01               	addlw	1
  4720     0EDF  0085               	movwf	5
  4721     0EE0  0800               	movf	0,w	;code access
  4722     0EE1  318E  2680  318E   	fcall	_EUSART_Write
  4723     0EE4                     l2604:
  4724     0EE4  3001               	movlw	1
  4725     0EE5  0024               	movlb	4	; select bank4
  4726     0EE6  07AC               	addwf	_loop^(0+512),f
  4727     0EE7                     l2606:
  4728     0EE7  082C               	movf	_loop^(0+512),w
  4729     0EE8  3E61               	addlw	low (__CFOFF| (0+32768))
  4730     0EE9  0084               	movwf	4
  4731     0EEA  3088               	movlw	high (__CFOFF| (0+32768))
  4732     0EEB  1803               	skipnc
  4733     0EEC  3E01               	addlw	1
  4734     0EED  0085               	movwf	5
  4735     0EEE  0012               	moviw fsr0++
  4736     0EEF  1D03               	btfss	3,2
  4737     0EF0  2EF2               	goto	u1371
  4738     0EF1  2EF3               	goto	u1370
  4739     0EF2                     u1371:
  4740     0EF2  2ED9               	goto	l2602
  4741     0EF3                     u1370:
  4742     0EF3                     l2608:
  4743                           
  4744                           ;main.c: 188:     _delay((unsigned long)((100)*(16000000/4000.0)));
  4745     0EF3  3003               	movlw	3
  4746     0EF4  00F2               	movwf	??_SM_CFOFF+1
  4747     0EF5  3008               	movlw	8
  4748     0EF6  00F1               	movwf	??_SM_CFOFF
  4749     0EF7  3077               	movlw	119
  4750     0EF8                     u2237:
  4751     0EF8  0B89               	decfsz	9,f
  4752     0EF9  2EF8               	goto	u2237
  4753     0EFA  0BF1               	decfsz	??_SM_CFOFF,f
  4754     0EFB  2EF8               	goto	u2237
  4755     0EFC  0BF2               	decfsz	??_SM_CFOFF+1,f
  4756     0EFD  2EF8               	goto	u2237
  4757     0EFE  0000               	nop
  4758     0EFF                     l554:
  4759     0EFF  0008               	return
  4760     0F00                     __end_of_SM_CFOFF:
  4761                           
  4762                           	psect	text10
  4763     0E39                     __ptext10:	
  4764 ;; *************** function _Espera_TxOk *****************
  4765 ;; Defined at:
  4766 ;;		line 150 in file "main.c"
  4767 ;; Parameters:    Size  Location     Type
  4768 ;;		None
  4769 ;; Auto vars:     Size  Location     Type
  4770 ;;		None
  4771 ;; Return value:  Size  Location     Type
  4772 ;;                  1    wreg      unsigned char 
  4773 ;; Registers used:
  4774 ;;		wreg, status,2
  4775 ;; Tracked objects:
  4776 ;;		On entry : 0/0
  4777 ;;		On exit  : 0/0
  4778 ;;		Unchanged: 0/0
  4779 ;; Data sizes:     COMMON   BANK0   BANK1   BANK2   BANK3   BANK4
  4780 ;;      Params:         0       0       0       0       0       0
  4781 ;;      Locals:         0       0       0       0       0       0
  4782 ;;      Temps:          1       0       0       0       0       0
  4783 ;;      Totals:         1       0       0       0       0       0
  4784 ;;Total ram usage:        1 bytes
  4785 ;; Hardware stack levels used: 1
  4786 ;; Hardware stack levels required when called: 4
  4787 ;; This function calls:
  4788 ;;		Nothing
  4789 ;; This function is called by:
  4790 ;;		_TX_Lora
  4791 ;; This function uses a non-reentrant model
  4792 ;;
  4793                           
  4794     0E39                     _Espera_TxOk:	
  4795                           ;psect for function _Espera_TxOk
  4796                           
  4797     0E39                     l2552:	
  4798                           ;incstack = 0
  4799                           ; Regs used in _Espera_TxOk: [wreg+status,2]
  4800                           
  4801                           
  4802                           ;main.c: 152:     temp16=0;
  4803     0E39  0023               	movlb	3	; select bank3
  4804     0E3A  01E6               	clrf	_temp16^(0+384)
  4805     0E3B  01E7               	clrf	(_temp16+1)^(0+384)
  4806                           
  4807                           ;main.c: 153:     while (indice<36)
  4808     0E3C  2E54               	goto	l2558
  4809     0E3D                     l2554:
  4810                           
  4811                           ;main.c: 154:     {;main.c: 155:         _delay((unsigned long)((1)*(16000000/4000.0)));
  4812     0E3D  3006               	movlw	6
  4813     0E3E  00F0               	movwf	??_Espera_TxOk
  4814     0E3F  3030               	movlw	48
  4815     0E40                     u2247:
  4816     0E40  0B89               	decfsz	9,f
  4817     0E41  2E40               	goto	u2247
  4818     0E42  0BF0               	decfsz	??_Espera_TxOk,f
  4819     0E43  2E40               	goto	u2247
  4820     0E44  3200               	nop2
  4821                           
  4822                           ;main.c: 156:         if (++temp16>5000)
  4823     0E45  3001               	movlw	1
  4824     0E46  0023               	movlb	3	; select bank3
  4825     0E47  07E6               	addwf	_temp16^(0+384),f
  4826     0E48  3000               	movlw	0
  4827     0E49  3DE7               	addwfc	(_temp16+1)^(0+384),f
  4828     0E4A  3013               	movlw	19
  4829     0E4B  0267               	subwf	(_temp16+1)^(0+384),w
  4830     0E4C  3089               	movlw	137
  4831     0E4D  1903               	skipnz
  4832     0E4E  0266               	subwf	_temp16^(0+384),w
  4833     0E4F  1C03               	skipc
  4834     0E50  2E52               	goto	u1321
  4835     0E51  2E53               	goto	u1320
  4836     0E52                     u1321:
  4837     0E52  2E54               	goto	l2558
  4838     0E53                     u1320:
  4839     0E53  2E5A               	goto	l529
  4840     0E54                     l2558:
  4841                           
  4842                           ;main.c: 153:     while (indice<36)
  4843     0E54  3024               	movlw	36
  4844     0E55  027D               	subwf	_indice,w	;volatile
  4845     0E56  1C03               	skipc
  4846     0E57  2E59               	goto	u1331
  4847     0E58  2E5A               	goto	u1330
  4848     0E59                     u1331:
  4849     0E59  2E3D               	goto	l2554
  4850     0E5A                     u1330:
  4851     0E5A                     l529:
  4852     0E5A  0008               	return
  4853     0E5B                     __end_of_Espera_TxOk:
  4854                           
  4855                           	psect	text11
  4856     0743                     __ptext11:	
  4857 ;; *************** function _SM_START *****************
  4858 ;; Defined at:
  4859 ;;		line 197 in file "main.c"
  4860 ;; Parameters:    Size  Location     Type
  4861 ;;		None
  4862 ;; Auto vars:     Size  Location     Type
  4863 ;;		None
  4864 ;; Return value:  Size  Location     Type
  4865 ;;                  1    wreg      unsigned char 
  4866 ;; Registers used:
  4867 ;;		wreg, fsr0l, fsr0h, fsr1l, fsr1h, status,2, status,0, pclath, cstack
  4868 ;; Tracked objects:
  4869 ;;		On entry : 0/0
  4870 ;;		On exit  : 0/0
  4871 ;;		Unchanged: 0/0
  4872 ;; Data sizes:     COMMON   BANK0   BANK1   BANK2   BANK3   BANK4
  4873 ;;      Params:         0       0       0       0       0       0
  4874 ;;      Locals:         0       0       0       0       0       0
  4875 ;;      Temps:          2       0       0       0       0       0
  4876 ;;      Totals:         2       0       0       0       0       0
  4877 ;;Total ram usage:        2 bytes
  4878 ;; Hardware stack levels used: 1
  4879 ;; Hardware stack levels required when called: 6
  4880 ;; This function calls:
  4881 ;;		_EUSART_Reset
  4882 ;;		_ModuloOn
  4883 ;;		_SM_RESET
  4884 ;; This function is called by:
  4885 ;;		_main
  4886 ;; This function uses a non-reentrant model
  4887 ;;
  4888                           
  4889     0743                     _SM_START:	
  4890                           ;psect for function _SM_START
  4891                           
  4892     0743                     l2786:	
  4893                           ;incstack = 0
  4894                           ; Regs used in _SM_START: [wreg-fsr1h+status,2+status,0+pclath+cstack]
  4895                           
  4896                           
  4897                           ;main.c: 199:     EUSART_Reset();
  4898     0743  318F  278F  3187   	fcall	_EUSART_Reset
  4899     0746                     l2788:
  4900                           
  4901                           ;main.c: 200:     ModuloOn();
  4902     0746  318E  265B  3187   	fcall	_ModuloOn
  4903     0749                     l2790:
  4904                           
  4905                           ;main.c: 201:     _delay((unsigned long)((3000)*(16000000/4000.0)));
  4906     0749  303D               	movlw	61
  4907     074A  00F4               	movwf	??_SM_START+1
  4908     074B  30E1               	movlw	225
  4909     074C  00F3               	movwf	??_SM_START
  4910     074D  3040               	movlw	64
  4911     074E                     u2257:
  4912     074E  0B89               	decfsz	9,f
  4913     074F  2F4E               	goto	u2257
  4914     0750  0BF3               	decfsz	??_SM_START,f
  4915     0751  2F4E               	goto	u2257
  4916     0752  0BF4               	decfsz	??_SM_START+1,f
  4917     0753  2F4E               	goto	u2257
  4918     0754                     l2792:
  4919                           
  4920                           ;main.c: 202:     __nop();
  4921     0754  0000               	nop
  4922     0755                     l2794:
  4923                           
  4924                           ;main.c: 203:     temp8=0;
  4925     0755  0024               	movlb	4	; select bank4
  4926     0756  01A7               	clrf	_temp8^(0+512)
  4927                           
  4928                           ;main.c: 204:     while (temp8<3)
  4929     0757  2F80               	goto	l2812
  4930     0758                     l2796:
  4931                           
  4932                           ;main.c: 205:     {;main.c: 206:         SM_RESET();
  4933     0758  318E  26A6  3187   	fcall	_SM_RESET
  4934     075B                     l2798:
  4935                           
  4936                           ;main.c: 207:         temp16=0;
  4937     075B  0023               	movlb	3	; select bank3
  4938     075C  01E6               	clrf	_temp16^(0+384)
  4939     075D  01E7               	clrf	(_temp16+1)^(0+384)
  4940                           
  4941                           ;main.c: 208:         while (++temp16<3000)
  4942     075E  2F6F               	goto	l2808
  4943     075F                     l2800:
  4944                           
  4945                           ;main.c: 209:         {;main.c: 210:             _delay((unsigned long)((1)*(16000000/40
      +                          00.0)));
  4946     075F  3006               	movlw	6
  4947     0760  00F3               	movwf	??_SM_START
  4948     0761  3030               	movlw	48
  4949     0762                     u2267:
  4950     0762  0B89               	decfsz	9,f
  4951     0763  2F62               	goto	u2267
  4952     0764  0BF3               	decfsz	??_SM_START,f
  4953     0765  2F62               	goto	u2267
  4954     0766  3200               	nop2
  4955     0767                     l2802:
  4956                           
  4957                           ;main.c: 211:             if (fAtOk)
  4958     0767  0020               	movlb	0	; select bank0
  4959     0768  086D               	movf	_fAtOk,w	;volatile
  4960     0769  1903               	btfsc	3,2
  4961     076A  2F6C               	goto	u1561
  4962     076B  2F6D               	goto	u1560
  4963     076C                     u1561:
  4964     076C  2F6F               	goto	l2808
  4965     076D                     u1560:
  4966     076D                     l2804:
  4967                           
  4968                           ;main.c: 212:                 return fSM_OK;
  4969     076D  3001               	movlw	1
  4970     076E  2F87               	goto	l568
  4971     076F                     l2808:
  4972                           
  4973                           ;main.c: 208:         while (++temp16<3000)
  4974     076F  3001               	movlw	1
  4975     0770  0023               	movlb	3	; select bank3
  4976     0771  07E6               	addwf	_temp16^(0+384),f
  4977     0772  3000               	movlw	0
  4978     0773  3DE7               	addwfc	(_temp16+1)^(0+384),f
  4979     0774  300B               	movlw	11
  4980     0775  0267               	subwf	(_temp16+1)^(0+384),w
  4981     0776  30B8               	movlw	184
  4982     0777  1903               	skipnz
  4983     0778  0266               	subwf	_temp16^(0+384),w
  4984     0779  1C03               	skipc
  4985     077A  2F7C               	goto	u1571
  4986     077B  2F7D               	goto	u1570
  4987     077C                     u1571:
  4988     077C  2F5F               	goto	l2800
  4989     077D                     u1570:
  4990     077D                     l2810:
  4991                           
  4992                           ;main.c: 214:         temp8++;
  4993     077D  3001               	movlw	1
  4994     077E  0024               	movlb	4	; select bank4
  4995     077F  07A7               	addwf	_temp8^(0+512),f
  4996     0780                     l2812:
  4997                           
  4998                           ;main.c: 204:     while (temp8<3)
  4999     0780  3003               	movlw	3
  5000     0781  0227               	subwf	_temp8^(0+512),w
  5001     0782  1C03               	skipc
  5002     0783  2F85               	goto	u1581
  5003     0784  2F86               	goto	u1580
  5004     0785                     u1581:
  5005     0785  2F58               	goto	l2796
  5006     0786                     u1580:
  5007     0786                     l2814:
  5008                           
  5009                           ;main.c: 216:     return fSM_NORADIO;
  5010     0786  3007               	movlw	7
  5011     0787                     l568:
  5012     0787  0008               	return
  5013     0788                     __end_of_SM_START:
  5014                           
  5015                           	psect	text12
  5016     0EA6                     __ptext12:	
  5017 ;; *************** function _SM_RESET *****************
  5018 ;; Defined at:
  5019 ;;		line 165 in file "main.c"
  5020 ;; Parameters:    Size  Location     Type
  5021 ;;		None
  5022 ;; Auto vars:     Size  Location     Type
  5023 ;;		None
  5024 ;; Return value:  Size  Location     Type
  5025 ;;                  1    wreg      void 
  5026 ;; Registers used:
  5027 ;;		wreg, fsr0l, fsr0h, fsr1l, fsr1h, status,2, status,0, pclath, cstack
  5028 ;; Tracked objects:
  5029 ;;		On entry : 0/0
  5030 ;;		On exit  : 0/0
  5031 ;;		Unchanged: 0/0
  5032 ;; Data sizes:     COMMON   BANK0   BANK1   BANK2   BANK3   BANK4
  5033 ;;      Params:         0       0       0       0       0       0
  5034 ;;      Locals:         0       0       0       0       0       0
  5035 ;;      Temps:          2       0       0       0       0       0
  5036 ;;      Totals:         2       0       0       0       0       0
  5037 ;;Total ram usage:        2 bytes
  5038 ;; Hardware stack levels used: 1
  5039 ;; Hardware stack levels required when called: 5
  5040 ;; This function calls:
  5041 ;;		_EUSART_Reset
  5042 ;;		_EUSART_Write
  5043 ;; This function is called by:
  5044 ;;		_SM_START
  5045 ;; This function uses a non-reentrant model
  5046 ;;
  5047                           
  5048     0EA6                     _SM_RESET:	
  5049                           ;psect for function _SM_RESET
  5050                           
  5051     0EA6                     l2560:	
  5052                           ;incstack = 0
  5053                           ; Regs used in _SM_RESET: [wreg-fsr1h+status,2+status,0+pclath+cstack]
  5054                           
  5055                           
  5056                           ;main.c: 167:     EUSART_Reset();
  5057     0EA6  318F  278F  318E   	fcall	_EUSART_Reset
  5058     0EA9                     l2562:
  5059                           
  5060                           ;main.c: 168:     for (loop=0; _RESET[loop]!=0; loop++) EUSART_Write (_RESET[loop]);
  5061     0EA9  0024               	movlb	4	; select bank4
  5062     0EAA  01AC               	clrf	_loop^(0+512)
  5063     0EAB  2EBA               	goto	l2568
  5064     0EAC                     l2564:
  5065     0EAC  082C               	movf	_loop^(0+512),w
  5066     0EAD  3E6A               	addlw	low (__RESET| (0+32768))
  5067     0EAE  0084               	movwf	4
  5068     0EAF  3088               	movlw	high (__RESET| (0+32768))
  5069     0EB0  1803               	skipnc
  5070     0EB1  3E01               	addlw	1
  5071     0EB2  0085               	movwf	5
  5072     0EB3  0800               	movf	0,w	;code access
  5073     0EB4  318E  2680  318E   	fcall	_EUSART_Write
  5074     0EB7                     l2566:
  5075     0EB7  3001               	movlw	1
  5076     0EB8  0024               	movlb	4	; select bank4
  5077     0EB9  07AC               	addwf	_loop^(0+512),f
  5078     0EBA                     l2568:
  5079     0EBA  082C               	movf	_loop^(0+512),w
  5080     0EBB  3E6A               	addlw	low (__RESET| (0+32768))
  5081     0EBC  0084               	movwf	4
  5082     0EBD  3088               	movlw	high (__RESET| (0+32768))
  5083     0EBE  1803               	skipnc
  5084     0EBF  3E01               	addlw	1
  5085     0EC0  0085               	movwf	5
  5086     0EC1  0012               	moviw fsr0++
  5087     0EC2  1D03               	btfss	3,2
  5088     0EC3  2EC5               	goto	u1341
  5089     0EC4  2EC6               	goto	u1340
  5090     0EC5                     u1341:
  5091     0EC5  2EAC               	goto	l2564
  5092     0EC6                     u1340:
  5093     0EC6                     l2570:
  5094                           
  5095                           ;main.c: 169:     _delay((unsigned long)((100)*(16000000/4000.0)));
  5096     0EC6  3003               	movlw	3
  5097     0EC7  00F2               	movwf	??_SM_RESET+1
  5098     0EC8  3008               	movlw	8
  5099     0EC9  00F1               	movwf	??_SM_RESET
  5100     0ECA  3077               	movlw	119
  5101     0ECB                     u2277:
  5102     0ECB  0B89               	decfsz	9,f
  5103     0ECC  2ECB               	goto	u2277
  5104     0ECD  0BF1               	decfsz	??_SM_RESET,f
  5105     0ECE  2ECB               	goto	u2277
  5106     0ECF  0BF2               	decfsz	??_SM_RESET+1,f
  5107     0ED0  2ECB               	goto	u2277
  5108     0ED1  0000               	nop
  5109     0ED2                     l536:
  5110     0ED2  0008               	return
  5111     0ED3                     __end_of_SM_RESET:
  5112                           
  5113                           	psect	text13
  5114     0E80                     __ptext13:	
  5115 ;; *************** function _EUSART_Write *****************
  5116 ;; Defined at:
  5117 ;;		line 161 in file "mcc_generated_files/eusart.c"
  5118 ;; Parameters:    Size  Location     Type
  5119 ;;  txData          1    wreg     unsigned char 
  5120 ;; Auto vars:     Size  Location     Type
  5121 ;;  txData          1    0[COMMON] unsigned char 
  5122 ;; Return value:  Size  Location     Type
  5123 ;;                  1    wreg      void 
  5124 ;; Registers used:
  5125 ;;		wreg, fsr1l, fsr1h, status,2, status,0
  5126 ;; Tracked objects:
  5127 ;;		On entry : 0/0
  5128 ;;		On exit  : 0/0
  5129 ;;		Unchanged: 0/0
  5130 ;; Data sizes:     COMMON   BANK0   BANK1   BANK2   BANK3   BANK4
  5131 ;;      Params:         0       0       0       0       0       0
  5132 ;;      Locals:         1       0       0       0       0       0
  5133 ;;      Temps:          0       0       0       0       0       0
  5134 ;;      Totals:         1       0       0       0       0       0
  5135 ;;Total ram usage:        1 bytes
  5136 ;; Hardware stack levels used: 1
  5137 ;; Hardware stack levels required when called: 4
  5138 ;; This function calls:
  5139 ;;		Nothing
  5140 ;; This function is called by:
  5141 ;;		_SM_RESET
  5142 ;;		_SM_CONFIGRADIO
  5143 ;;		_SM_MODORX
  5144 ;;		_SM_CFOFF
  5145 ;;		_TX_Lora
  5146 ;;		_TesteEnvio
  5147 ;;		_SM_PING
  5148 ;; This function uses a non-reentrant model
  5149 ;;
  5150                           
  5151     0E80                     _EUSART_Write:	
  5152                           ;psect for function _EUSART_Write
  5153                           
  5154                           
  5155                           ;incstack = 0
  5156                           ; Regs used in _EUSART_Write: [wreg+fsr1l+fsr1h+status,2+status,0]
  5157                           ;EUSART_Write@txData stored from wreg
  5158     0E80  00F0               	movwf	EUSART_Write@txData
  5159     0E81                     l2394:
  5160                           
  5161                           ;mcc_generated_files/eusart.c: 161: void EUSART_Write(uint8_t txData);mcc_generated_file
      +                          s/eusart.c: 162: {;mcc_generated_files/eusart.c: 163:     while(0 == eusartTxBufferRemai
      +                          ning)
  5162     0E81  2E83               	goto	l2396
  5163     0E82                     l171:
  5164     0E82  0064               	clrwdt	;# 
  5165     0E83                     l2396:
  5166                           
  5167                           ;mcc_generated_files/eusart.c: 163:     while(0 == eusartTxBufferRemaining)
  5168     0E83  0021               	movlb	1	; select bank1
  5169     0E84  086C               	movf	_eusartTxBufferRemaining^(0+128),w	;volatile
  5170     0E85  1903               	btfsc	3,2
  5171     0E86  2E88               	goto	u1031
  5172     0E87  2E89               	goto	u1030
  5173     0E88                     u1031:
  5174     0E88  2E82               	goto	l171
  5175     0E89                     u1030:
  5176     0E89                     l172:
  5177                           
  5178                           ;mcc_generated_files/eusart.c: 168:     if(0 == PIE1bits.TXIE)
  5179     0E89  1A11               	btfsc	17,4	;volatile
  5180     0E8A  2E8C               	goto	u1041
  5181     0E8B  2E8D               	goto	u1040
  5182     0E8C                     u1041:
  5183     0E8C  2E91               	goto	l173
  5184     0E8D                     u1040:
  5185     0E8D                     l2398:
  5186                           
  5187                           ;mcc_generated_files/eusart.c: 169:     {;mcc_generated_files/eusart.c: 170:         TXR
      +                          EG = txData;
  5188     0E8D  0870               	movf	EUSART_Write@txData,w
  5189     0E8E  0023               	movlb	3	; select bank3
  5190     0E8F  009A               	movwf	26	;volatile
  5191                           
  5192                           ;mcc_generated_files/eusart.c: 171:     }
  5193     0E90  2EA3               	goto	l2410
  5194     0E91                     l173:	
  5195                           ;mcc_generated_files/eusart.c: 172:     else
  5196                           
  5197                           
  5198                           ;mcc_generated_files/eusart.c: 173:     {;mcc_generated_files/eusart.c: 174:         PIE
      +                          1bits.TXIE = 0;
  5199     0E91  1211               	bcf	17,4	;volatile
  5200     0E92                     l2400:
  5201                           
  5202                           ;mcc_generated_files/eusart.c: 175:         eusartTxBuffer[eusartTxHead++] = txData;
  5203     0E92  086E               	movf	_eusartTxHead^(0+128),w
  5204     0E93  3EA0               	addlw	(low (_eusartTxBuffer| 0))& (0+255)
  5205     0E94  0086               	movwf	6
  5206     0E95  0187               	clrf	7
  5207     0E96  0870               	movf	EUSART_Write@txData,w
  5208     0E97  0081               	movwf	1
  5209     0E98                     l2402:
  5210     0E98  3001               	movlw	1
  5211     0E99  07EE               	addwf	_eusartTxHead^(0+128),f	;volatile
  5212     0E9A                     l2404:
  5213                           
  5214                           ;mcc_generated_files/eusart.c: 176:         if(sizeof(eusartTxBuffer) <= eusartTxHead)
  5215     0E9A  3020               	movlw	32
  5216     0E9B  026E               	subwf	_eusartTxHead^(0+128),w	;volatile
  5217     0E9C  1C03               	skipc
  5218     0E9D  2E9F               	goto	u1051
  5219     0E9E  2EA0               	goto	u1050
  5220     0E9F                     u1051:
  5221     0E9F  2EA1               	goto	l2408
  5222     0EA0                     u1050:
  5223     0EA0                     l2406:
  5224                           
  5225                           ;mcc_generated_files/eusart.c: 177:         {;mcc_generated_files/eusart.c: 178:        
      +                               eusartTxHead = 0;
  5226     0EA0  01EE               	clrf	_eusartTxHead^(0+128)	;volatile
  5227     0EA1                     l2408:
  5228                           
  5229                           ;mcc_generated_files/eusart.c: 180:         eusartTxBufferRemaining--;
  5230     0EA1  3001               	movlw	1
  5231     0EA2  02EC               	subwf	_eusartTxBufferRemaining^(0+128),f	;volatile
  5232     0EA3                     l2410:
  5233                           
  5234                           ;mcc_generated_files/eusart.c: 182:     PIE1bits.TXIE = 1;
  5235     0EA3  0021               	movlb	1	; select bank1
  5236     0EA4  1611               	bsf	17,4	;volatile
  5237     0EA5                     l176:
  5238     0EA5  0008               	return
  5239     0EA6                     __end_of_EUSART_Write:
  5240                           
  5241                           	psect	text14
  5242     0F8F                     __ptext14:	
  5243 ;; *************** function _EUSART_Reset *****************
  5244 ;; Defined at:
  5245 ;;		line 59 in file "mcc_generated_files/eusart.c"
  5246 ;; Parameters:    Size  Location     Type
  5247 ;;		None
  5248 ;; Auto vars:     Size  Location     Type
  5249 ;;		None
  5250 ;; Return value:  Size  Location     Type
  5251 ;;                  1    wreg      void 
  5252 ;; Registers used:
  5253 ;;		wreg, fsr1l, fsr1h, status,2, status,0
  5254 ;; Tracked objects:
  5255 ;;		On entry : 0/0
  5256 ;;		On exit  : 0/0
  5257 ;;		Unchanged: 0/0
  5258 ;; Data sizes:     COMMON   BANK0   BANK1   BANK2   BANK3   BANK4
  5259 ;;      Params:         0       0       0       0       0       0
  5260 ;;      Locals:         0       0       0       0       0       0
  5261 ;;      Temps:          0       0       0       0       0       0
  5262 ;;      Totals:         0       0       0       0       0       0
  5263 ;;Total ram usage:        0 bytes
  5264 ;; Hardware stack levels used: 1
  5265 ;; Hardware stack levels required when called: 4
  5266 ;; This function calls:
  5267 ;;		Nothing
  5268 ;; This function is called by:
  5269 ;;		_SM_RESET
  5270 ;;		_SM_CONFIGRADIO
  5271 ;;		_SM_MODORX
  5272 ;;		_SM_CFOFF
  5273 ;;		_SM_START
  5274 ;;		_TX_Lora
  5275 ;;		_TesteEnvio
  5276 ;;		_SM_PING
  5277 ;; This function uses a non-reentrant model
  5278 ;;
  5279                           
  5280     0F8F                     _EUSART_Reset:	
  5281                           ;psect for function _EUSART_Reset
  5282                           
  5283     0F8F                     l2380:	
  5284                           ;incstack = 0
  5285                           ; Regs used in _EUSART_Reset: [wreg+fsr1l+fsr1h+status,2+status,0]
  5286                           
  5287                           
  5288                           ;mcc_generated_files/eusart.c: 61:     for (indice=0;indice<64;indice++)
  5289     0F8F  01FD               	clrf	_indice	;volatile
  5290     0F90                     l2382:
  5291     0F90  3040               	movlw	64
  5292     0F91  027D               	subwf	_indice,w	;volatile
  5293     0F92  1C03               	skipc
  5294     0F93  2F95               	goto	u1021
  5295     0F94  2F96               	goto	u1020
  5296     0F95                     u1021:
  5297     0F95  2F97               	goto	l2386
  5298     0F96                     u1020:
  5299     0F96  2FA7               	goto	l144
  5300     0F97                     l2386:
  5301                           
  5302                           ;mcc_generated_files/eusart.c: 62:     {;mcc_generated_files/eusart.c: 63:         Dados
      +                          Lora[indice]=0x20;
  5303     0F97  087D               	movf	_indice,w
  5304     0F98  3E20               	addlw	(low (_DadosLora| (0+256)))& (0+255)
  5305     0F99  0086               	movwf	6
  5306     0F9A  3001               	movlw	1	; select bank2/3
  5307     0F9B  0087               	movwf	7
  5308     0F9C  3020               	movlw	32
  5309     0F9D  0081               	movwf	1
  5310                           
  5311                           ;mcc_generated_files/eusart.c: 64:         eusartRxBuffer[indice]=0x20;
  5312     0F9E  087D               	movf	_indice,w
  5313     0F9F  3E20               	addlw	(low (_eusartRxBuffer| 0))& (0+255)
  5314     0FA0  0086               	movwf	6
  5315     0FA1  0187               	clrf	7
  5316     0FA2  3020               	movlw	32
  5317     0FA3  0081               	movwf	1
  5318     0FA4                     l2388:
  5319                           
  5320                           ;mcc_generated_files/eusart.c: 65:     }
  5321     0FA4  3001               	movlw	1
  5322     0FA5  07FD               	addwf	_indice,f	;volatile
  5323     0FA6  2F90               	goto	l2382
  5324     0FA7                     l144:
  5325                           
  5326                           ;mcc_generated_files/eusart.c: 66:     eusartTxBuffer[0]=0x20; eusartTxBuffer[1]=0x20; e
      +                          usartTxBuffer[2]=0x20;
  5327     0FA7  3020               	movlw	32
  5328     0FA8  0021               	movlb	1	; select bank1
  5329     0FA9  00A0               	movwf	_eusartTxBuffer^(0+128)	;volatile
  5330     0FAA  3020               	movlw	32
  5331     0FAB  00A1               	movwf	(_eusartTxBuffer^(0+128)+1)	;volatile
  5332     0FAC  3020               	movlw	32
  5333     0FAD  00A2               	movwf	(_eusartTxBuffer^(0+128)+2)	;volatile
  5334                           
  5335                           ;mcc_generated_files/eusart.c: 67:     eusartTxBuffer[3]=0x20; eusartTxBuffer[4]=0x20; e
      +                          usartTxBuffer[5]=0x20;
  5336     0FAE  3020               	movlw	32
  5337     0FAF  00A3               	movwf	(_eusartTxBuffer^(0+128)+3)	;volatile
  5338     0FB0  3020               	movlw	32
  5339     0FB1  00A4               	movwf	(_eusartTxBuffer^(0+128)+4)	;volatile
  5340     0FB2  3020               	movlw	32
  5341     0FB3  00A5               	movwf	(_eusartTxBuffer^(0+128)+5)	;volatile
  5342                           
  5343                           ;mcc_generated_files/eusart.c: 68:     eusartTxBuffer[6]=0x20; eusartTxBuffer[7]=0x20;
  5344     0FB4  3020               	movlw	32
  5345     0FB5  00A6               	movwf	(_eusartTxBuffer^(0+128)+6)	;volatile
  5346     0FB6  3020               	movlw	32
  5347     0FB7  00A7               	movwf	(_eusartTxBuffer^(0+128)+7)	;volatile
  5348     0FB8                     l2392:
  5349                           
  5350                           ;mcc_generated_files/eusart.c: 69:     indice=0;
  5351     0FB8  01FD               	clrf	_indice	;volatile
  5352                           
  5353                           ;mcc_generated_files/eusart.c: 70:     TotalSerial=0;
  5354     0FB9  01E4               	clrf	_TotalSerial^(0+128)	;volatile
  5355     0FBA  01E5               	clrf	(_TotalSerial+1)^(0+128)	;volatile
  5356                           
  5357                           ;mcc_generated_files/eusart.c: 71:     fOK=0; fATerr=0; fAtOk=0;
  5358     0FBB  0020               	movlb	0	; select bank0
  5359     0FBC  01EF               	clrf	_fOK	;volatile
  5360     0FBD  01EE               	clrf	_fATerr	;volatile
  5361     0FBE  01ED               	clrf	_fAtOk	;volatile
  5362                           
  5363                           ;mcc_generated_files/eusart.c: 72:     fBusy=0;fParm=0;fTxOk=0;
  5364     0FBF  01EC               	clrf	_fBusy	;volatile
  5365     0FC0  01EB               	clrf	_fParm	;volatile
  5366     0FC1  01EA               	clrf	_fTxOk	;volatile
  5367     0FC2                     l145:
  5368     0FC2  0008               	return
  5369     0FC3                     __end_of_EUSART_Reset:
  5370                           
  5371                           	psect	text15
  5372     0E5B                     __ptext15:	
  5373 ;; *************** function _ModuloOn *****************
  5374 ;; Defined at:
  5375 ;;		line 105 in file "main.c"
  5376 ;; Parameters:    Size  Location     Type
  5377 ;;		None
  5378 ;; Auto vars:     Size  Location     Type
  5379 ;;		None
  5380 ;; Return value:  Size  Location     Type
  5381 ;;                  1    wreg      void 
  5382 ;; Registers used:
  5383 ;;		wreg
  5384 ;; Tracked objects:
  5385 ;;		On entry : 0/0
  5386 ;;		On exit  : 0/0
  5387 ;;		Unchanged: 0/0
  5388 ;; Data sizes:     COMMON   BANK0   BANK1   BANK2   BANK3   BANK4
  5389 ;;      Params:         0       0       0       0       0       0
  5390 ;;      Locals:         0       0       0       0       0       0
  5391 ;;      Temps:          2       0       0       0       0       0
  5392 ;;      Totals:         2       0       0       0       0       0
  5393 ;;Total ram usage:        2 bytes
  5394 ;; Hardware stack levels used: 1
  5395 ;; Hardware stack levels required when called: 4
  5396 ;; This function calls:
  5397 ;;		Nothing
  5398 ;; This function is called by:
  5399 ;;		_SM_START
  5400 ;;		_TX_Lora
  5401 ;; This function uses a non-reentrant model
  5402 ;;
  5403                           
  5404     0E5B                     _ModuloOn:	
  5405                           ;psect for function _ModuloOn
  5406                           
  5407     0E5B                     l483:	
  5408                           ;incstack = 0
  5409                           ; Regs used in _ModuloOn: [wreg]
  5410                           ;main.c: 107:     do { LATBbits.LATB1 = 0; } while(0);
  5411                           
  5412     0E5B  0022               	movlb	2	; select bank2
  5413     0E5C  108D               	bcf	13,1	;volatile
  5414     0E5D                     l2528:
  5415                           
  5416                           ;main.c: 108:     _delay((unsigned long)((50)*(16000000/4000.0)));
  5417     0E5D  3002               	movlw	2
  5418     0E5E  00F1               	movwf	??_ModuloOn+1
  5419     0E5F  3004               	movlw	4
  5420     0E60  00F0               	movwf	??_ModuloOn
  5421     0E61  30BA               	movlw	186
  5422     0E62                     u2287:
  5423     0E62  0B89               	decfsz	9,f
  5424     0E63  2E62               	goto	u2287
  5425     0E64  0BF0               	decfsz	??_ModuloOn,f
  5426     0E65  2E62               	goto	u2287
  5427     0E66  0BF1               	decfsz	??_ModuloOn+1,f
  5428     0E67  2E62               	goto	u2287
  5429     0E68  3200               	nop2
  5430     0E69                     l2530:
  5431                           
  5432                           ;main.c: 109:     __nop(); __nop(); __nop(); __nop();
  5433     0E69  0000               	nop
  5434     0E6A                     l2532:
  5435     0E6A  0000               	nop
  5436     0E6B                     l2534:
  5437     0E6B  0000               	nop
  5438     0E6C                     l2536:
  5439     0E6C  0000               	nop
  5440     0E6D                     l2538:
  5441     0E6D  0022               	movlb	2	; select bank2
  5442     0E6E  148D               	bsf	13,1	;volatile
  5443     0E6F                     l2540:
  5444                           
  5445                           ;main.c: 111:     __nop(); __nop(); __nop(); __nop();
  5446     0E6F  0000               	nop
  5447     0E70                     l2542:
  5448     0E70  0000               	nop
  5449     0E71                     l2544:
  5450     0E71  0000               	nop
  5451     0E72                     l2546:
  5452     0E72  0000               	nop
  5453                           
  5454                           ;main.c: 112:     _delay((unsigned long)((1000)*(16000000/4000.0)));
  5455     0E73  3015               	movlw	21
  5456     0E74  00F1               	movwf	??_ModuloOn+1
  5457     0E75  304B               	movlw	75
  5458     0E76  00F0               	movwf	??_ModuloOn
  5459     0E77  30BE               	movlw	190
  5460     0E78                     u2297:
  5461     0E78  0B89               	decfsz	9,f
  5462     0E79  2E78               	goto	u2297
  5463     0E7A  0BF0               	decfsz	??_ModuloOn,f
  5464     0E7B  2E78               	goto	u2297
  5465     0E7C  0BF1               	decfsz	??_ModuloOn+1,f
  5466     0E7D  2E78               	goto	u2297
  5467     0E7E  3200               	nop2
  5468     0E7F                     l487:
  5469     0E7F  0008               	return
  5470     0E80                     __end_of_ModuloOn:
  5471                           
  5472                           	psect	text16
  5473     0DE4                     __ptext16:	
  5474 ;; *************** function _PIN_MANAGER_Initialize *****************
  5475 ;; Defined at:
  5476 ;;		line 55 in file "mcc_generated_files/pin_manager.c"
  5477 ;; Parameters:    Size  Location     Type
  5478 ;;		None
  5479 ;; Auto vars:     Size  Location     Type
  5480 ;;		None
  5481 ;; Return value:  Size  Location     Type
  5482 ;;                  1    wreg      void 
  5483 ;; Registers used:
  5484 ;;		status,2
  5485 ;; Tracked objects:
  5486 ;;		On entry : 0/0
  5487 ;;		On exit  : 0/0
  5488 ;;		Unchanged: 0/0
  5489 ;; Data sizes:     COMMON   BANK0   BANK1   BANK2   BANK3   BANK4
  5490 ;;      Params:         0       0       0       0       0       0
  5491 ;;      Locals:         0       0       0       0       0       0
  5492 ;;      Temps:          0       0       0       0       0       0
  5493 ;;      Totals:         0       0       0       0       0       0
  5494 ;;Total ram usage:        0 bytes
  5495 ;; Hardware stack levels used: 1
  5496 ;; Hardware stack levels required when called: 4
  5497 ;; This function calls:
  5498 ;;		Nothing
  5499 ;; This function is called by:
  5500 ;;		_main
  5501 ;; This function uses a non-reentrant model
  5502 ;;
  5503                           
  5504     0DE4                     _PIN_MANAGER_Initialize:	
  5505                           ;psect for function _PIN_MANAGER_Initialize
  5506                           
  5507     0DE4                     l2728:	
  5508                           ;incstack = 0
  5509                           ; Regs used in _PIN_MANAGER_Initialize: [status,2]
  5510                           
  5511                           
  5512                           ;mcc_generated_files/pin_manager.c: 60:     LATA = 0x00;
  5513     0DE4  0022               	movlb	2	; select bank2
  5514     0DE5  018C               	clrf	12	;volatile
  5515     0DE6                     l2730:
  5516                           
  5517                           ;mcc_generated_files/pin_manager.c: 61:     LATB = 0x08;
  5518     0DE6  3008               	movlw	8
  5519     0DE7  008D               	movwf	13	;volatile
  5520     0DE8                     l2732:
  5521                           
  5522                           ;mcc_generated_files/pin_manager.c: 66:     TRISA = 0x3E;
  5523     0DE8  303E               	movlw	62
  5524     0DE9  0021               	movlb	1	; select bank1
  5525     0DEA  008C               	movwf	12	;volatile
  5526     0DEB                     l2734:
  5527                           
  5528                           ;mcc_generated_files/pin_manager.c: 67:     TRISB = 0xDD;
  5529     0DEB  30DD               	movlw	221
  5530     0DEC  008D               	movwf	13	;volatile
  5531     0DED                     l2736:
  5532                           
  5533                           ;mcc_generated_files/pin_manager.c: 72:     ANSELB = 0xD0;
  5534     0DED  30D0               	movlw	208
  5535     0DEE  0023               	movlb	3	; select bank3
  5536     0DEF  008D               	movwf	13	;volatile
  5537                           
  5538                           ;mcc_generated_files/pin_manager.c: 73:     ANSELA = 0x00;
  5539     0DF0  018C               	clrf	12	;volatile
  5540     0DF1                     l2738:
  5541                           
  5542                           ;mcc_generated_files/pin_manager.c: 78:     WPUB = 0x10;
  5543     0DF1  3010               	movlw	16
  5544     0DF2  0024               	movlb	4	; select bank4
  5545     0DF3  008D               	movwf	13	;volatile
  5546                           
  5547                           ;mcc_generated_files/pin_manager.c: 79:     WPUA = 0x00;
  5548     0DF4  018C               	clrf	12	;volatile
  5549     0DF5                     l2740:
  5550                           
  5551                           ;mcc_generated_files/pin_manager.c: 80:     OPTION_REGbits.nWPUEN = 0;
  5552     0DF5  0021               	movlb	1	; select bank1
  5553     0DF6  1395               	bcf	21,7	;volatile
  5554     0DF7                     l2742:
  5555                           
  5556                           ;mcc_generated_files/pin_manager.c: 86:     APFCON0 = 0x80;
  5557     0DF7  3080               	movlw	128
  5558     0DF8  0022               	movlb	2	; select bank2
  5559     0DF9  009D               	movwf	29	;volatile
  5560     0DFA                     l2744:
  5561                           
  5562                           ;mcc_generated_files/pin_manager.c: 87:     APFCON1 = 0x01;
  5563     0DFA  3001               	movlw	1
  5564     0DFB  009E               	movwf	30	;volatile
  5565     0DFC                     l253:
  5566     0DFC  0008               	return
  5567     0DFD                     __end_of_PIN_MANAGER_Initialize:
  5568                           
  5569                           	psect	text17
  5570     0DCA                     __ptext17:	
  5571 ;; *************** function _OSCILLATOR_Initialize *****************
  5572 ;; Defined at:
  5573 ;;		line 60 in file "mcc_generated_files/mcc.c"
  5574 ;; Parameters:    Size  Location     Type
  5575 ;;		None
  5576 ;; Auto vars:     Size  Location     Type
  5577 ;;		None
  5578 ;; Return value:  Size  Location     Type
  5579 ;;                  1    wreg      void 
  5580 ;; Registers used:
  5581 ;;		status,2
  5582 ;; Tracked objects:
  5583 ;;		On entry : 0/0
  5584 ;;		On exit  : 0/0
  5585 ;;		Unchanged: 0/0
  5586 ;; Data sizes:     COMMON   BANK0   BANK1   BANK2   BANK3   BANK4
  5587 ;;      Params:         0       0       0       0       0       0
  5588 ;;      Locals:         0       0       0       0       0       0
  5589 ;;      Temps:          0       0       0       0       0       0
  5590 ;;      Totals:         0       0       0       0       0       0
  5591 ;;Total ram usage:        0 bytes
  5592 ;; Hardware stack levels used: 1
  5593 ;; Hardware stack levels required when called: 4
  5594 ;; This function calls:
  5595 ;;		Nothing
  5596 ;; This function is called by:
  5597 ;;		_main
  5598 ;; This function uses a non-reentrant model
  5599 ;;
  5600                           
  5601     0DCA                     _OSCILLATOR_Initialize:	
  5602                           ;psect for function _OSCILLATOR_Initialize
  5603                           
  5604     0DCA                     l2658:	
  5605                           ;incstack = 0
  5606                           ; Regs used in _OSCILLATOR_Initialize: [status,2]
  5607                           
  5608                           
  5609                           ;mcc_generated_files/mcc.c: 63:     OSCCON = 0x7A;
  5610     0DCA  307A               	movlw	122
  5611     0DCB  0021               	movlb	1	; select bank1
  5612     0DCC  0099               	movwf	25	;volatile
  5613     0DCD                     l2660:
  5614                           
  5615                           ;mcc_generated_files/mcc.c: 65:     OSCTUNE = 0x00;
  5616     0DCD  0198               	clrf	24	;volatile
  5617                           
  5618                           ;mcc_generated_files/mcc.c: 67:     BORCON = 0x00;
  5619     0DCE  0022               	movlb	2	; select bank2
  5620     0DCF  0196               	clrf	22	;volatile
  5621     0DD0                     l14:
  5622     0DD0  0008               	return
  5623     0DD1                     __end_of_OSCILLATOR_Initialize:
  5624                           
  5625                           	psect	text18
  5626     06C8                     __ptext18:	
  5627 ;; *************** function _ErrCode *****************
  5628 ;; Defined at:
  5629 ;;		line 123 in file "main.c"
  5630 ;; Parameters:    Size  Location     Type
  5631 ;;  code            1    wreg     unsigned char 
  5632 ;; Auto vars:     Size  Location     Type
  5633 ;;  code            1    3[COMMON] unsigned char 
  5634 ;;  qual            1    0        unsigned char 
  5635 ;; Return value:  Size  Location     Type
  5636 ;;                  1    wreg      void 
  5637 ;; Registers used:
  5638 ;;		wreg, status,2, status,0, pclath, cstack
  5639 ;; Tracked objects:
  5640 ;;		On entry : 0/0
  5641 ;;		On exit  : 0/0
  5642 ;;		Unchanged: 0/0
  5643 ;; Data sizes:     COMMON   BANK0   BANK1   BANK2   BANK3   BANK4
  5644 ;;      Params:         0       0       0       0       0       0
  5645 ;;      Locals:         1       0       0       0       0       0
  5646 ;;      Temps:          2       0       0       0       0       0
  5647 ;;      Totals:         3       0       0       0       0       0
  5648 ;;Total ram usage:        3 bytes
  5649 ;; Hardware stack levels used: 1
  5650 ;; Hardware stack levels required when called: 5
  5651 ;; This function calls:
  5652 ;;		_ModuloOff
  5653 ;; This function is called by:
  5654 ;;		_main
  5655 ;; This function uses a non-reentrant model
  5656 ;;
  5657                           
  5658     06C8                     _ErrCode:	
  5659                           ;psect for function _ErrCode
  5660                           
  5661                           
  5662                           ;incstack = 0
  5663                           ; Regs used in _ErrCode: [wreg+status,2+status,0+pclath+cstack]
  5664                           ;ErrCode@code stored from wreg
  5665     06C8  00F3               	movwf	ErrCode@code
  5666     06C9                     l2746:
  5667     06C9                     l2748:
  5668                           
  5669                           ;main.c: 126:     __nop();
  5670     06C9  0000               	nop
  5671     06CA                     l2750:
  5672                           
  5673                           ;main.c: 127:     ModuloOff();
  5674     06CA  318D  25D1  3186   	fcall	_ModuloOff
  5675     06CD                     l2752:
  5676     06CD  0022               	movlb	2	; select bank2
  5677     06CE  178C               	bsf	12,7	;volatile
  5678     06CF                     l2754:
  5679     06CF  3006               	movlw	6
  5680     06D0  00F2               	movwf	??_ErrCode+1
  5681     06D1  3013               	movlw	19
  5682     06D2  00F1               	movwf	??_ErrCode
  5683     06D3  30AE               	movlw	174
  5684     06D4                     u2307:
  5685     06D4  0B89               	decfsz	9,f
  5686     06D5  2ED4               	goto	u2307
  5687     06D6  0BF1               	decfsz	??_ErrCode,f
  5688     06D7  2ED4               	goto	u2307
  5689     06D8  0BF2               	decfsz	??_ErrCode+1,f
  5690     06D9  2ED4               	goto	u2307
  5691     06DA                     l2756:
  5692     06DA  0022               	movlb	2	; select bank2
  5693     06DB  138C               	bcf	12,7	;volatile
  5694     06DC                     l2758:
  5695     06DC  3006               	movlw	6
  5696     06DD  00F2               	movwf	??_ErrCode+1
  5697     06DE  3013               	movlw	19
  5698     06DF  00F1               	movwf	??_ErrCode
  5699     06E0  30AE               	movlw	174
  5700     06E1                     u2317:
  5701     06E1  0B89               	decfsz	9,f
  5702     06E2  2EE1               	goto	u2317
  5703     06E3  0BF1               	decfsz	??_ErrCode,f
  5704     06E4  2EE1               	goto	u2317
  5705     06E5  0BF2               	decfsz	??_ErrCode+1,f
  5706     06E6  2EE1               	goto	u2317
  5707     06E7                     l2760:
  5708     06E7  0022               	movlb	2	; select bank2
  5709     06E8  178C               	bsf	12,7	;volatile
  5710     06E9                     l2762:
  5711     06E9  3006               	movlw	6
  5712     06EA  00F2               	movwf	??_ErrCode+1
  5713     06EB  3013               	movlw	19
  5714     06EC  00F1               	movwf	??_ErrCode
  5715     06ED  30AE               	movlw	174
  5716     06EE                     u2327:
  5717     06EE  0B89               	decfsz	9,f
  5718     06EF  2EEE               	goto	u2327
  5719     06F0  0BF1               	decfsz	??_ErrCode,f
  5720     06F1  2EEE               	goto	u2327
  5721     06F2  0BF2               	decfsz	??_ErrCode+1,f
  5722     06F3  2EEE               	goto	u2327
  5723     06F4                     l2764:
  5724     06F4  0022               	movlb	2	; select bank2
  5725     06F5  138C               	bcf	12,7	;volatile
  5726     06F6                     l2766:
  5727     06F6  3006               	movlw	6
  5728     06F7  00F2               	movwf	??_ErrCode+1
  5729     06F8  3013               	movlw	19
  5730     06F9  00F1               	movwf	??_ErrCode
  5731     06FA  30AE               	movlw	174
  5732     06FB                     u2337:
  5733     06FB  0B89               	decfsz	9,f
  5734     06FC  2EFB               	goto	u2337
  5735     06FD  0BF1               	decfsz	??_ErrCode,f
  5736     06FE  2EFB               	goto	u2337
  5737     06FF  0BF2               	decfsz	??_ErrCode+1,f
  5738     0700  2EFB               	goto	u2337
  5739     0701                     l2768:
  5740     0701  0022               	movlb	2	; select bank2
  5741     0702  170C               	bsf	12,6	;volatile
  5742     0703                     l2770:
  5743     0703  3006               	movlw	6
  5744     0704  00F2               	movwf	??_ErrCode+1
  5745     0705  3013               	movlw	19
  5746     0706  00F1               	movwf	??_ErrCode
  5747     0707  30AE               	movlw	174
  5748     0708                     u2347:
  5749     0708  0B89               	decfsz	9,f
  5750     0709  2F08               	goto	u2347
  5751     070A  0BF1               	decfsz	??_ErrCode,f
  5752     070B  2F08               	goto	u2347
  5753     070C  0BF2               	decfsz	??_ErrCode+1,f
  5754     070D  2F08               	goto	u2347
  5755     070E                     l2772:
  5756     070E  0022               	movlb	2	; select bank2
  5757     070F  130C               	bcf	12,6	;volatile
  5758     0710                     l2774:
  5759     0710  3006               	movlw	6
  5760     0711  00F2               	movwf	??_ErrCode+1
  5761     0712  3013               	movlw	19
  5762     0713  00F1               	movwf	??_ErrCode
  5763     0714  30AE               	movlw	174
  5764     0715                     u2357:
  5765     0715  0B89               	decfsz	9,f
  5766     0716  2F15               	goto	u2357
  5767     0717  0BF1               	decfsz	??_ErrCode,f
  5768     0718  2F15               	goto	u2357
  5769     0719  0BF2               	decfsz	??_ErrCode+1,f
  5770     071A  2F15               	goto	u2357
  5771     071B                     l2776:
  5772     071B  0022               	movlb	2	; select bank2
  5773     071C  170C               	bsf	12,6	;volatile
  5774     071D                     l2778:
  5775     071D  3006               	movlw	6
  5776     071E  00F2               	movwf	??_ErrCode+1
  5777     071F  3013               	movlw	19
  5778     0720  00F1               	movwf	??_ErrCode
  5779     0721  30AE               	movlw	174
  5780     0722                     u2367:
  5781     0722  0B89               	decfsz	9,f
  5782     0723  2F22               	goto	u2367
  5783     0724  0BF1               	decfsz	??_ErrCode,f
  5784     0725  2F22               	goto	u2367
  5785     0726  0BF2               	decfsz	??_ErrCode+1,f
  5786     0727  2F22               	goto	u2367
  5787     0728                     l2780:
  5788     0728  0022               	movlb	2	; select bank2
  5789     0729  130C               	bcf	12,6	;volatile
  5790     072A                     l2782:
  5791     072A  3006               	movlw	6
  5792     072B  00F2               	movwf	??_ErrCode+1
  5793     072C  3013               	movlw	19
  5794     072D  00F1               	movwf	??_ErrCode
  5795     072E  30AE               	movlw	174
  5796     072F                     u2377:
  5797     072F  0B89               	decfsz	9,f
  5798     0730  2F2F               	goto	u2377
  5799     0731  0BF1               	decfsz	??_ErrCode,f
  5800     0732  2F2F               	goto	u2377
  5801     0733  0BF2               	decfsz	??_ErrCode+1,f
  5802     0734  2F2F               	goto	u2377
  5803     0735                     l2784:
  5804                           
  5805                           ;main.c: 134:         _delay((unsigned long)((1000)*(16000000/4000.0)));
  5806     0735  3015               	movlw	21
  5807     0736  00F2               	movwf	??_ErrCode+1
  5808     0737  304B               	movlw	75
  5809     0738  00F1               	movwf	??_ErrCode
  5810     0739  30BE               	movlw	190
  5811     073A                     u2387:
  5812     073A  0B89               	decfsz	9,f
  5813     073B  2F3A               	goto	u2387
  5814     073C  0BF1               	decfsz	??_ErrCode,f
  5815     073D  2F3A               	goto	u2387
  5816     073E  0BF2               	decfsz	??_ErrCode+1,f
  5817     073F  2F3A               	goto	u2387
  5818     0740  3200               	nop2
  5819                           
  5820                           ;main.c: 135:     }
  5821     0741  2ECD               	goto	l2752
  5822     0742  0008               	return
  5823     0743                     __end_of_ErrCode:
  5824                           
  5825                           	psect	text19
  5826     0DD1                     __ptext19:	
  5827 ;; *************** function _ModuloOff *****************
  5828 ;; Defined at:
  5829 ;;		line 114 in file "main.c"
  5830 ;; Parameters:    Size  Location     Type
  5831 ;;		None
  5832 ;; Auto vars:     Size  Location     Type
  5833 ;;		None
  5834 ;; Return value:  Size  Location     Type
  5835 ;;                  1    wreg      void 
  5836 ;; Registers used:
  5837 ;;		wreg
  5838 ;; Tracked objects:
  5839 ;;		On entry : 0/0
  5840 ;;		On exit  : 0/0
  5841 ;;		Unchanged: 0/0
  5842 ;; Data sizes:     COMMON   BANK0   BANK1   BANK2   BANK3   BANK4
  5843 ;;      Params:         0       0       0       0       0       0
  5844 ;;      Locals:         0       0       0       0       0       0
  5845 ;;      Temps:          1       0       0       0       0       0
  5846 ;;      Totals:         1       0       0       0       0       0
  5847 ;;Total ram usage:        1 bytes
  5848 ;; Hardware stack levels used: 1
  5849 ;; Hardware stack levels required when called: 4
  5850 ;; This function calls:
  5851 ;;		Nothing
  5852 ;; This function is called by:
  5853 ;;		_ErrCode
  5854 ;;		_main
  5855 ;; This function uses a non-reentrant model
  5856 ;;
  5857                           
  5858     0DD1                     _ModuloOff:	
  5859                           ;psect for function _ModuloOff
  5860                           
  5861     0DD1                     l490:	
  5862                           ;incstack = 0
  5863                           ; Regs used in _ModuloOff: [wreg]
  5864                           ;main.c: 116:     do { LATBbits.LATB1 = 0; } while(0); _delay((unsigned long)((10)*(1600
      +                          0000/4000.0)));
  5865                           
  5866     0DD1  0022               	movlb	2	; select bank2
  5867     0DD2  108D               	bcf	13,1	;volatile
  5868     0DD3                     l2548:
  5869     0DD3  3034               	movlw	52
  5870     0DD4  00F0               	movwf	??_ModuloOff
  5871     0DD5  30F2               	movlw	242
  5872     0DD6                     u2397:
  5873     0DD6  0B89               	decfsz	9,f
  5874     0DD7  2DD6               	goto	u2397
  5875     0DD8  0BF0               	decfsz	??_ModuloOff,f
  5876     0DD9  2DD6               	goto	u2397
  5877     0DDA                     l2550:
  5878     0DDA  0021               	movlb	1	; select bank1
  5879     0DDB  108D               	bcf	13,1	;volatile
  5880     0DDC                     l493:
  5881     0DDC  3034               	movlw	52
  5882     0DDD  00F0               	movwf	??_ModuloOff
  5883     0DDE  30F2               	movlw	242
  5884     0DDF                     u2407:
  5885     0DDF  0B89               	decfsz	9,f
  5886     0DE0  2DDF               	goto	u2407
  5887     0DE1  0BF0               	decfsz	??_ModuloOff,f
  5888     0DE2  2DDF               	goto	u2407
  5889     0DE3                     l494:
  5890     0DE3  0008               	return
  5891     0DE4                     __end_of_ModuloOff:
  5892                           
  5893                           	psect	text20
  5894     0FC3                     __ptext20:	
  5895 ;; *************** function _EUSART_Initialize *****************
  5896 ;; Defined at:
  5897 ;;		line 75 in file "mcc_generated_files/eusart.c"
  5898 ;; Parameters:    Size  Location     Type
  5899 ;;		None
  5900 ;; Auto vars:     Size  Location     Type
  5901 ;;		None
  5902 ;; Return value:  Size  Location     Type
  5903 ;;                  1    wreg      void 
  5904 ;; Registers used:
  5905 ;;		wreg, status,2, status,0, pclath, cstack
  5906 ;; Tracked objects:
  5907 ;;		On entry : 0/0
  5908 ;;		On exit  : 0/0
  5909 ;;		Unchanged: 0/0
  5910 ;; Data sizes:     COMMON   BANK0   BANK1   BANK2   BANK3   BANK4
  5911 ;;      Params:         0       0       0       0       0       0
  5912 ;;      Locals:         0       0       0       0       0       0
  5913 ;;      Temps:          0       0       0       0       0       0
  5914 ;;      Totals:         0       0       0       0       0       0
  5915 ;;Total ram usage:        0 bytes
  5916 ;; Hardware stack levels used: 1
  5917 ;; Hardware stack levels required when called: 5
  5918 ;; This function calls:
  5919 ;;		_EUSART_SetErrorHandler
  5920 ;;		_EUSART_SetFramingErrorHandler
  5921 ;;		_EUSART_SetOverrunErrorHandler
  5922 ;;		_EUSART_SetRxInterruptHandler
  5923 ;;		_EUSART_SetTxInterruptHandler
  5924 ;; This function is called by:
  5925 ;;		_main
  5926 ;; This function uses a non-reentrant model
  5927 ;;
  5928                           
  5929     0FC3                     _EUSART_Initialize:	
  5930                           ;psect for function _EUSART_Initialize
  5931                           
  5932     0FC3                     l2664:	
  5933                           ;incstack = 0
  5934                           ; Regs used in _EUSART_Initialize: [wreg+status,2+status,0+pclath+cstack]
  5935                           
  5936                           
  5937                           ;mcc_generated_files/eusart.c: 78:     PIE1bits.RCIE = 0;
  5938     0FC3  0021               	movlb	1	; select bank1
  5939     0FC4  1291               	bcf	17,5	;volatile
  5940     0FC5                     l2666:
  5941                           
  5942                           ;mcc_generated_files/eusart.c: 79:     EUSART_SetRxInterruptHandler(EUSART_Receive_ISR);
  5943     0FC5  3088               	movlw	low _EUSART_Receive_ISR
  5944     0FC6  00F0               	movwf	EUSART_SetRxInterruptHandler@interruptHandler
  5945     0FC7  3007               	movlw	high _EUSART_Receive_ISR
  5946     0FC8  00F1               	movwf	EUSART_SetRxInterruptHandler@interruptHandler+1
  5947     0FC9  318D  25B8  318F   	fcall	_EUSART_SetRxInterruptHandler
  5948     0FCC                     l2668:
  5949                           
  5950                           ;mcc_generated_files/eusart.c: 80:     PIE1bits.TXIE = 0;
  5951     0FCC  0021               	movlb	1	; select bank1
  5952     0FCD  1211               	bcf	17,4	;volatile
  5953                           
  5954                           ;mcc_generated_files/eusart.c: 81:     EUSART_SetTxInterruptHandler(EUSART_Transmit_ISR)
      +                          ;
  5955     0FCE  30FD               	movlw	low _EUSART_Transmit_ISR
  5956     0FCF  00F0               	movwf	EUSART_SetTxInterruptHandler@interruptHandler
  5957     0FD0  300D               	movlw	high _EUSART_Transmit_ISR
  5958     0FD1  00F1               	movwf	EUSART_SetTxInterruptHandler@interruptHandler+1
  5959     0FD2  318D  25BE  318F   	fcall	_EUSART_SetTxInterruptHandler
  5960     0FD5                     l2670:
  5961                           
  5962                           ;mcc_generated_files/eusart.c: 85:     BAUDCON = 0x08;
  5963     0FD5  3008               	movlw	8
  5964     0FD6  0023               	movlb	3	; select bank3
  5965     0FD7  009F               	movwf	31	;volatile
  5966     0FD8                     l2672:
  5967                           
  5968                           ;mcc_generated_files/eusart.c: 88:     RCSTA = 0x90;
  5969     0FD8  3090               	movlw	144
  5970     0FD9  009D               	movwf	29	;volatile
  5971     0FDA                     l2674:
  5972                           
  5973                           ;mcc_generated_files/eusart.c: 91:     TXSTA = 0x24;
  5974     0FDA  3024               	movlw	36
  5975     0FDB  009E               	movwf	30	;volatile
  5976     0FDC                     l2676:
  5977                           
  5978                           ;mcc_generated_files/eusart.c: 94:     SPBRGL = 0xA0;
  5979     0FDC  30A0               	movlw	160
  5980     0FDD  009B               	movwf	27	;volatile
  5981     0FDE                     l2678:
  5982                           
  5983                           ;mcc_generated_files/eusart.c: 97:     SPBRGH = 0x01;
  5984     0FDE  3001               	movlw	1
  5985     0FDF  009C               	movwf	28	;volatile
  5986                           
  5987                           ;mcc_generated_files/eusart.c: 100:     EUSART_SetFramingErrorHandler(EUSART_DefaultFram
      +                          ingErrorHandler);
  5988     0FE0  3003               	movlw	low _EUSART_DefaultFramingErrorHandler
  5989     0FE1  00F0               	movwf	EUSART_SetFramingErrorHandler@interruptHandler
  5990     0FE2  3000               	movlw	high _EUSART_DefaultFramingErrorHandler
  5991     0FE3  00F1               	movwf	EUSART_SetFramingErrorHandler@interruptHandler+1
  5992     0FE4  318D  25AC  318F   	fcall	_EUSART_SetFramingErrorHandler
  5993                           
  5994                           ;mcc_generated_files/eusart.c: 101:     EUSART_SetOverrunErrorHandler(EUSART_DefaultOver
      +                          runErrorHandler);
  5995     0FE7  309E               	movlw	low _EUSART_DefaultOverrunErrorHandler
  5996     0FE8  00F0               	movwf	EUSART_SetOverrunErrorHandler@interruptHandler
  5997     0FE9  300D               	movlw	high _EUSART_DefaultOverrunErrorHandler
  5998     0FEA  00F1               	movwf	EUSART_SetOverrunErrorHandler@interruptHandler+1
  5999     0FEB  318D  25B2  318F   	fcall	_EUSART_SetOverrunErrorHandler
  6000                           
  6001                           ;mcc_generated_files/eusart.c: 102:     EUSART_SetErrorHandler(EUSART_DefaultErrorHandle
      +                          r);
  6002     0FEE  309A               	movlw	low _EUSART_DefaultErrorHandler
  6003     0FEF  00F0               	movwf	EUSART_SetErrorHandler@interruptHandler
  6004     0FF0  300D               	movlw	high _EUSART_DefaultErrorHandler
  6005     0FF1  00F1               	movwf	EUSART_SetErrorHandler@interruptHandler+1
  6006     0FF2  318D  25A6  318F   	fcall	_EUSART_SetErrorHandler
  6007     0FF5                     l2680:
  6008                           
  6009                           ;mcc_generated_files/eusart.c: 104:     eusartRxLastError.status = 0;
  6010     0FF5  0021               	movlb	1	; select bank1
  6011     0FF6  01E8               	clrf	_eusartRxLastError^(0+128)	;volatile
  6012     0FF7                     l2682:
  6013                           
  6014                           ;mcc_generated_files/eusart.c: 107:     eusartTxHead = 0;
  6015     0FF7  01EE               	clrf	_eusartTxHead^(0+128)	;volatile
  6016     0FF8                     l2684:
  6017                           
  6018                           ;mcc_generated_files/eusart.c: 108:     eusartTxTail = 0;
  6019     0FF8  01ED               	clrf	_eusartTxTail^(0+128)	;volatile
  6020     0FF9                     l2686:
  6021                           
  6022                           ;mcc_generated_files/eusart.c: 109:     eusartTxBufferRemaining = sizeof(eusartTxBuffer)
      +                          ;
  6023     0FF9  3020               	movlw	32
  6024     0FFA  00EC               	movwf	_eusartTxBufferRemaining^(0+128)	;volatile
  6025     0FFB                     l2688:
  6026                           
  6027                           ;mcc_generated_files/eusart.c: 111:     eusartRxHead = 0;
  6028     0FFB  01EB               	clrf	_eusartRxHead^(0+128)	;volatile
  6029     0FFC                     l2690:
  6030                           
  6031                           ;mcc_generated_files/eusart.c: 112:     eusartRxTail = 0;
  6032     0FFC  01EA               	clrf	_eusartRxTail^(0+128)	;volatile
  6033     0FFD                     l2692:
  6034                           
  6035                           ;mcc_generated_files/eusart.c: 113:     eusartRxCount = 0;
  6036     0FFD  01E9               	clrf	_eusartRxCount^(0+128)	;volatile
  6037     0FFE                     l2694:
  6038                           
  6039                           ;mcc_generated_files/eusart.c: 116:     PIE1bits.RCIE = 1;
  6040     0FFE  1691               	bsf	17,5	;volatile
  6041     0FFF                     l148:
  6042     0FFF  0008               	return
  6043     1000                     __end_of_EUSART_Initialize:
  6044                           
  6045                           	psect	text21
  6046     0DBE                     __ptext21:	
  6047 ;; *************** function _EUSART_SetTxInterruptHandler *****************
  6048 ;; Defined at:
  6049 ;;		line 255 in file "mcc_generated_files/eusart.c"
  6050 ;; Parameters:    Size  Location     Type
  6051 ;;  interruptHan    2    0[COMMON] PTR FTN()void 
  6052 ;;		 -> EUSART_Transmit_ISR(1), 
  6053 ;; Auto vars:     Size  Location     Type
  6054 ;;		None
  6055 ;; Return value:  Size  Location     Type
  6056 ;;                  1    wreg      void 
  6057 ;; Registers used:
  6058 ;;		wreg
  6059 ;; Tracked objects:
  6060 ;;		On entry : 0/0
  6061 ;;		On exit  : 0/0
  6062 ;;		Unchanged: 0/0
  6063 ;; Data sizes:     COMMON   BANK0   BANK1   BANK2   BANK3   BANK4
  6064 ;;      Params:         2       0       0       0       0       0
  6065 ;;      Locals:         0       0       0       0       0       0
  6066 ;;      Temps:          0       0       0       0       0       0
  6067 ;;      Totals:         2       0       0       0       0       0
  6068 ;;Total ram usage:        2 bytes
  6069 ;; Hardware stack levels used: 1
  6070 ;; Hardware stack levels required when called: 4
  6071 ;; This function calls:
  6072 ;;		Nothing
  6073 ;; This function is called by:
  6074 ;;		_EUSART_Initialize
  6075 ;; This function uses a non-reentrant model
  6076 ;;
  6077                           
  6078     0DBE                     _EUSART_SetTxInterruptHandler:	
  6079                           ;psect for function _EUSART_SetTxInterruptHandler
  6080                           
  6081     0DBE                     l2516:	
  6082                           ;incstack = 0
  6083                           ; Regs used in _EUSART_SetTxInterruptHandler: [wreg]
  6084                           
  6085                           
  6086                           ;mcc_generated_files/eusart.c: 256:     EUSART_TxDefaultInterruptHandler = interruptHand
      +                          ler;
  6087     0DBE  0871               	movf	EUSART_SetTxInterruptHandler@interruptHandler+1,w
  6088     0DBF  0020               	movlb	0	; select bank0
  6089     0DC0  00E9               	movwf	_EUSART_TxDefaultInterruptHandler+1
  6090     0DC1  0870               	movf	EUSART_SetTxInterruptHandler@interruptHandler,w
  6091     0DC2  00E8               	movwf	_EUSART_TxDefaultInterruptHandler
  6092     0DC3                     l210:
  6093     0DC3  0008               	return
  6094     0DC4                     __end_of_EUSART_SetTxInterruptHandler:
  6095                           
  6096                           	psect	text22
  6097     0DB8                     __ptext22:	
  6098 ;; *************** function _EUSART_SetRxInterruptHandler *****************
  6099 ;; Defined at:
  6100 ;;		line 259 in file "mcc_generated_files/eusart.c"
  6101 ;; Parameters:    Size  Location     Type
  6102 ;;  interruptHan    2    0[COMMON] PTR FTN()void 
  6103 ;;		 -> EUSART_Receive_ISR(1), 
  6104 ;; Auto vars:     Size  Location     Type
  6105 ;;		None
  6106 ;; Return value:  Size  Location     Type
  6107 ;;                  1    wreg      void 
  6108 ;; Registers used:
  6109 ;;		wreg
  6110 ;; Tracked objects:
  6111 ;;		On entry : 0/0
  6112 ;;		On exit  : 0/0
  6113 ;;		Unchanged: 0/0
  6114 ;; Data sizes:     COMMON   BANK0   BANK1   BANK2   BANK3   BANK4
  6115 ;;      Params:         2       0       0       0       0       0
  6116 ;;      Locals:         0       0       0       0       0       0
  6117 ;;      Temps:          0       0       0       0       0       0
  6118 ;;      Totals:         2       0       0       0       0       0
  6119 ;;Total ram usage:        2 bytes
  6120 ;; Hardware stack levels used: 1
  6121 ;; Hardware stack levels required when called: 4
  6122 ;; This function calls:
  6123 ;;		Nothing
  6124 ;; This function is called by:
  6125 ;;		_EUSART_Initialize
  6126 ;; This function uses a non-reentrant model
  6127 ;;
  6128                           
  6129     0DB8                     _EUSART_SetRxInterruptHandler:	
  6130                           ;psect for function _EUSART_SetRxInterruptHandler
  6131                           
  6132     0DB8                     l2514:	
  6133                           ;incstack = 0
  6134                           ; Regs used in _EUSART_SetRxInterruptHandler: [wreg]
  6135                           
  6136                           
  6137                           ;mcc_generated_files/eusart.c: 260:     EUSART_RxDefaultInterruptHandler = interruptHand
      +                          ler;
  6138     0DB8  0871               	movf	EUSART_SetRxInterruptHandler@interruptHandler+1,w
  6139     0DB9  0020               	movlb	0	; select bank0
  6140     0DBA  00E7               	movwf	_EUSART_RxDefaultInterruptHandler+1
  6141     0DBB  0870               	movf	EUSART_SetRxInterruptHandler@interruptHandler,w
  6142     0DBC  00E6               	movwf	_EUSART_RxDefaultInterruptHandler
  6143     0DBD                     l213:
  6144     0DBD  0008               	return
  6145     0DBE                     __end_of_EUSART_SetRxInterruptHandler:
  6146                           
  6147                           	psect	text23
  6148     0DB2                     __ptext23:	
  6149 ;; *************** function _EUSART_SetOverrunErrorHandler *****************
  6150 ;; Defined at:
  6151 ;;		line 247 in file "mcc_generated_files/eusart.c"
  6152 ;; Parameters:    Size  Location     Type
  6153 ;;  interruptHan    2    0[COMMON] PTR FTN()void 
  6154 ;;		 -> EUSART_DefaultOverrunErrorHandler(1), 
  6155 ;; Auto vars:     Size  Location     Type
  6156 ;;		None
  6157 ;; Return value:  Size  Location     Type
  6158 ;;                  1    wreg      void 
  6159 ;; Registers used:
  6160 ;;		wreg
  6161 ;; Tracked objects:
  6162 ;;		On entry : 0/0
  6163 ;;		On exit  : 0/0
  6164 ;;		Unchanged: 0/0
  6165 ;; Data sizes:     COMMON   BANK0   BANK1   BANK2   BANK3   BANK4
  6166 ;;      Params:         2       0       0       0       0       0
  6167 ;;      Locals:         0       0       0       0       0       0
  6168 ;;      Temps:          0       0       0       0       0       0
  6169 ;;      Totals:         2       0       0       0       0       0
  6170 ;;Total ram usage:        2 bytes
  6171 ;; Hardware stack levels used: 1
  6172 ;; Hardware stack levels required when called: 4
  6173 ;; This function calls:
  6174 ;;		Nothing
  6175 ;; This function is called by:
  6176 ;;		_EUSART_Initialize
  6177 ;; This function uses a non-reentrant model
  6178 ;;
  6179                           
  6180     0DB2                     _EUSART_SetOverrunErrorHandler:	
  6181                           ;psect for function _EUSART_SetOverrunErrorHandler
  6182                           
  6183     0DB2                     l2520:	
  6184                           ;incstack = 0
  6185                           ; Regs used in _EUSART_SetOverrunErrorHandler: [wreg]
  6186                           
  6187                           
  6188                           ;mcc_generated_files/eusart.c: 248:     EUSART_OverrunErrorHandler = interruptHandler;
  6189     0DB2  0871               	movf	EUSART_SetOverrunErrorHandler@interruptHandler+1,w
  6190     0DB3  0021               	movlb	1	; select bank1
  6191     0DB4  00E1               	movwf	(_EUSART_OverrunErrorHandler+1)^(0+128)
  6192     0DB5  0870               	movf	EUSART_SetOverrunErrorHandler@interruptHandler,w
  6193     0DB6  00E0               	movwf	_EUSART_OverrunErrorHandler^(0+128)
  6194     0DB7                     l204:
  6195     0DB7  0008               	return
  6196     0DB8                     __end_of_EUSART_SetOverrunErrorHandler:
  6197                           
  6198                           	psect	text24
  6199     0DAC                     __ptext24:	
  6200 ;; *************** function _EUSART_SetFramingErrorHandler *****************
  6201 ;; Defined at:
  6202 ;;		line 243 in file "mcc_generated_files/eusart.c"
  6203 ;; Parameters:    Size  Location     Type
  6204 ;;  interruptHan    2    0[COMMON] PTR FTN()void 
  6205 ;;		 -> EUSART_DefaultFramingErrorHandler(1), 
  6206 ;; Auto vars:     Size  Location     Type
  6207 ;;		None
  6208 ;; Return value:  Size  Location     Type
  6209 ;;                  1    wreg      void 
  6210 ;; Registers used:
  6211 ;;		wreg
  6212 ;; Tracked objects:
  6213 ;;		On entry : 0/0
  6214 ;;		On exit  : 0/0
  6215 ;;		Unchanged: 0/0
  6216 ;; Data sizes:     COMMON   BANK0   BANK1   BANK2   BANK3   BANK4
  6217 ;;      Params:         2       0       0       0       0       0
  6218 ;;      Locals:         0       0       0       0       0       0
  6219 ;;      Temps:          0       0       0       0       0       0
  6220 ;;      Totals:         2       0       0       0       0       0
  6221 ;;Total ram usage:        2 bytes
  6222 ;; Hardware stack levels used: 1
  6223 ;; Hardware stack levels required when called: 4
  6224 ;; This function calls:
  6225 ;;		Nothing
  6226 ;; This function is called by:
  6227 ;;		_EUSART_Initialize
  6228 ;; This function uses a non-reentrant model
  6229 ;;
  6230                           
  6231     0DAC                     _EUSART_SetFramingErrorHandler:	
  6232                           ;psect for function _EUSART_SetFramingErrorHandler
  6233                           
  6234     0DAC                     l2518:	
  6235                           ;incstack = 0
  6236                           ; Regs used in _EUSART_SetFramingErrorHandler: [wreg]
  6237                           
  6238                           
  6239                           ;mcc_generated_files/eusart.c: 244:     EUSART_FramingErrorHandler = interruptHandler;
  6240     0DAC  0871               	movf	EUSART_SetFramingErrorHandler@interruptHandler+1,w
  6241     0DAD  0021               	movlb	1	; select bank1
  6242     0DAE  00E3               	movwf	(_EUSART_FramingErrorHandler+1)^(0+128)
  6243     0DAF  0870               	movf	EUSART_SetFramingErrorHandler@interruptHandler,w
  6244     0DB0  00E2               	movwf	_EUSART_FramingErrorHandler^(0+128)
  6245     0DB1                     l201:
  6246     0DB1  0008               	return
  6247     0DB2                     __end_of_EUSART_SetFramingErrorHandler:
  6248                           
  6249                           	psect	text25
  6250     0DA6                     __ptext25:	
  6251 ;; *************** function _EUSART_SetErrorHandler *****************
  6252 ;; Defined at:
  6253 ;;		line 251 in file "mcc_generated_files/eusart.c"
  6254 ;; Parameters:    Size  Location     Type
  6255 ;;  interruptHan    2    0[COMMON] PTR FTN()void 
  6256 ;;		 -> EUSART_DefaultErrorHandler(1), 
  6257 ;; Auto vars:     Size  Location     Type
  6258 ;;		None
  6259 ;; Return value:  Size  Location     Type
  6260 ;;                  1    wreg      void 
  6261 ;; Registers used:
  6262 ;;		wreg
  6263 ;; Tracked objects:
  6264 ;;		On entry : 0/0
  6265 ;;		On exit  : 0/0
  6266 ;;		Unchanged: 0/0
  6267 ;; Data sizes:     COMMON   BANK0   BANK1   BANK2   BANK3   BANK4
  6268 ;;      Params:         2       0       0       0       0       0
  6269 ;;      Locals:         0       0       0       0       0       0
  6270 ;;      Temps:          0       0       0       0       0       0
  6271 ;;      Totals:         2       0       0       0       0       0
  6272 ;;Total ram usage:        2 bytes
  6273 ;; Hardware stack levels used: 1
  6274 ;; Hardware stack levels required when called: 4
  6275 ;; This function calls:
  6276 ;;		Nothing
  6277 ;; This function is called by:
  6278 ;;		_EUSART_Initialize
  6279 ;; This function uses a non-reentrant model
  6280 ;;
  6281                           
  6282     0DA6                     _EUSART_SetErrorHandler:	
  6283                           ;psect for function _EUSART_SetErrorHandler
  6284                           
  6285     0DA6                     l2522:	
  6286                           ;incstack = 0
  6287                           ; Regs used in _EUSART_SetErrorHandler: [wreg]
  6288                           
  6289                           
  6290                           ;mcc_generated_files/eusart.c: 252:     EUSART_ErrorHandler = interruptHandler;
  6291     0DA6  0871               	movf	EUSART_SetErrorHandler@interruptHandler+1,w
  6292     0DA7  0021               	movlb	1	; select bank1
  6293     0DA8  00DF               	movwf	(_EUSART_ErrorHandler+1)^(0+128)
  6294     0DA9  0870               	movf	EUSART_SetErrorHandler@interruptHandler,w
  6295     0DAA  00DE               	movwf	_EUSART_ErrorHandler^(0+128)
  6296     0DAB                     l207:
  6297     0DAB  0008               	return
  6298     0DAC                     __end_of_EUSART_SetErrorHandler:
  6299                           
  6300                           	psect	intentry
  6301     0004                     __pintentry:	
  6302 ;; *************** function _INTERRUPT_InterruptManager *****************
  6303 ;; Defined at:
  6304 ;;		line 52 in file "mcc_generated_files/interrupt_manager.c"
  6305 ;; Parameters:    Size  Location     Type
  6306 ;;		None
  6307 ;; Auto vars:     Size  Location     Type
  6308 ;;		None
  6309 ;; Return value:  Size  Location     Type
  6310 ;;                  1    wreg      void 
  6311 ;; Registers used:
  6312 ;;		wreg, fsr1l, fsr1h, status,2, status,0, pclath, cstack
  6313 ;; Tracked objects:
  6314 ;;		On entry : 0/0
  6315 ;;		On exit  : 0/0
  6316 ;;		Unchanged: 0/0
  6317 ;; Data sizes:     COMMON   BANK0   BANK1   BANK2   BANK3   BANK4
  6318 ;;      Params:         0       0       0       0       0       0
  6319 ;;      Locals:         0       0       0       0       0       0
  6320 ;;      Temps:          0       0       0       0       0       0
  6321 ;;      Totals:         0       0       0       0       0       0
  6322 ;;Total ram usage:        0 bytes
  6323 ;; Hardware stack levels used: 1
  6324 ;; Hardware stack levels required when called: 3
  6325 ;; This function calls:
  6326 ;;		NULL
  6327 ;;		_EUSART_Receive_ISR
  6328 ;;		_EUSART_Transmit_ISR
  6329 ;; This function is called by:
  6330 ;;		Interrupt level 1
  6331 ;; This function uses a non-reentrant model
  6332 ;;
  6333                           
  6334     0004                     _INTERRUPT_InterruptManager:
  6335                           
  6336                           ;incstack = 0
  6337     0004  147E               	bsf	int$flags,0	;set compiler interrupt flag (level 1)
  6338                           
  6339                           ; Regs used in _INTERRUPT_InterruptManager: [wreg+fsr1l+fsr1h+status,2+status,0+pclath+c
      +                          stack]
  6340     0005  3180               	pagesel	$
  6341     0006  3000               	movlw	low ___int_sp
  6342     0007  0086               	movwf	6
  6343     0008  3000               	movlw	high ___int_sp
  6344     0009  0087               	movwf	7
  6345     000A                     i1l2930:
  6346                           
  6347                           ;mcc_generated_files/interrupt_manager.c: 55:     if(INTCONbits.PEIE == 1)
  6348     000A  1F0B               	btfss	11,6	;volatile
  6349     000B  280D               	goto	u166_21
  6350     000C  280E               	goto	u166_20
  6351     000D                     u166_21:
  6352     000D  282D               	goto	i1l38
  6353     000E                     u166_20:
  6354     000E                     i1l2932:
  6355                           
  6356                           ;mcc_generated_files/interrupt_manager.c: 56:     {;mcc_generated_files/interrupt_manage
      +                          r.c: 57:         if(PIE1bits.TXIE == 1 && PIR1bits.TXIF == 1)
  6357     000E  0021               	movlb	1	; select bank1
  6358     000F  1E11               	btfss	17,4	;volatile
  6359     0010  2812               	goto	u167_21
  6360     0011  2813               	goto	u167_20
  6361     0012                     u167_21:
  6362     0012  281E               	goto	i1l33
  6363     0013                     u167_20:
  6364     0013                     i1l2934:
  6365     0013  0020               	movlb	0	; select bank0
  6366     0014  1E11               	btfss	17,4	;volatile
  6367     0015  2817               	goto	u168_21
  6368     0016  2818               	goto	u168_20
  6369     0017                     u168_21:
  6370     0017  281E               	goto	i1l33
  6371     0018                     u168_20:
  6372     0018                     i1l2936:
  6373                           
  6374                           ;mcc_generated_files/interrupt_manager.c: 58:         {;mcc_generated_files/interrupt_ma
      +                          nager.c: 59:             EUSART_TxDefaultInterruptHandler();
  6375     0018  0869               	movf	_EUSART_TxDefaultInterruptHandler+1,w
  6376     0019  008A               	movwf	10
  6377     001A  0868               	movf	_EUSART_TxDefaultInterruptHandler,w
  6378     001B  000A               	callw
  6379     001C  3180               	pagesel	$
  6380                           
  6381                           ;mcc_generated_files/interrupt_manager.c: 60:         }
  6382     001D  282D               	goto	i1l38
  6383     001E                     i1l33:	
  6384                           ;mcc_generated_files/interrupt_manager.c: 61:         else if(PIE1bits.RCIE == 1 && PIR1
      +                          bits.RCIF == 1)
  6385                           
  6386     001E  0021               	movlb	1	; select bank1
  6387     001F  1E91               	btfss	17,5	;volatile
  6388     0020  2822               	goto	u169_21
  6389     0021  2823               	goto	u169_20
  6390     0022                     u169_21:
  6391     0022  282D               	goto	i1l38
  6392     0023                     u169_20:
  6393     0023                     i1l2938:
  6394     0023  0020               	movlb	0	; select bank0
  6395     0024  1E91               	btfss	17,5	;volatile
  6396     0025  2827               	goto	u170_21
  6397     0026  2828               	goto	u170_20
  6398     0027                     u170_21:
  6399     0027  282D               	goto	i1l38
  6400     0028                     u170_20:
  6401     0028                     i1l2940:
  6402                           
  6403                           ;mcc_generated_files/interrupt_manager.c: 62:         {;mcc_generated_files/interrupt_ma
      +                          nager.c: 63:             EUSART_RxDefaultInterruptHandler();
  6404     0028  0867               	movf	_EUSART_RxDefaultInterruptHandler+1,w
  6405     0029  008A               	movwf	10
  6406     002A  0866               	movf	_EUSART_RxDefaultInterruptHandler,w
  6407     002B  000A               	callw
  6408     002C  3180               	pagesel	$
  6409     002D                     i1l38:	
  6410                           ;mcc_generated_files/interrupt_manager.c: 64:         }
  6411                           
  6412     002D  107E               	bcf	int$flags,0	;clear compiler interrupt flag (level 1)
  6413     002E  0009               	retfie
  6414     002F                     __end_of_INTERRUPT_InterruptManager:
  6415                           
  6416                           	psect	text27
  6417     0DFD                     __ptext27:	
  6418 ;; *************** function _EUSART_Transmit_ISR *****************
  6419 ;; Defined at:
  6420 ;;		line 186 in file "mcc_generated_files/eusart.c"
  6421 ;; Parameters:    Size  Location     Type
  6422 ;;		None
  6423 ;; Auto vars:     Size  Location     Type
  6424 ;;		None
  6425 ;; Return value:  Size  Location     Type
  6426 ;;                  1    wreg      void 
  6427 ;; Registers used:
  6428 ;;		wreg, fsr1l, fsr1h, status,2, status,0
  6429 ;; Tracked objects:
  6430 ;;		On entry : 0/0
  6431 ;;		On exit  : 0/0
  6432 ;;		Unchanged: 0/0
  6433 ;; Data sizes:     COMMON   BANK0   BANK1   BANK2   BANK3   BANK4
  6434 ;;      Params:         0       0       0       0       0       0
  6435 ;;      Locals:         0       0       0       0       0       0
  6436 ;;      Temps:          0       0       0       0       0       0
  6437 ;;      Totals:         0       0       0       0       0       0
  6438 ;;Total ram usage:        0 bytes
  6439 ;; Hardware stack levels used: 1
  6440 ;; This function calls:
  6441 ;;		Nothing
  6442 ;; This function is called by:
  6443 ;;		_EUSART_Initialize
  6444 ;;		_INTERRUPT_InterruptManager
  6445 ;; This function uses a non-reentrant model
  6446 ;;
  6447                           
  6448     0DFD                     _EUSART_Transmit_ISR:	
  6449                           ;psect for function _EUSART_Transmit_ISR
  6450                           
  6451     0DFD                     i1l2696:	
  6452                           ;incstack = 0
  6453                           ; Regs used in _EUSART_Transmit_ISR: [wreg+fsr1l+fsr1h+status,2+status,0]
  6454                           
  6455                           
  6456                           ;mcc_generated_files/eusart.c: 190:     if(sizeof(eusartTxBuffer) > eusartTxBufferRemain
      +                          ing)
  6457     0DFD  3020               	movlw	32
  6458     0DFE  0021               	movlb	1	; select bank1
  6459     0DFF  026C               	subwf	_eusartTxBufferRemaining^(0+128),w	;volatile
  6460     0E00  1803               	skipnc
  6461     0E01  2E03               	goto	u151_21
  6462     0E02  2E04               	goto	u151_20
  6463     0E03                     u151_21:
  6464     0E03  2E18               	goto	i1l179
  6465     0E04                     u151_20:
  6466     0E04                     i1l2698:
  6467                           
  6468                           ;mcc_generated_files/eusart.c: 191:     {;mcc_generated_files/eusart.c: 192:         TXR
      +                          EG = eusartTxBuffer[eusartTxTail++];
  6469     0E04  086D               	movf	_eusartTxTail^(0+128),w
  6470     0E05  3EA0               	addlw	(low (_eusartTxBuffer| 0))& (0+255)
  6471     0E06  0086               	movwf	6
  6472     0E07  0187               	clrf	7
  6473     0E08  0801               	movf	1,w
  6474     0E09  0023               	movlb	3	; select bank3
  6475     0E0A  009A               	movwf	26	;volatile
  6476     0E0B                     i1l2700:
  6477     0E0B  3001               	movlw	1
  6478     0E0C  0021               	movlb	1	; select bank1
  6479     0E0D  07ED               	addwf	_eusartTxTail^(0+128),f	;volatile
  6480     0E0E                     i1l2702:
  6481                           
  6482                           ;mcc_generated_files/eusart.c: 193:         if(sizeof(eusartTxBuffer) <= eusartTxTail)
  6483     0E0E  3020               	movlw	32
  6484     0E0F  026D               	subwf	_eusartTxTail^(0+128),w	;volatile
  6485     0E10  1C03               	skipc
  6486     0E11  2E13               	goto	u152_21
  6487     0E12  2E14               	goto	u152_20
  6488     0E13                     u152_21:
  6489     0E13  2E15               	goto	i1l2706
  6490     0E14                     u152_20:
  6491     0E14                     i1l2704:
  6492                           
  6493                           ;mcc_generated_files/eusart.c: 194:         {;mcc_generated_files/eusart.c: 195:        
      +                               eusartTxTail = 0;
  6494     0E14  01ED               	clrf	_eusartTxTail^(0+128)	;volatile
  6495     0E15                     i1l2706:
  6496                           
  6497                           ;mcc_generated_files/eusart.c: 197:         eusartTxBufferRemaining++;
  6498     0E15  3001               	movlw	1
  6499     0E16  07EC               	addwf	_eusartTxBufferRemaining^(0+128),f	;volatile
  6500                           
  6501                           ;mcc_generated_files/eusart.c: 198:     }
  6502     0E17  2E19               	goto	i1l182
  6503     0E18                     i1l179:	
  6504                           ;mcc_generated_files/eusart.c: 199:     else
  6505                           
  6506                           
  6507                           ;mcc_generated_files/eusart.c: 200:     {;mcc_generated_files/eusart.c: 201:         PIE
      +                          1bits.TXIE = 0;
  6508     0E18  1211               	bcf	17,4	;volatile
  6509     0E19                     i1l182:
  6510     0E19  0008               	return
  6511     0E1A                     __end_of_EUSART_Transmit_ISR:
  6512                           
  6513                           	psect	text28
  6514     0788                     __ptext28:	
  6515 ;; *************** function _EUSART_Receive_ISR *****************
  6516 ;; Defined at:
  6517 ;;		line 205 in file "mcc_generated_files/eusart.c"
  6518 ;; Parameters:    Size  Location     Type
  6519 ;;		None
  6520 ;; Auto vars:     Size  Location     Type
  6521 ;;		None
  6522 ;; Return value:  Size  Location     Type
  6523 ;;                  1    wreg      void 
  6524 ;; Registers used:
  6525 ;;		wreg, fsr1l, fsr1h, status,2, status,0, pclath, cstack
  6526 ;; Tracked objects:
  6527 ;;		On entry : 0/0
  6528 ;;		On exit  : 0/0
  6529 ;;		Unchanged: 0/0
  6530 ;; Data sizes:     COMMON   BANK0   BANK1   BANK2   BANK3   BANK4
  6531 ;;      Params:         0       0       0       0       0       0
  6532 ;;      Locals:         0       0       0       0       0       0
  6533 ;;      Temps:          0       0       0       0       0       0
  6534 ;;      Totals:         0       0       0       0       0       0
  6535 ;;Total ram usage:        0 bytes
  6536 ;; Hardware stack levels used: 1
  6537 ;; Hardware stack levels required when called: 2
  6538 ;; This function calls:
  6539 ;;		NULL
  6540 ;;		_EUSART_DefaultErrorHandler
  6541 ;;		_EUSART_DefaultFramingErrorHandler
  6542 ;;		_EUSART_DefaultOverrunErrorHandler
  6543 ;;		_EUSART_RxDataHandler
  6544 ;; This function is called by:
  6545 ;;		_EUSART_Initialize
  6546 ;;		_INTERRUPT_InterruptManager
  6547 ;; This function uses a non-reentrant model
  6548 ;;
  6549                           
  6550     0788                     _EUSART_Receive_ISR:	
  6551                           ;psect for function _EUSART_Receive_ISR
  6552                           
  6553     0788                     i1l2708:	
  6554                           ;incstack = 0
  6555                           ; Regs used in _EUSART_Receive_ISR: [wreg+fsr1l+fsr1h+status,2+status,0+pclath+cstack]
  6556                           
  6557                           
  6558                           ;mcc_generated_files/eusart.c: 208:     eusartRxStatusBuffer[eusartRxHead].status = 0;
  6559     0788  0021               	movlb	1	; select bank1
  6560     0789  086B               	movf	_eusartRxHead^(0+128),w	;volatile
  6561     078A  3EA0               	addlw	(low (_eusartRxStatusBuffer| (0+256)))& (0+255)
  6562     078B  0086               	movwf	6
  6563     078C  3001               	movlw	1	; select bank3/4
  6564     078D  0087               	movwf	7
  6565     078E  0181               	clrf	1
  6566     078F                     i1l2710:
  6567                           
  6568                           ;mcc_generated_files/eusart.c: 210:     if(RCSTAbits.FERR){
  6569     078F  0023               	movlb	3	; select bank3
  6570     0790  1D1D               	btfss	29,2	;volatile
  6571     0791  2F93               	goto	u153_21
  6572     0792  2F94               	goto	u153_20
  6573     0793                     u153_21:
  6574     0793  2FA0               	goto	i1l2716
  6575     0794                     u153_20:
  6576     0794                     i1l2712:
  6577                           
  6578                           ;mcc_generated_files/eusart.c: 211:         eusartRxStatusBuffer[eusartRxHead].ferr = 1;
  6579     0794  0021               	movlb	1	; select bank1
  6580     0795  086B               	movf	_eusartRxHead^(0+128),w	;volatile
  6581     0796  3EA0               	addlw	(low (_eusartRxStatusBuffer| (0+256)))& (0+255)
  6582     0797  0086               	movwf	6
  6583     0798  3001               	movlw	1	; select bank3/4
  6584     0799  0087               	movwf	7
  6585     079A  1481               	bsf	1,1
  6586     079B                     i1l2714:
  6587                           
  6588                           ;mcc_generated_files/eusart.c: 212:         EUSART_FramingErrorHandler();
  6589     079B  0863               	movf	(_EUSART_FramingErrorHandler+1)^(0+128),w
  6590     079C  008A               	movwf	10
  6591     079D  0862               	movf	_EUSART_FramingErrorHandler^(0+128),w
  6592     079E  000A               	callw
  6593     079F  3187               	pagesel	$
  6594     07A0                     i1l2716:
  6595                           
  6596                           ;mcc_generated_files/eusart.c: 215:     if(RCSTAbits.OERR){
  6597     07A0  0023               	movlb	3	; select bank3
  6598     07A1  1C9D               	btfss	29,1	;volatile
  6599     07A2  2FA4               	goto	u154_21
  6600     07A3  2FA5               	goto	u154_20
  6601     07A4                     u154_21:
  6602     07A4  2FB1               	goto	i1l2722
  6603     07A5                     u154_20:
  6604     07A5                     i1l2718:
  6605                           
  6606                           ;mcc_generated_files/eusart.c: 216:         eusartRxStatusBuffer[eusartRxHead].oerr = 1;
  6607     07A5  0021               	movlb	1	; select bank1
  6608     07A6  086B               	movf	_eusartRxHead^(0+128),w	;volatile
  6609     07A7  3EA0               	addlw	(low (_eusartRxStatusBuffer| (0+256)))& (0+255)
  6610     07A8  0086               	movwf	6
  6611     07A9  3001               	movlw	1	; select bank3/4
  6612     07AA  0087               	movwf	7
  6613     07AB  1501               	bsf	1,2
  6614     07AC                     i1l2720:
  6615                           
  6616                           ;mcc_generated_files/eusart.c: 217:         EUSART_OverrunErrorHandler();
  6617     07AC  0861               	movf	(_EUSART_OverrunErrorHandler+1)^(0+128),w
  6618     07AD  008A               	movwf	10
  6619     07AE  0860               	movf	_EUSART_OverrunErrorHandler^(0+128),w
  6620     07AF  000A               	callw
  6621     07B0  3187               	pagesel	$
  6622     07B1                     i1l2722:
  6623                           
  6624                           ;mcc_generated_files/eusart.c: 220:     if(eusartRxStatusBuffer[eusartRxHead].status){
  6625     07B1  0021               	movlb	1	; select bank1
  6626     07B2  086B               	movf	_eusartRxHead^(0+128),w	;volatile
  6627     07B3  3EA0               	addlw	(low (_eusartRxStatusBuffer| (0+256)))& (0+255)
  6628     07B4  0086               	movwf	6
  6629     07B5  3001               	movlw	1	; select bank3/4
  6630     07B6  0087               	movwf	7
  6631     07B7  0801               	movf	1,w
  6632     07B8  1903               	btfsc	3,2
  6633     07B9  2FBB               	goto	u155_21
  6634     07BA  2FBC               	goto	u155_20
  6635     07BB                     u155_21:
  6636     07BB  2FC2               	goto	i1l2726
  6637     07BC                     u155_20:
  6638     07BC                     i1l2724:
  6639                           
  6640                           ;mcc_generated_files/eusart.c: 221:         EUSART_ErrorHandler();
  6641     07BC  085F               	movf	(_EUSART_ErrorHandler+1)^(0+128),w
  6642     07BD  008A               	movwf	10
  6643     07BE  085E               	movf	_EUSART_ErrorHandler^(0+128),w
  6644     07BF  000A               	callw
  6645     07C0  3187               	pagesel	$
  6646                           
  6647                           ;mcc_generated_files/eusart.c: 222:     } else {
  6648     07C1  2FC5               	goto	i1l189
  6649     07C2                     i1l2726:
  6650                           
  6651                           ;mcc_generated_files/eusart.c: 223:         EUSART_RxDataHandler();
  6652     07C2  3185  255B  3187   	fcall	_EUSART_RxDataHandler
  6653     07C5                     i1l189:
  6654     07C5  0008               	return
  6655     07C6                     __end_of_EUSART_Receive_ISR:
  6656                           
  6657                           	psect	text29
  6658     0D9E                     __ptext29:	
  6659 ;; *************** function _EUSART_DefaultOverrunErrorHandler *****************
  6660 ;; Defined at:
  6661 ;;		line 231 in file "mcc_generated_files/eusart.c"
  6662 ;; Parameters:    Size  Location     Type
  6663 ;;		None
  6664 ;; Auto vars:     Size  Location     Type
  6665 ;;		None
  6666 ;; Return value:  Size  Location     Type
  6667 ;;                  1    wreg      void 
  6668 ;; Registers used:
  6669 ;;		None
  6670 ;; Tracked objects:
  6671 ;;		On entry : 0/0
  6672 ;;		On exit  : 0/0
  6673 ;;		Unchanged: 0/0
  6674 ;; Data sizes:     COMMON   BANK0   BANK1   BANK2   BANK3   BANK4
  6675 ;;      Params:         0       0       0       0       0       0
  6676 ;;      Locals:         0       0       0       0       0       0
  6677 ;;      Temps:          0       0       0       0       0       0
  6678 ;;      Totals:         0       0       0       0       0       0
  6679 ;;Total ram usage:        0 bytes
  6680 ;; Hardware stack levels used: 1
  6681 ;; This function calls:
  6682 ;;		Nothing
  6683 ;; This function is called by:
  6684 ;;		_EUSART_Initialize
  6685 ;;		_EUSART_Receive_ISR
  6686 ;; This function uses a non-reentrant model
  6687 ;;
  6688                           
  6689     0D9E                     _EUSART_DefaultOverrunErrorHandler:	
  6690                           ;psect for function _EUSART_DefaultOverrunErrorHandler
  6691                           
  6692     0D9E                     i1l2524:	
  6693                           ;incstack = 0
  6694                           ; Regs used in _EUSART_DefaultOverrunErrorHandler: []
  6695                           
  6696                           
  6697                           ;mcc_generated_files/eusart.c: 234:     RCSTAbits.CREN = 0;
  6698     0D9E  0023               	movlb	3	; select bank3
  6699     0D9F  121D               	bcf	29,4	;volatile
  6700                           
  6701                           ;mcc_generated_files/eusart.c: 235:     RCSTAbits.CREN = 1;
  6702     0DA0  161D               	bsf	29,4	;volatile
  6703     0DA1                     i1l195:
  6704     0DA1  0008               	return
  6705     0DA2                     __end_of_EUSART_DefaultOverrunErrorHandler:
  6706                           
  6707                           	psect	text30
  6708     0003                     __ptext30:	
  6709 ;; *************** function _EUSART_DefaultFramingErrorHandler *****************
  6710 ;; Defined at:
  6711 ;;		line 229 in file "mcc_generated_files/eusart.c"
  6712 ;; Parameters:    Size  Location     Type
  6713 ;;		None
  6714 ;; Auto vars:     Size  Location     Type
  6715 ;;		None
  6716 ;; Return value:  Size  Location     Type
  6717 ;;                  1    wreg      void 
  6718 ;; Registers used:
  6719 ;;		None
  6720 ;; Tracked objects:
  6721 ;;		On entry : 0/0
  6722 ;;		On exit  : 0/0
  6723 ;;		Unchanged: 0/0
  6724 ;; Data sizes:     COMMON   BANK0   BANK1   BANK2   BANK3   BANK4
  6725 ;;      Params:         0       0       0       0       0       0
  6726 ;;      Locals:         0       0       0       0       0       0
  6727 ;;      Temps:          0       0       0       0       0       0
  6728 ;;      Totals:         0       0       0       0       0       0
  6729 ;;Total ram usage:        0 bytes
  6730 ;; Hardware stack levels used: 1
  6731 ;; This function calls:
  6732 ;;		Nothing
  6733 ;; This function is called by:
  6734 ;;		_EUSART_Initialize
  6735 ;;		_EUSART_Receive_ISR
  6736 ;; This function uses a non-reentrant model
  6737 ;;
  6738                           
  6739     0003                     _EUSART_DefaultFramingErrorHandler:	
  6740                           ;psect for function _EUSART_DefaultFramingErrorHandler
  6741                           
  6742     0003                     i1l192:	
  6743                           ;incstack = 0
  6744                           ; Regs used in _EUSART_DefaultFramingErrorHandler: []
  6745                           
  6746     0003  0008               	return
  6747     0004                     __end_of_EUSART_DefaultFramingErrorHandler:
  6748                           
  6749                           	psect	text31
  6750     0D9A                     __ptext31:	
  6751 ;; *************** function _EUSART_DefaultErrorHandler *****************
  6752 ;; Defined at:
  6753 ;;		line 239 in file "mcc_generated_files/eusart.c"
  6754 ;; Parameters:    Size  Location     Type
  6755 ;;		None
  6756 ;; Auto vars:     Size  Location     Type
  6757 ;;		None
  6758 ;; Return value:  Size  Location     Type
  6759 ;;                  1    wreg      void 
  6760 ;; Registers used:
  6761 ;;		wreg, fsr1l, fsr1h, status,2, status,0, pclath, cstack
  6762 ;; Tracked objects:
  6763 ;;		On entry : 0/0
  6764 ;;		On exit  : 0/0
  6765 ;;		Unchanged: 0/0
  6766 ;; Data sizes:     COMMON   BANK0   BANK1   BANK2   BANK3   BANK4
  6767 ;;      Params:         0       0       0       0       0       0
  6768 ;;      Locals:         0       0       0       0       0       0
  6769 ;;      Temps:          0       0       0       0       0       0
  6770 ;;      Totals:         0       0       0       0       0       0
  6771 ;;Total ram usage:        0 bytes
  6772 ;; Hardware stack levels used: 1
  6773 ;; Hardware stack levels required when called: 1
  6774 ;; This function calls:
  6775 ;;		_EUSART_RxDataHandler
  6776 ;; This function is called by:
  6777 ;;		_EUSART_Initialize
  6778 ;;		_EUSART_Receive_ISR
  6779 ;; This function uses a non-reentrant model
  6780 ;;
  6781                           
  6782     0D9A                     _EUSART_DefaultErrorHandler:	
  6783                           ;psect for function _EUSART_DefaultErrorHandler
  6784                           
  6785     0D9A                     i1l2526:	
  6786                           ;incstack = 0
  6787                           ; Regs used in _EUSART_DefaultErrorHandler: [wreg+fsr1l+fsr1h+status,2+status,0+pclath+c
      +                          stack]
  6788                           
  6789                           
  6790                           ;mcc_generated_files/eusart.c: 240:     EUSART_RxDataHandler();
  6791     0D9A  3185  255B  318D   	fcall	_EUSART_RxDataHandler
  6792     0D9D                     i1l198:
  6793     0D9D  0008               	return
  6794     0D9E                     __end_of_EUSART_DefaultErrorHandler:
  6795                           
  6796                           	psect	text32
  6797     055B                     __ptext32:	
  6798 ;; *************** function _EUSART_RxDataHandler *****************
  6799 ;; Defined at:
  6800 ;;		line 264 in file "mcc_generated_files/eusart.c"
  6801 ;; Parameters:    Size  Location     Type
  6802 ;;		None
  6803 ;; Auto vars:     Size  Location     Type
  6804 ;;		None
  6805 ;; Return value:  Size  Location     Type
  6806 ;;                  1    wreg      void 
  6807 ;; Registers used:
  6808 ;;		wreg, fsr1l, fsr1h, status,2, status,0
  6809 ;; Tracked objects:
  6810 ;;		On entry : 0/0
  6811 ;;		On exit  : 0/0
  6812 ;;		Unchanged: 0/0
  6813 ;; Data sizes:     COMMON   BANK0   BANK1   BANK2   BANK3   BANK4
  6814 ;;      Params:         0       0       0       0       0       0
  6815 ;;      Locals:         0       0       0       0       0       0
  6816 ;;      Temps:          0       0       0       0       0       0
  6817 ;;      Totals:         0       0       0       0       0       0
  6818 ;;Total ram usage:        0 bytes
  6819 ;; Hardware stack levels used: 1
  6820 ;; This function calls:
  6821 ;;		Nothing
  6822 ;; This function is called by:
  6823 ;;		_EUSART_Receive_ISR
  6824 ;;		_EUSART_DefaultErrorHandler
  6825 ;; This function uses a non-reentrant model
  6826 ;;
  6827                           
  6828     055B                     _EUSART_RxDataHandler:	
  6829                           ;psect for function _EUSART_RxDataHandler
  6830                           
  6831     055B                     i1l2412:	
  6832                           ;incstack = 0
  6833                           ; Regs used in _EUSART_RxDataHandler: [wreg+fsr1l+fsr1h+status,2+status,0]
  6834                           
  6835                           
  6836                           ;mcc_generated_files/eusart.c: 266:     TotalSerial++;
  6837     055B  3001               	movlw	1
  6838     055C  0021               	movlb	1	; select bank1
  6839     055D  07E4               	addwf	_TotalSerial^(0+128),f	;volatile
  6840     055E  3000               	movlw	0
  6841     055F  3DE5               	addwfc	(_TotalSerial+1)^(0+128),f	;volatile
  6842                           
  6843                           ;mcc_generated_files/eusart.c: 267:     UltimoDadoRecebido = RCREG;
  6844     0560  0023               	movlb	3	; select bank3
  6845     0561  0819               	movf	25,w	;volatile
  6846     0562  00FC               	movwf	_UltimoDadoRecebido	;volatile
  6847     0563                     i1l2414:
  6848                           
  6849                           ;mcc_generated_files/eusart.c: 268:     if (UltimoDadoRecebido == '>')
  6850     0563  303E               	movlw	62
  6851     0564  067C               	xorwf	_UltimoDadoRecebido,w	;volatile
  6852     0565  1D03               	btfss	3,2
  6853     0566  2D68               	goto	u106_21
  6854     0567  2D69               	goto	u106_20
  6855     0568                     u106_21:
  6856     0568  2D6A               	goto	i1l2418
  6857     0569                     u106_20:
  6858     0569                     i1l2416:
  6859                           
  6860                           ;mcc_generated_files/eusart.c: 269:         indice=0;
  6861     0569  01FD               	clrf	_indice	;volatile
  6862     056A                     i1l2418:
  6863                           
  6864                           ;mcc_generated_files/eusart.c: 270:     flags[0]=flags[1];
  6865     056A  0020               	movlb	0	; select bank0
  6866     056B  0861               	movf	_flags+1,w	;volatile
  6867     056C  00E0               	movwf	_flags	;volatile
  6868     056D                     i1l2420:
  6869                           
  6870                           ;mcc_generated_files/eusart.c: 271:     flags[1]=flags[2];
  6871     056D  0862               	movf	_flags+2,w	;volatile
  6872     056E  00E1               	movwf	_flags+1	;volatile
  6873     056F                     i1l2422:
  6874                           
  6875                           ;mcc_generated_files/eusart.c: 272:     flags[2]=flags[3];
  6876     056F  0863               	movf	_flags+3,w	;volatile
  6877     0570  00E2               	movwf	_flags+2	;volatile
  6878     0571                     i1l2424:
  6879                           
  6880                           ;mcc_generated_files/eusart.c: 273:     flags[3]=flags[4];
  6881     0571  0864               	movf	_flags+4,w	;volatile
  6882     0572  00E3               	movwf	_flags+3	;volatile
  6883     0573                     i1l2426:
  6884                           
  6885                           ;mcc_generated_files/eusart.c: 274:     flags[4]=flags[5];
  6886     0573  0865               	movf	_flags+5,w	;volatile
  6887     0574  00E4               	movwf	_flags+4	;volatile
  6888     0575                     i1l2428:
  6889                           
  6890                           ;mcc_generated_files/eusart.c: 275:     flags[5]=UltimoDadoRecebido;
  6891     0575  087C               	movf	_UltimoDadoRecebido,w	;volatile
  6892     0576  00E5               	movwf	_flags+5	;volatile
  6893     0577                     i1l2430:
  6894                           
  6895                           ;mcc_generated_files/eusart.c: 277:     if (indice<64)
  6896     0577  3040               	movlw	64
  6897     0578  027D               	subwf	_indice,w	;volatile
  6898     0579  1803               	skipnc
  6899     057A  2D7C               	goto	u107_21
  6900     057B  2D7D               	goto	u107_20
  6901     057C                     u107_21:
  6902     057C  2D86               	goto	i1l2436
  6903     057D                     u107_20:
  6904     057D                     i1l2432:
  6905                           
  6906                           ;mcc_generated_files/eusart.c: 278:     {;mcc_generated_files/eusart.c: 279:         Dad
      +                          osLora[indice]= UltimoDadoRecebido;
  6907     057D  087D               	movf	_indice,w
  6908     057E  3E20               	addlw	(low (_DadosLora| (0+256)))& (0+255)
  6909     057F  0086               	movwf	6
  6910     0580  3001               	movlw	1	; select bank2/3
  6911     0581  0087               	movwf	7
  6912     0582  087C               	movf	_UltimoDadoRecebido,w	;volatile
  6913     0583  0081               	movwf	1
  6914     0584                     i1l2434:
  6915                           
  6916                           ;mcc_generated_files/eusart.c: 280:         indice++;
  6917     0584  3001               	movlw	1
  6918     0585  07FD               	addwf	_indice,f	;volatile
  6919     0586                     i1l2436:
  6920                           
  6921                           ;mcc_generated_files/eusart.c: 283:     if ((flags[1]=='t')&&(flags[2]=='x')&&(flags[4]=
      +                          ='o')&&(flags[5]=='k'))
  6922     0586  3074               	movlw	116
  6923     0587  0661               	xorwf	_flags+1,w	;volatile
  6924     0588  1D03               	btfss	3,2
  6925     0589  2D8B               	goto	u108_21
  6926     058A  2D8C               	goto	u108_20
  6927     058B                     u108_21:
  6928     058B  2DA1               	goto	i1l2446
  6929     058C                     u108_20:
  6930     058C                     i1l2438:
  6931     058C  3078               	movlw	120
  6932     058D  0662               	xorwf	_flags+2,w	;volatile
  6933     058E  1D03               	btfss	3,2
  6934     058F  2D91               	goto	u109_21
  6935     0590  2D92               	goto	u109_20
  6936     0591                     u109_21:
  6937     0591  2DA1               	goto	i1l2446
  6938     0592                     u109_20:
  6939     0592                     i1l2440:
  6940     0592  306F               	movlw	111
  6941     0593  0664               	xorwf	_flags+4,w	;volatile
  6942     0594  1D03               	btfss	3,2
  6943     0595  2D97               	goto	u110_21
  6944     0596  2D98               	goto	u110_20
  6945     0597                     u110_21:
  6946     0597  2DA1               	goto	i1l2446
  6947     0598                     u110_20:
  6948     0598                     i1l2442:
  6949     0598  306B               	movlw	107
  6950     0599  0665               	xorwf	_flags+5,w	;volatile
  6951     059A  1D03               	btfss	3,2
  6952     059B  2D9D               	goto	u111_21
  6953     059C  2D9E               	goto	u111_20
  6954     059D                     u111_21:
  6955     059D  2DA1               	goto	i1l2446
  6956     059E                     u111_20:
  6957     059E                     i1l2444:
  6958                           
  6959                           ;mcc_generated_files/eusart.c: 284:         fTxOk=1;
  6960     059E  3001               	movlw	1
  6961     059F  00EA               	movwf	_fTxOk	;volatile
  6962     05A0  2DBB               	goto	i1l2456
  6963     05A1                     i1l2446:
  6964     05A1  300D               	movlw	13
  6965     05A2  0662               	xorwf	_flags+2,w	;volatile
  6966     05A3  1D03               	btfss	3,2
  6967     05A4  2DA6               	goto	u112_21
  6968     05A5  2DA7               	goto	u112_20
  6969     05A6                     u112_21:
  6970     05A6  2DBB               	goto	i1l2456
  6971     05A7                     u112_20:
  6972     05A7                     i1l2448:
  6973     05A7  300A               	movlw	10
  6974     05A8  0663               	xorwf	_flags+3,w	;volatile
  6975     05A9  1D03               	btfss	3,2
  6976     05AA  2DAC               	goto	u113_21
  6977     05AB  2DAD               	goto	u113_20
  6978     05AC                     u113_21:
  6979     05AC  2DBB               	goto	i1l2456
  6980     05AD                     u113_20:
  6981     05AD                     i1l2450:
  6982     05AD  304F               	movlw	79
  6983     05AE  0664               	xorwf	_flags+4,w	;volatile
  6984     05AF  1D03               	btfss	3,2
  6985     05B0  2DB2               	goto	u114_21
  6986     05B1  2DB3               	goto	u114_20
  6987     05B2                     u114_21:
  6988     05B2  2DBB               	goto	i1l2456
  6989     05B3                     u114_20:
  6990     05B3                     i1l2452:
  6991     05B3  304B               	movlw	75
  6992     05B4  0665               	xorwf	_flags+5,w	;volatile
  6993     05B5  1D03               	btfss	3,2
  6994     05B6  2DB8               	goto	u115_21
  6995     05B7  2DB9               	goto	u115_20
  6996     05B8                     u115_21:
  6997     05B8  2DBB               	goto	i1l2456
  6998     05B9                     u115_20:
  6999     05B9                     i1l2454:
  7000                           
  7001                           ;mcc_generated_files/eusart.c: 286:         fOK=1;
  7002     05B9  3001               	movlw	1
  7003     05BA  00EF               	movwf	_fOK	;volatile
  7004     05BB                     i1l2456:
  7005                           
  7006                           ;mcc_generated_files/eusart.c: 287:     if ((flags[2]=='O')&&(flags[3]=='T')&&(flags[4]=
      +                          ='A')&&(flags[5]=='A'))
  7007     05BB  304F               	movlw	79
  7008     05BC  0662               	xorwf	_flags+2,w	;volatile
  7009     05BD  1D03               	btfss	3,2
  7010     05BE  2DC0               	goto	u116_21
  7011     05BF  2DC1               	goto	u116_20
  7012     05C0                     u116_21:
  7013     05C0  2DD6               	goto	i1l2466
  7014     05C1                     u116_20:
  7015     05C1                     i1l2458:
  7016     05C1  3054               	movlw	84
  7017     05C2  0663               	xorwf	_flags+3,w	;volatile
  7018     05C3  1D03               	btfss	3,2
  7019     05C4  2DC6               	goto	u117_21
  7020     05C5  2DC7               	goto	u117_20
  7021     05C6                     u117_21:
  7022     05C6  2DD6               	goto	i1l2466
  7023     05C7                     u117_20:
  7024     05C7                     i1l2460:
  7025     05C7  3041               	movlw	65
  7026     05C8  0664               	xorwf	_flags+4,w	;volatile
  7027     05C9  1D03               	btfss	3,2
  7028     05CA  2DCC               	goto	u118_21
  7029     05CB  2DCD               	goto	u118_20
  7030     05CC                     u118_21:
  7031     05CC  2DD6               	goto	i1l2466
  7032     05CD                     u118_20:
  7033     05CD                     i1l2462:
  7034     05CD  3041               	movlw	65
  7035     05CE  0665               	xorwf	_flags+5,w	;volatile
  7036     05CF  1D03               	btfss	3,2
  7037     05D0  2DD2               	goto	u119_21
  7038     05D1  2DD3               	goto	u119_20
  7039     05D2                     u119_21:
  7040     05D2  2DD6               	goto	i1l2466
  7041     05D3                     u119_20:
  7042     05D3                     i1l2464:
  7043                           
  7044                           ;mcc_generated_files/eusart.c: 288:         fAtOk=1;
  7045     05D3  3001               	movlw	1
  7046     05D4  00ED               	movwf	_fAtOk	;volatile
  7047     05D5  2DF6               	goto	i1l2478
  7048     05D6                     i1l2466:
  7049     05D6  3041               	movlw	65
  7050     05D7  0661               	xorwf	_flags+1,w	;volatile
  7051     05D8  1D03               	btfss	3,2
  7052     05D9  2DDB               	goto	u120_21
  7053     05DA  2DDC               	goto	u120_20
  7054     05DB                     u120_21:
  7055     05DB  2DF6               	goto	i1l2478
  7056     05DC                     u120_20:
  7057     05DC                     i1l2468:
  7058     05DC  3054               	movlw	84
  7059     05DD  0662               	xorwf	_flags+2,w	;volatile
  7060     05DE  1D03               	btfss	3,2
  7061     05DF  2DE1               	goto	u121_21
  7062     05E0  2DE2               	goto	u121_20
  7063     05E1                     u121_21:
  7064     05E1  2DF6               	goto	i1l2478
  7065     05E2                     u121_20:
  7066     05E2                     i1l2470:
  7067     05E2  305F               	movlw	95
  7068     05E3  0663               	xorwf	_flags+3,w	;volatile
  7069     05E4  1D03               	btfss	3,2
  7070     05E5  2DE7               	goto	u122_21
  7071     05E6  2DE8               	goto	u122_20
  7072     05E7                     u122_21:
  7073     05E7  2DF6               	goto	i1l2478
  7074     05E8                     u122_20:
  7075     05E8                     i1l2472:
  7076     05E8  3045               	movlw	69
  7077     05E9  0664               	xorwf	_flags+4,w	;volatile
  7078     05EA  1D03               	btfss	3,2
  7079     05EB  2DED               	goto	u123_21
  7080     05EC  2DEE               	goto	u123_20
  7081     05ED                     u123_21:
  7082     05ED  2DF6               	goto	i1l2478
  7083     05EE                     u123_20:
  7084     05EE                     i1l2474:
  7085     05EE  3052               	movlw	82
  7086     05EF  0665               	xorwf	_flags+5,w	;volatile
  7087     05F0  1D03               	btfss	3,2
  7088     05F1  2DF3               	goto	u124_21
  7089     05F2  2DF4               	goto	u124_20
  7090     05F3                     u124_21:
  7091     05F3  2DF6               	goto	i1l2478
  7092     05F4                     u124_20:
  7093     05F4                     i1l2476:
  7094                           
  7095                           ;mcc_generated_files/eusart.c: 290:         fATerr=1;
  7096     05F4  3001               	movlw	1
  7097     05F5  00EE               	movwf	_fATerr	;volatile
  7098     05F6                     i1l2478:
  7099                           
  7100                           ;mcc_generated_files/eusart.c: 294:     if (indice==17)
  7101     05F6  3011               	movlw	17
  7102     05F7  067D               	xorwf	_indice,w	;volatile
  7103     05F8  1D03               	btfss	3,2
  7104     05F9  2DFB               	goto	u125_21
  7105     05FA  2DFC               	goto	u125_20
  7106     05FB                     u125_21:
  7107     05FB  2E12               	goto	i1l2490
  7108     05FC                     u125_20:
  7109     05FC                     i1l2480:
  7110                           
  7111                           ;mcc_generated_files/eusart.c: 295:     {;mcc_generated_files/eusart.c: 296:         __n
      +                          op();
  7112     05FC  0000               	nop
  7113     05FD                     i1l2482:
  7114                           
  7115                           ;mcc_generated_files/eusart.c: 297:         if ( (DadosLora[ 2] == 'E')&&
  7116     05FD  3045               	movlw	69
  7117     05FE  0022               	movlb	2	; select bank2
  7118     05FF  0622               	xorwf	(_DadosLora^(0+256)+2),w	;volatile
  7119     0600  1D03               	btfss	3,2
  7120     0601  2E03               	goto	u126_21
  7121     0602  2E04               	goto	u126_20
  7122     0603                     u126_21:
  7123     0603  2E12               	goto	i1l2490
  7124     0604                     u126_20:
  7125     0604                     i1l2484:
  7126     0604  3041               	movlw	65
  7127     0605  0623               	xorwf	(_DadosLora^(0+256)+3),w	;volatile
  7128     0606  1D03               	btfss	3,2
  7129     0607  2E09               	goto	u127_21
  7130     0608  2E0A               	goto	u127_20
  7131     0609                     u127_21:
  7132     0609  2E12               	goto	i1l2490
  7133     060A                     u127_20:
  7134     060A                     i1l2486:
  7135     060A  3045               	movlw	69
  7136     060B  062E               	xorwf	(_DadosLora^(0+256)+14),w	;volatile
  7137     060C  1D03               	btfss	3,2
  7138     060D  2E0F               	goto	u128_21
  7139     060E  2E10               	goto	u128_20
  7140     060F                     u128_21:
  7141     060F  2E12               	goto	i1l2490
  7142     0610                     u128_20:
  7143     0610                     i1l2488:
  7144                           
  7145                           ;mcc_generated_files/eusart.c: 301:         {;mcc_generated_files/eusart.c: 302:        
      +                               fRetLora=1;
  7146     0610  3001               	movlw	1
  7147     0611  00FB               	movwf	_fRetLora	;volatile
  7148     0612                     i1l2490:
  7149                           
  7150                           ;mcc_generated_files/eusart.c: 306:     if ( (DadosLora[2]=='I')&&(DadosLora[7]=='D') )
  7151     0612  3049               	movlw	73
  7152     0613  0022               	movlb	2	; select bank2
  7153     0614  0622               	xorwf	(_DadosLora^(0+256)+2),w	;volatile
  7154     0615  1D03               	btfss	3,2
  7155     0616  2E18               	goto	u129_21
  7156     0617  2E19               	goto	u129_20
  7157     0618                     u129_21:
  7158     0618  2E32               	goto	i1l2498
  7159     0619                     u129_20:
  7160     0619                     i1l2492:
  7161     0619  3044               	movlw	68
  7162     061A  0627               	xorwf	(_DadosLora^(0+256)+7),w	;volatile
  7163     061B  1D03               	btfss	3,2
  7164     061C  2E1E               	goto	u130_21
  7165     061D  2E1F               	goto	u130_20
  7166     061E                     u130_21:
  7167     061E  2E32               	goto	i1l2498
  7168     061F                     u130_20:
  7169     061F                     i1l2494:
  7170                           
  7171                           ;mcc_generated_files/eusart.c: 307:     {;mcc_generated_files/eusart.c: 308:         fPr
      +                          ogID=1;
  7172     061F  3001               	movlw	1
  7173     0620  0021               	movlb	1	; select bank1
  7174     0621  00EF               	movwf	_fProgID^(0+128)	;volatile
  7175     0622                     i1l2496:
  7176                           
  7177                           ;mcc_generated_files/eusart.c: 309:         ID[0] = DadosLora[3]; ID[1] = DadosLora[4];
  7178     0622  0022               	movlb	2	; select bank2
  7179     0623  0823               	movf	(_DadosLora^(0+256)+3),w	;volatile
  7180     0624  0021               	movlb	1	; select bank1
  7181     0625  00DA               	movwf	_ID^(0+128)	;volatile
  7182     0626  0022               	movlb	2	; select bank2
  7183     0627  0824               	movf	(_DadosLora^(0+256)+4),w	;volatile
  7184     0628  0021               	movlb	1	; select bank1
  7185     0629  00DB               	movwf	(_ID^(0+128)+1)	;volatile
  7186                           
  7187                           ;mcc_generated_files/eusart.c: 310:         ID[2] = DadosLora[5]; ID[3] = DadosLora[6];
  7188     062A  0022               	movlb	2	; select bank2
  7189     062B  0825               	movf	(_DadosLora^(0+256)+5),w	;volatile
  7190     062C  0021               	movlb	1	; select bank1
  7191     062D  00DC               	movwf	(_ID^(0+128)+2)	;volatile
  7192     062E  0022               	movlb	2	; select bank2
  7193     062F  0826               	movf	(_DadosLora^(0+256)+6),w	;volatile
  7194     0630  0021               	movlb	1	; select bank1
  7195     0631  00DD               	movwf	(_ID^(0+128)+3)	;volatile
  7196     0632                     i1l2498:
  7197                           
  7198                           ;mcc_generated_files/eusart.c: 312:     __nop();
  7199     0632  0000               	nop
  7200     0633                     i1l2500:
  7201                           
  7202                           ;mcc_generated_files/eusart.c: 313:     __nop();
  7203     0633  0000               	nop
  7204     0634                     i1l2502:
  7205                           
  7206                           ;mcc_generated_files/eusart.c: 314:     __nop();
  7207     0634  0000               	nop
  7208     0635                     i1l2504:
  7209                           
  7210                           ;mcc_generated_files/eusart.c: 316:     eusartRxBuffer[eusartRxHead++] = UltimoDadoReceb
      +                          ido;
  7211     0635  0021               	movlb	1	; select bank1
  7212     0636  086B               	movf	_eusartRxHead^(0+128),w
  7213     0637  3E20               	addlw	(low (_eusartRxBuffer| 0))& (0+255)
  7214     0638  0086               	movwf	6
  7215     0639  0187               	clrf	7
  7216     063A  087C               	movf	_UltimoDadoRecebido,w	;volatile
  7217     063B  0081               	movwf	1
  7218     063C                     i1l2506:
  7219     063C  3001               	movlw	1
  7220     063D  07EB               	addwf	_eusartRxHead^(0+128),f	;volatile
  7221     063E                     i1l2508:
  7222                           
  7223                           ;mcc_generated_files/eusart.c: 317:     if(sizeof(eusartRxBuffer) <= eusartRxHead)
  7224     063E  3040               	movlw	64
  7225     063F  026B               	subwf	_eusartRxHead^(0+128),w	;volatile
  7226     0640  1C03               	skipc
  7227     0641  2E43               	goto	u131_21
  7228     0642  2E44               	goto	u131_20
  7229     0643                     u131_21:
  7230     0643  2E45               	goto	i1l2512
  7231     0644                     u131_20:
  7232     0644                     i1l2510:
  7233                           
  7234                           ;mcc_generated_files/eusart.c: 318:     {;mcc_generated_files/eusart.c: 319:         eus
      +                          artRxHead = 0;
  7235     0644  01EB               	clrf	_eusartRxHead^(0+128)	;volatile
  7236     0645                     i1l2512:
  7237                           
  7238                           ;mcc_generated_files/eusart.c: 321:     eusartRxCount++;
  7239     0645  3001               	movlw	1
  7240     0646  07E9               	addwf	_eusartRxCount^(0+128),f	;volatile
  7241     0647                     i1l228:
  7242     0647  0008               	return
  7243     0648                     __end_of_EUSART_RxDataHandler:
  7244     0001                     ___latbits      equ	1
  7245     007E                     btemp           set	126	;btemp
  7246     007E                     int$flags       set	126
  7247     007E                     btemp0          set	126
  7248     007F                     btemp1          set	127
  7249     007E                     wtemp0          set	126
  7250     007F                     wtemp0a         set	127
  7251     007F                     ttemp0a         set	127
  7252     0080                     ltemp0a         set	128
  7253                           
  7254                           	psect	idloc
  7255                           
  7256                           ;Config register IDLOC0 @ 0x8000
  7257                           ;	unspecified, using default values
  7258     8000                     	org	32768
  7259     8000  3FFF               	dw	16383
  7260                           
  7261                           ;Config register IDLOC1 @ 0x8001
  7262                           ;	unspecified, using default values
  7263     8001                     	org	32769
  7264     8001  3FFF               	dw	16383
  7265                           
  7266                           ;Config register IDLOC2 @ 0x8002
  7267                           ;	unspecified, using default values
  7268     8002                     	org	32770
  7269     8002  3FFF               	dw	16383
  7270                           
  7271                           ;Config register IDLOC3 @ 0x8003
  7272                           ;	unspecified, using default values
  7273     8003                     	org	32771
  7274     8003  3FFF               	dw	16383
  7275                           
  7276                           	psect	config
  7277                           
  7278                           ;Config register CONFIG1 @ 0x8007
  7279                           ;	Oscillator Selection
  7280                           ;	FOSC = INTOSC, INTOSC oscillator: I/O function on CLKIN pin
  7281                           ;	Watchdog Timer Enable
  7282                           ;	WDTE = SWDTEN, WDT controlled by the SWDTEN bit in the WDTCON register
  7283                           ;	Power-up Timer Enable
  7284                           ;	PWRTE = OFF, PWRT disabled
  7285                           ;	MCLR Pin Function Select
  7286                           ;	MCLRE = ON, MCLR/VPP pin function is MCLR
  7287                           ;	Flash Program Memory Code Protection
  7288                           ;	CP = ON, Program memory code protection is enabled
  7289                           ;	Data Memory Code Protection
  7290                           ;	CPD = OFF, Data memory code protection is disabled
  7291                           ;	Brown-out Reset Enable
  7292                           ;	BOREN = ON, Brown-out Reset enabled
  7293                           ;	Clock Out Enable
  7294                           ;	CLKOUTEN = OFF, CLKOUT function is disabled. I/O or oscillator function on the CLKOUT 
      +                          pin
  7295                           ;	Internal/External Switchover
  7296                           ;	IESO = ON, Internal/External Switchover mode is enabled
  7297                           ;	Fail-Safe Clock Monitor Enable
  7298                           ;	FCMEN = ON, Fail-Safe Clock Monitor is enabled
  7299     8007                     	org	32775
  7300     8007  3F6C               	dw	16236
  7301                           
  7302                           ;Config register CONFIG2 @ 0x8008
  7303                           ;	Flash Memory Self-Write Protection
  7304                           ;	WRT = OFF, Write protection off
  7305                           ;	PLL Enable
  7306                           ;	PLLEN = OFF, 4x PLL disabled
  7307                           ;	Stack Overflow/Underflow Reset Enable
  7308                           ;	STVREN = ON, Stack Overflow or Underflow will cause a Reset
  7309                           ;	Brown-out Reset Voltage Selection
  7310                           ;	BORV = LO, Brown-out Reset Voltage (Vbor), low trip point selected.
  7311                           ;	In-Circuit Debugger Mode
  7312                           ;	DEBUG = 0x1, unprogrammed default
  7313                           ;	Low-Voltage Programming Enable
  7314                           ;	LVP = OFF, High-voltage on MCLR/VPP must be used for programming
  7315     8008                     	org	32776
  7316     8008  1EFF               	dw	7935

Data Sizes:
    Strings     0
    Constant    111
    Data        0
    BSS         348
    Persistent  50
    Stack       0

Auto Spaces:
    Space          Size  Autos    Used
    COMMON           14     11      14
    BANK0            80      0      80
    BANK1            80      0      80
    BANK2            80      0      80
    BANK3            80      0      80
    BANK4            48      0      27

Pointer List with Targets:

    EUSART_ErrorHandler	PTR FTN()void  size(2) Largest target is 1
		 -> EUSART_DefaultErrorHandler(), NULL(), 

    EUSART_FramingErrorHandler	PTR FTN()void  size(2) Largest target is 1
		 -> EUSART_DefaultFramingErrorHandler(), NULL(), 

    EUSART_OverrunErrorHandler	PTR FTN()void  size(2) Largest target is 1
		 -> EUSART_DefaultOverrunErrorHandler(), NULL(), 

    EUSART_RxDefaultInterruptHandler	PTR FTN()void  size(2) Largest target is 1
		 -> EUSART_Receive_ISR(), NULL(), 

    EUSART_SetErrorHandler@interruptHandler	PTR FTN()void  size(2) Largest target is 1
		 -> EUSART_DefaultErrorHandler(), 

    EUSART_SetFramingErrorHandler@interruptHandler	PTR FTN()void  size(2) Largest target is 1
		 -> EUSART_DefaultFramingErrorHandler(), 

    EUSART_SetOverrunErrorHandler@interruptHandler	PTR FTN()void  size(2) Largest target is 1
		 -> EUSART_DefaultOverrunErrorHandler(), 

    EUSART_SetRxInterruptHandler@interruptHandler	PTR FTN()void  size(2) Largest target is 1
		 -> EUSART_Receive_ISR(), 

    EUSART_SetTxInterruptHandler@interruptHandler	PTR FTN()void  size(2) Largest target is 1
		 -> EUSART_Transmit_ISR(), 

    EUSART_TxDefaultInterruptHandler	PTR FTN()void  size(2) Largest target is 1
		 -> EUSART_Transmit_ISR(), NULL(), 


Critical Paths under _main in COMMON

    _main->_TesteEnvio
    _TesteEnvio->___lwdiv
    _SM_MODORX->_EUSART_Write
    _TX_Lora->_SM_CFOFF
    _TX_Lora->_SM_CONFIGRADIO
    _SM_CONFIGRADIO->_EUSART_Write
    _SM_CFOFF->_EUSART_Write
    _SM_START->_SM_RESET
    _SM_RESET->_EUSART_Write
    _ErrCode->_ModuloOff
    _EUSART_Initialize->_EUSART_SetErrorHandler
    _EUSART_Initialize->_EUSART_SetFramingErrorHandler
    _EUSART_Initialize->_EUSART_SetOverrunErrorHandler
    _EUSART_Initialize->_EUSART_SetRxInterruptHandler
    _EUSART_Initialize->_EUSART_SetTxInterruptHandler

Critical Paths under _INTERRUPT_InterruptManager in COMMON

    None.

Critical Paths under _main in BANK0

    None.

Critical Paths under _INTERRUPT_InterruptManager in BANK0

    None.

Critical Paths under _main in BANK1

    None.

Critical Paths under _INTERRUPT_InterruptManager in BANK1

    None.

Critical Paths under _main in BANK2

    None.

Critical Paths under _INTERRUPT_InterruptManager in BANK2

    None.

Critical Paths under _main in BANK3

    None.

Critical Paths under _INTERRUPT_InterruptManager in BANK3

    None.

Critical Paths under _main in BANK4

    None.

Critical Paths under _INTERRUPT_InterruptManager in BANK4

    None.

Call Graph Tables:

 ---------------------------------------------------------------------------------
 (Depth) Function   	        Calls       Base Space   Used Autos Params    Refs
 ---------------------------------------------------------------------------------
 (0) _main                                                 2     2      0    1573
                                              9 COMMON     2     2      0
                  _EUSART_Initialize
                            _ErrCode
                          _ModuloOff
              _OSCILLATOR_Initialize
             _PIN_MANAGER_Initialize
                           _SM_CFOFF
                     _SM_CONFIGRADIO
                          _SM_MODORX
                           _SM_START
                            _TX_Lora
                         _TesteEnvio
                     _WDT_Initialize
                            ___lwdiv
                            ___lwmod
                             ___wmul
 ---------------------------------------------------------------------------------
 (1) ___wmul                                               6     2      4     100
                                              0 COMMON     6     2      4
 ---------------------------------------------------------------------------------
 (1) _WDT_Initialize                                       0     0      0       0
 ---------------------------------------------------------------------------------
 (1) _TesteEnvio                                           2     2      0     577
                                              7 COMMON     2     2      0
                       _EUSART_Reset
                       _EUSART_Write
                           _SM_CFOFF
                     _SM_CONFIGRADIO
                          _SM_MODORX
                            ___lwdiv
                            ___lwmod
 ---------------------------------------------------------------------------------
 (2) ___lwmod                                              5     1      4     171
                                              0 COMMON     5     1      4
 ---------------------------------------------------------------------------------
 (2) ___lwdiv                                              7     3      4     174
                                              0 COMMON     7     3      4
 ---------------------------------------------------------------------------------
 (2) _SM_MODORX                                            3     3      0      58
                                              1 COMMON     2     2      0
                       _EUSART_Reset
                       _EUSART_Write
 ---------------------------------------------------------------------------------
 (1) _TX_Lora                                              1     1      0     174
                                              3 COMMON     1     1      0
                       _EUSART_Reset
                       _EUSART_Write
                        _Espera_TxOk
                           _ModuloOn
                           _SM_CFOFF
                     _SM_CONFIGRADIO
 ---------------------------------------------------------------------------------
 (2) _SM_CONFIGRADIO                                       3     3      0      58
                                              1 COMMON     2     2      0
                       _EUSART_Reset
                       _EUSART_Write
 ---------------------------------------------------------------------------------
 (2) _SM_CFOFF                                             2     2      0      58
                                              1 COMMON     2     2      0
                       _EUSART_Reset
                       _EUSART_Write
 ---------------------------------------------------------------------------------
 (2) _Espera_TxOk                                          1     1      0       0
                                              0 COMMON     1     1      0
 ---------------------------------------------------------------------------------
 (1) _SM_START                                             2     2      0      58
                                              3 COMMON     2     2      0
                       _EUSART_Reset
                           _ModuloOn
                           _SM_RESET
 ---------------------------------------------------------------------------------
 (2) _SM_RESET                                             2     2      0      58
                                              1 COMMON     2     2      0
                       _EUSART_Reset
                       _EUSART_Write
 ---------------------------------------------------------------------------------
 (3) _EUSART_Write                                         1     1      0      58
                                              0 COMMON     1     1      0
 ---------------------------------------------------------------------------------
 (3) _EUSART_Reset                                         0     0      0       0
 ---------------------------------------------------------------------------------
 (2) _ModuloOn                                             2     2      0       0
                                              0 COMMON     2     2      0
 ---------------------------------------------------------------------------------
 (1) _PIN_MANAGER_Initialize                               0     0      0       0
 ---------------------------------------------------------------------------------
 (1) _OSCILLATOR_Initialize                                0     0      0       0
 ---------------------------------------------------------------------------------
 (1) _ErrCode                                              4     4      0      30
                                              1 COMMON     3     3      0
                          _ModuloOff
 ---------------------------------------------------------------------------------
 (2) _ModuloOff                                            1     1      0       0
                                              0 COMMON     1     1      0
 ---------------------------------------------------------------------------------
 (1) _EUSART_Initialize                                    0     0      0     115
             _EUSART_SetErrorHandler
      _EUSART_SetFramingErrorHandler
      _EUSART_SetOverrunErrorHandler
       _EUSART_SetRxInterruptHandler
       _EUSART_SetTxInterruptHandler
 ---------------------------------------------------------------------------------
 (2) _EUSART_SetTxInterruptHandler                         2     0      2      23
                                              0 COMMON     2     0      2
 ---------------------------------------------------------------------------------
 (2) _EUSART_SetRxInterruptHandler                         2     0      2      23
                                              0 COMMON     2     0      2
 ---------------------------------------------------------------------------------
 (2) _EUSART_SetOverrunErrorHandler                        2     0      2      23
                                              0 COMMON     2     0      2
 ---------------------------------------------------------------------------------
 (2) _EUSART_SetFramingErrorHandler                        2     0      2      23
                                              0 COMMON     2     0      2
 ---------------------------------------------------------------------------------
 (2) _EUSART_SetErrorHandler                               2     0      2      23
                                              0 COMMON     2     0      2
 ---------------------------------------------------------------------------------
 Estimated maximum stack depth 3
 ---------------------------------------------------------------------------------
 (Depth) Function   	        Calls       Base Space   Used Autos Params    Refs
 ---------------------------------------------------------------------------------
 (4) _INTERRUPT_InterruptManager                           0     0      0       0
                                NULL *
                 _EUSART_Receive_ISR *
                _EUSART_Transmit_ISR *
 ---------------------------------------------------------------------------------
 (5) _EUSART_Transmit_ISR                                  0     0      0       0
 ---------------------------------------------------------------------------------
 (5) _EUSART_Receive_ISR                                   0     0      0       0
                                NULL *
         _EUSART_DefaultErrorHandler *
  _EUSART_DefaultFramingErrorHandler *
  _EUSART_DefaultOverrunErrorHandler *
               _EUSART_RxDataHandler
 ---------------------------------------------------------------------------------
 (6) _EUSART_DefaultOverrunErrorHandler                    0     0      0       0
 ---------------------------------------------------------------------------------
 (6) _EUSART_DefaultFramingErrorHandler                    0     0      0       0
 ---------------------------------------------------------------------------------
 (6) _EUSART_DefaultErrorHandler                           0     0      0       0
               _EUSART_RxDataHandler
 ---------------------------------------------------------------------------------
 (7) _EUSART_RxDataHandler                                 0     0      0       0
 ---------------------------------------------------------------------------------
 (6) NULL(Fake)                                            0     0      0       0
 ---------------------------------------------------------------------------------
 Estimated maximum stack depth 7
 ---------------------------------------------------------------------------------

 Call Graph Graphs:

 _main (ROOT)
   _EUSART_Initialize
     _EUSART_SetErrorHandler
     _EUSART_SetFramingErrorHandler
     _EUSART_SetOverrunErrorHandler
     _EUSART_SetRxInterruptHandler
     _EUSART_SetTxInterruptHandler
   _ErrCode
     _ModuloOff
   _ModuloOff
   _OSCILLATOR_Initialize
   _PIN_MANAGER_Initialize
   _SM_CFOFF
     _EUSART_Reset
     _EUSART_Write
   _SM_CONFIGRADIO
     _EUSART_Reset
     _EUSART_Write
   _SM_MODORX
     _EUSART_Reset
     _EUSART_Write
   _SM_START
     _EUSART_Reset
     _ModuloOn
     _SM_RESET
       _EUSART_Reset
       _EUSART_Write
   _TX_Lora
     _EUSART_Reset
     _EUSART_Write
     _Espera_TxOk
     _ModuloOn
     _SM_CFOFF
     _SM_CONFIGRADIO
   _TesteEnvio
     _EUSART_Reset
     _EUSART_Write
     _SM_CFOFF
     _SM_CONFIGRADIO
     _SM_MODORX
     ___lwdiv
     ___lwmod
   _WDT_Initialize
   ___lwdiv
   ___lwmod
   ___wmul

 _INTERRUPT_InterruptManager (ROOT)
   NULL(Fake) *
   _EUSART_Receive_ISR *
     NULL(Fake) *
     _EUSART_DefaultErrorHandler *
       _EUSART_RxDataHandler
     _EUSART_DefaultFramingErrorHandler *
     _EUSART_DefaultOverrunErrorHandler *
     _EUSART_RxDataHandler *
   _EUSART_Transmit_ISR *

Address spaces:
Name               Size   Autos  Total    Usage
BITCOMMON           14      0       0      0.0%
BITBANK0            80      0       0      0.0%
BITBANK1            80      0       0      0.0%
BITBANK2            80      0       0      0.0%
BITBANK3            80      0       0      0.0%
BITBANK4            48      0       0      0.0%
BIGRAM             368      0       0      0.0%
COMMON              14     11      14    100.0%
BANK0               80      0      80    100.0%
BANK1               80      0      80    100.0%
BANK2               80      0      80    100.0%
BANK3               80      0      80    100.0%
BANK4               48      0      27     56.2%
STACK                0      0       0      0.0%
DATA                 0      0     361      0.0%


Microchip Technology PIC Macro Assembler V3.10 build 20250813170317 
Symbol Table                                                                                   Sat May 23 15:22:14 2026

                ?_EUSART_SetRxInterruptHandler 0070                                             l14 0DD0  
                                           l17 0DA5                                             _ID 00DA  
                                           _HH 022E                                             _LL 022D  
                          ___wmul@multiplicand 0072                                            l201 0DB1  
                                          l210 0DC3                                            l204 0DB7  
                                          l213 0DBD                                            l207 0DAB  
                                          l144 0FA7                                            l145 0FC2  
                                          l171 0E82                                            l148 0FFF  
                                          l172 0E89                                            l253 0DFC  
                                          l173 0E91                                            l176 0EA5  
                                          l605 0069                                            l542 0F2C  
                                          l536 0ED2                                            l529 0E5A  
                                          l490 0DD1                                            l554 0EFF  
                                          l810 0E24                                            l706 0421  
                                          l483 0E5B                                            l651 0154  
                                          l580 06C7                                            l548 0F5C  
                                          l812 0E38                                            l493 0DDC  
                                          l573 0649                                            l494 0DE3  
                                          l590 0469                                            l662 018C  
                                          l487 0E7F                                            l655 0160  
                                          l568 0787                                            l585 0448  
                                          l665 01A1                                            l690 0372  
                                          l658 016B                                            l588 0458  
                                          l597 055A                                            l685 0355  
                                          l688 0364                                            l698 03E3  
                                          _fAT 00E7                                            _fOK 006F  
                       ??_EUSART_RxDataHandler 0070                                            _tMs 01EE  
               ?_EUSART_SetFramingErrorHandler 0070                                            wreg 0009  
                                         l1100 0F8E                                           l3000 0075  
                                         l1090 07FF                                           l3010 007F  
                                         l3002 0077                                           l3100 012F  
                                         l3020 0089                                           l3012 0080  
                                         l3004 0079                                           l3110 0141  
                                         l3102 0130                                           l3030 0099  
                                         l3022 008A                                           l3014 0082  
                                         l3006 007C                                           l2400 0E92  
                                         l3200 026C                                           l3120 0165  
                                         l3112 0147                                           l3104 0131  
                                         l3040 00AC                                           l3032 009A  
                                         l3024 008B                                           l3016 0085  
                                         l3008 007E                                           l2402 0E98  
                                         l2410 0EA3                                           l3210 02A9  
                                         l3202 0272                                           l3130 0193  
                                         l3122 016C                                           l3114 014C  
                                         l3106 0136                                           l3050 00BF  
                                         l3042 00B0                                           l3034 009C  
                                         l3026 0090                                           l3018 0088  
                                         l2404 0E9A                                           l3300 041B  
                                         l3220 02C2                                           l3212 02AD  
                                         l3140 01B5                                           l3132 019D  
                                         l3124 0180                                           l3116 0157  
                                         l3108 0139                                           l3060 00D1  
                                         l3052 00C0                                           l3044 00B4  
                                         l3036 009D                                           l3028 0095  
                                         l2406 0EA0                                           l3302 041C  
                                         l3310 0429                                           l3230 02E6  
                                         l3222 02C7                                           l3214 02B4  
                                         l3206 0278                                           l3150 01C1  
                                         l3142 01B6                                           l3134 01AF  
                                         l3126 0189                                           l3118 0162  
                                         l3070 00ED                                           l3062 00D2  
                                         l3054 00C2                                           l3046 00B7  
                                         l3038 00A9                                           l2520 0DB2  
                                         l2408 0EA1                                           l2600 0ED6  
                                         l3320 043C                                           l3304 041E  
                                         l3312 042E                                           l3240 0356  
                                         l3232 02FA                                           l3224 02CC  
                                         l3216 02BC                                           l3208 0299  
                                         l3160 01D5                                           l3152 01C5  
                                         l3144 01B9                                           l3136 01B1  
                                         l3128 018D                                           l3080 00FF  
                                         l3072 00EF                                           l3064 00DE  
                                         l3056 00C3                                           l3048 00BB  
                                         l2522 0DA6                                           l2514 0DB8  
                                         l2530 0E69                                           l2602 0ED9  
                                         l2610 07C6                                           l3322 0440  
                                         l3314 0431                                           l3306 0420  
                                         l3250 038C                                           l3242 0362  
                                         l3234 0317                                           l3226 02D1  
                                         l3218 02BD                                           l3170 01E6  
                                         l3154 01C8                                           l3146 01BA  
                                         l3138 01B2                                           l3162 01D9  
                                         l3090 011B                                           l3082 010B  
                                         l3074 00F0                                           l3066 00E0  
                                         l3058 00CF                                           l2516 0DBE  
                                         l2540 0E6F                                           l2532 0E6A  
                                         l2380 0F8F                                           l2604 0EE4  
                                         l2620 07D8                                           l2612 07C8  
                                         l3316 0435                                           l3308 0426  
                                         l3260 03A8                                           l3252 038F  
                                         l3244 0370                                           l3236 034C  
                                         l3228 02D2                                           l3180 020F  
                                         l3172 01EA                                           l3164 01DF  
                                         l3156 01CC                                           l3148 01BD  
                                         l3092 011C                                           l3084 010D  
                                         l3076 00FC                                           l3068 00E1  
                                         l2518 0DAC                                           l2550 0DDA  
                                         l2542 0E70                                           l2534 0E6B  
                                         l2382 0F90                                           l2606 0EE7  
                                         l2630 07F5                                           l2622 07DC  
                                         l2614 07CE                                           l3318 0439  
                                         l3270 03C6                                           l3262 03AA  
                                         l3254 039E                                           l3246 037E  
                                         l3238 034E                                           l3190 0252  
                                         l3182 021D                                           l3174 01EE  
                                         l3166 01E0                                           l3158 01D0  
                                         l3094 011F                                           l3086 010E  
                                         l3078 00FE                                           l2544 0E71  
                                         l2536 0E6C                                           l2528 0E5D  
                                         l2392 0FB8                                           l2560 0EA6  
                                         l2800 075F                                           l2552 0E39  
                                         l2608 0EF3                                           l2624 07EB  
                                         l2616 07D1                                           l2632 07FB  
                                         l2640 0F66                                           l3280 03E4  
                                         l3272 03CC                                           l3264 03B3  
                                         l3256 03A1                                           l3248 0380  
                                         l3192 0254                                           l3184 022E  
                                         l3176 01EF                                           l3168 01E1  
                                         l3096 0128                                           l3088 0119  
                                         l2730 0DE6                                           l2546 0E72  
                                         l2538 0E6D                                           l2386 0F97  
                                         l2394 0E81                                           l2570 0EC6  
                                         l2562 0EA9                                           l2810 077D  
                                         l2802 0767                                           l2554 0E3D  
                                         l2626 07EF                                           l2618 07D6  
                                         l2650 0F7F                                           l2642 0F6B  
                                         l3290 03FE                                           l3282 03E9  
                                         l3274 03D2                                           l3266 03BA  
                                         l3258 03A7                                           l3194 025A  
                                         l3186 023C                                           l3178 01FE  
                                         l3098 012B                                           l2548 0DD3  
                                         l2660 0DCD                                           l2740 0DF5  
                                         l2732 0DE8                                           l2388 0FA4  
                                         l2396 0E83                                           l2564 0EAC  
                                         l2804 076D                                           l2812 0780  
                                         l2580 0F14                                           l2572 0F00  
                                         l2820 064B                                           l2628 07F0  
                                         l2652 0F84                                           l2644 0F6D  
                                         l2636 0F5D                                           l2900 0541  
                                         l3292 0404                                           l3284 03EC  
                                         l3276 03D8                                           l3268 03C0  
                                         l3196 0260                                           l3188 024B  
                                         l2670 0FD5                                           l2750 06CA  
                                         l2742 0DF7                                           l2734 0DEB  
                                         l2398 0E8D                                           l2566 0EB7  
                                         l2814 0786                                           l2558 0E54  
                                         l2582 0F20                                           l2574 0F03  
                                         l2830 0657                                           l2822 064E  
                                         l2590 0F3E                                           l2646 0F71  
                                         l2638 0F63                                           l2654 0F8A  
                                         l2910 0553                                           l2902 0544  
                                         l2662 0DA2                                           l3294 040A  
                                         l3278 03DD                                           l3286 03F1  
                                         l3198 0266                                           l2680 0FF5  
                                         l2672 0FD8                                           l2664 0FC3  
                                         l2760 06E7                                           l2752 06CD  
                                         l2744 0DFA                                           l2736 0DED  
                                         l2728 0DE4                                           l2568 0EBA  
                                         l2808 076F                                           l2576 0F06  
                                         l2840 0677                                           l2832 065A  
                                         l2824 0651                                           l2592 0F41  
                                         l2584 0F2D                                           l2648 0F7B  
                                         l2912 0557                                           l2904 0548  
                                         l2920 0E20                                           l3296 0410  
                                         l3288 03F8                                           l2690 0FFC  
                                         l2682 0FF7                                           l2674 0FDA  
                                         l2666 0FC5                                           l2770 0703  
                                         l2762 06E9                                           l2754 06CF  
                                         l2746 06C9                                           l2658 0DCA  
                                         l2738 0DF1                                           l2578 0F11  
                                         l2842 06C1                                           l2834 065D  
                                         l2826 0652                                           l2818 0648  
                                         l2594 0F4D                                           l2586 0F30  
                                         l2914 0558                                           l2906 054C  
                                         l2850 044A                                           l2922 0E29  
                                         l3298 0416                                           l2692 0FFD  
                                         l2684 0FF8                                           l2676 0FDC  
                                         l2668 0FCC                                           l2780 0728  
                                         l2772 070E                                           l2764 06F4  
                                         l2756 06DA                                           l2748 06C9  
                                         l2844 06C4                                           l2836 0668  
                                         l2828 0656                                           l2596 0F59  
                                         l2588 0F33                                           l2908 054F  
                                         l2860 0473                                           l2852 0456  
                                         l2924 0E2E                                           l2916 0E1A  
                                         l2694 0FFE                                           l2686 0FF9  
                                         l2678 0FDE                                           l2782 072A  
                                         l2774 0710                                           l2766 06F6  
                                         l2758 06DC                                           l2790 0749  
                                         l2598 0ED3                                           l2846 06C5  
                                         l2838 066B                                           l2870 04A6  
                                         l2862 0474                                           l2854 0464  
                                         l2926 0E34                                           l2918 0E1C  
                                         l2688 0FFB                                           l2784 0735  
                                         l2776 071B                                           l2768 0701  
                                         l2792 0754                                           l2880 04D8  
                                         l2872 04B7                                           l2864 0479  
                                         l2856 046B                                           l2848 0447  
                                         l2778 071D                                           l2794 0755  
                                         l2786 0743                                           l2890 04E3  
                                         l2882 04DA                                           l2874 04C5  
                                         l2866 0487                                           l2858 046E  
                                         l2796 0758                                           l2788 0746  
                                         l2892 04EE                                           l2884 04DC  
                                         l2876 04D4                                           l2868 0498  
                                         l2798 075B                                           l2894 04F1  
                                         l2886 04DD                                           l2878 04D6  
                                         l2990 0065                                           l2896 04FD  
                                         l2888 04E0                                           l2992 0067  
                                         l2898 0535                                           l2994 006F  
                                         l2986 0060                                           l2996 0071  
                                         l2988 0062                                           l2998 0073  
                                         u1020 0F96                                           u1021 0F95  
                                         u1030 0E89                                           u1031 0E88  
                                         u1040 0E8D                                           u2000 03F8  
                                         u1041 0E8C                                           u2001 03F7  
                                         u1050 0EA0                                           u2010 03FE  
                                         u1051 0E9F                                           u2011 03FD  
                                         u2020 0404                                           u2021 0403  
                                         u2030 040A                                           u2031 0409  
                                         u1320 0E53                                           u1400 07DC  
                                         u2040 0410                                           u1321 0E52  
                                         u1401 07DB                                           u2041 040F  
                                         u1330 0E5A                                           u2050 0416  
                                         u1331 0E59                                           u2051 0415  
                                         u2107 00E6                                           u1340 0EC6  
                                         u1420 07EB                                           u1500 0F8A  
                                         u2060 041B                                           u1341 0EC5  
                                         u1421 07EA                                           u1501 0F89  
                                         u2061 041A                                           u2117 00F5  
                                         _LATA 010C                                           u1350 0F20  
                                         _LATB 010D                                           u1351 0F1F  
                                         u1415 07DD                                           u2207 053A  
                                         u2127 0104                                           u1360 0F4D  
                                         u1440 07FB                                           u1600 0469  
                                         u2217 0F52                                           u1361 0F4C  
                                         u1441 07FA                                           u1425 07E7  
                                         u1601 0468                                           u2137 0113  
                                         u1370 0EF3                                           u1450 0F63  
                                         u1610 04FD                                           u2307 06D4  
                                         u1371 0EF2                                           u2227 0F25  
                                         u1435 07F1                                           u1451 0F62  
                                         u1611 04FC                                           u2147 013C  
                                         u1380 07CE                                           u1620 0E20  
                                         u2317 06E1                                           u2237 0EF8  
                                         u1381 07CD                                           u1621 0E1F  
                                         u2157 035B                                           u2077 00A2  
                                         u1470 0F71                                           u2407 0DDF  
                                         u2327 06EE                                           u2247 0E40  
                                         u1471 0F70                                           u2167 0369  
                                         u2087 00C8                                           u1560 076D  
                                         u1480 0F7B                                           u1800 0154  
                                         u2337 06FB                                           u1561 076C  
                                         u2257 074E                                           u1481 0F7A  
                                         u1465 0F67                                           u2177 0377  
                                         u1801 0153                                           u2097 00D7  
                                         u1570 077D                                           u1650 0E34  
                                         u1810 0160                                           u2347 0708  
                                         u1571 077C                                           u2267 0762  
                                         u1395 07D2                                           u2187 044F  
                                         u1651 0E33                                           u1635 0E25  
                                         u1811 015F                                           u1580 0786  
                                         u1900 038C                                           u1820 016B  
                                         u2357 0715                                           u2277 0ECB  
                                         u1581 0785                                           u1485 0F77  
                                         u2197 045D                                           u1645 0E2A  
                                         u1901 038B                                           u1821 016A  
                                         u1590 0677                                           u1910 039E  
                                         u1830 0180                                           u2367 0722  
                                         u2287 0E62                                           u1591 0676  
                                         u1495 0F80                                           u1911 039D  
                                         u1831 017F                                           u1920 03A7  
                                         u1840 0193                                           u2377 072F  
                                         u2297 0E78                                           u1921 03A6  
                                         u1905 0388                                           u1841 0192  
                                         u1930 03BA                                           u1850 019D  
                                         u1770 0095                                           u2387 073A  
                                         u1931 03B9                                           u1915 039A  
                                         u1851 019C                                           u1771 0094  
                                         u1940 03C0                                           u1860 01AF  
                                         u1780 0136                                           u2397 0DD6  
                                         u1941 03BF                                           u1861 01AE  
                                         u1781 0135                                           u1950 03C6  
                                         u1870 01DF                                           u1790 0147  
                                         u1951 03C5                                           u1871 01DE  
                                         u1791 0146                                           u1960 03CC  
                                         u1880 01E6                                           u1961 03CB  
                                         u1881 01E5                                           u1865 01AB  
                                         u1970 03D2                                           u1890 0355  
                                         u1971 03D1                                           u1891 0354  
                                         u1980 03D8                                           u1981 03D7  
                                         u1990 03DD                                           u1991 03DC  
                                         i1l33 001E                                           i1l38 002D  
                                         _TIPO 0235                                           _BatH 0229  
                                         _BatL 0228                                           _WPUA 020C  
                                         _WPUB 020D                                           _fRTX 016C  
                           _UltimoDadoRecebido 007C                                           _dips 022A  
                                         _main 0060                                           _loop 022C  
                                         _rett 0226                                           fsr0h 0005  
                                         fsr1h 0007                                           indf0 0000  
                                         fsr0l 0004                                           indf1 0001  
                                         fsr1l 0006                                           btemp 007E  
                                         start 002F                                  ??_Espera_TxOk 0070  
                             _enderecoRecebido 01E4                                __end_of_TX_Lora 06C8  
                              __end_of_ErrCode 0743                                    _DadosSensor 00CE  
                                ?_EUSART_Reset 0070                                  ?_EUSART_Write 0070  
                __end_of_OSCILLATOR_Initialize 0DD1                                     __TXC22PING 0823  
                                        ?_main 0070                                __end_of___lwdiv 0800  
                                        i1l228 0647                                          i1l182 0E19  
                                        i1l192 0003                                __end_of___lwmod 0F8F  
                                        i1l195 0DA1                                          i1l179 0E18  
                                        i1l189 07C5                                          i1l198 0D9D  
                                        _RCREG 0199                                          _RCSTA 019D  
                                        _TRISA 008C                                          _TRISB 008D  
                                        _TXREG 019A                                          _TXSTA 019E  
                                        _fAtOk 006D                                          _fBusy 006C  
                                        _fParm 006B                                          _fTxOk 006A  
                                        _canal 022B                                          _flags 0060  
                               _WDT_Initialize 0DA2                               __end_of_SM_CFOFF 0F00  
                                        _temp8 0227                                          btemp0 007E  
                                        btemp1 007F                               __end_of_SM_RESET 0ED3  
                             __end_of_SM_START 0788                                          pclath 000A  
                                        status 0003                                          wtemp0 007E  
                                   __TXSTART22 084E                                __initialization 0031  
                                 __end_of_main 0447                                 ??_EUSART_Reset 0070  
                               ??_EUSART_Write 0070                    ?_INTERRUPT_InterruptManager 0070  
                          __end_of_Espera_TxOk 0E5B                 ??_EUSART_SetRxInterruptHandler 0072  
                                       ??_main 0079                               __end_of_ModuloOn 0E80  
                               _SM_STATUSflags 0236                         __end_of_WDT_Initialize 0DA6  
    __end_of_EUSART_DefaultFramingErrorHandler 0004            ??_EUSART_DefaultFramingErrorHandler 0070  
           ?_EUSART_DefaultFramingErrorHandler 0070              _EUSART_DefaultFramingErrorHandler 0003  
                   _EUSART_OverrunErrorHandler 00E0                                         _EEADRH 0192  
                                       _EEADRL 0191                                         _EEDATH 0194  
                                       _EEDATL 0193                                         _EECON2 0196  
                                       _ANSELA 018C                                         _ANSELB 018D  
                                       _BORCON 0116                                         u110_20 0598  
                                       u110_21 0597                                         u111_20 059E  
                                       u111_21 059D                                         u120_20 05DC  
                                       u112_20 05A7                                         u120_21 05DB  
                                       u112_21 05A6                                         i1l2500 0633  
                                       i1l2420 056D                                         i1l2412 055B  
                                       i1l2510 0644                                         i1l2502 0634  
                                       i1l2430 0577                                         i1l2422 056F  
                                       i1l2414 0563                                         i1l2512 0645  
                                       i1l2504 0635                                         u121_20 05E2  
                                       u113_20 05AD                                         i1l2440 0592  
                                       i1l2432 057D                                         i1l2424 0571  
                                       i1l2416 0569                                         u121_21 05E1  
                                       u113_21 05AC                                         i1l2506 063C  
                                       i1l2450 05AD                                         i1l2442 0598  
                                       i1l2434 0584                                         i1l2426 0573  
                                       i1l2418 056A                                         i1l2508 063E  
                                       i1l2460 05C7                                         i1l2452 05B3  
                                       i1l2444 059E                                         i1l2436 0586  
                                       i1l2428 0575                                         i1l2524 0D9E  
                                       i1l2700 0E0B                                         i1l2470 05E2  
                                       i1l2462 05CD                                         i1l2454 05B9  
                                       i1l2438 058C                                         i1l2446 05A1  
                                       i1l2526 0D9A                                         i1l2710 078F  
                                       i1l2702 0E0E                                         u130_20 061F  
                                       i1l2480 05FC                                         i1l2472 05E8  
                                       u122_20 05E8                                         i1l2464 05D3  
                                       u114_20 05B3                                         i1l2448 05A7  
                                       i1l2456 05BB                                         u106_20 0569  
                                       i1l2720 07AC                                         i1l2712 0794  
                                       i1l2704 0E14                                         u130_21 061E  
                                       u122_21 05E7                                         u114_21 05B2  
                                       u106_21 0568                                         i1l2482 05FD  
                                       i1l2490 0612                                         i1l2474 05EE  
                                       i1l2458 05C1                                         i1l2466 05D6  
                                       i1l2722 07B1                                         i1l2714 079B  
                                       i1l2706 0E15                                         i1l2492 0619  
                                       i1l2484 0604                                         i1l2476 05F4  
                                       i1l2468 05DC                                         i1l2724 07BC  
                                       i1l2716 07A0                                         i1l2708 0788  
                                       i1l2494 061F                                         i1l2486 060A  
                                       i1l2478 05F6                                         i1l2726 07C2  
                                       i1l2718 07A5                                         u131_20 0644  
                                       i1l2496 0622                                         i1l2488 0610  
                                       u123_20 05EE                                         u115_20 05B9  
                                       u107_20 057D                                         u131_21 0643  
                                       u123_21 05ED                                         u115_21 05B8  
                                       u107_21 057C                                         i1l2498 0632  
                                       i1l2930 000A                                         i1l2940 0028  
                                       i1l2932 000E                                         i1l2934 0013  
                                       u124_20 05F4                                         u116_20 05C1  
                                       u108_20 058C                                         i1l2696 0DFD  
                                       i1l2936 0018                                         u124_21 05F3  
                                       u116_21 05C0                                         u108_21 058B  
                                       i1l2698 0E04                                         i1l2938 0023  
                                       u125_20 05FC                                         u117_20 05C7  
                                       u109_20 0592                                         u125_21 05FB  
                                       u117_21 05C6                                         u109_21 0591  
                                       u126_20 0604                                         u118_20 05CD  
                                       u126_21 0603                                         u118_21 05CC  
                                       u127_20 060A                                         u119_20 05D3  
                                       u151_20 0E04                                         u127_21 0609  
                                       u119_21 05D2                                         u151_21 0E03  
                                       u128_20 0610                                         u152_20 0E14  
                                       u128_21 060F                                         u152_21 0E13  
                                       u129_20 0619                                         u153_20 0794  
                                       u129_21 0618                                         u153_21 0793  
                                       _OFFSET 0166                                         u154_20 07A5  
                                       u170_20 0028                                         u154_21 07A4  
                                       u170_21 0027                                         u155_20 07BC  
                                       u155_21 07BB                                         u166_20 000E  
                                       u166_21 000D                                         u167_20 0013  
                                       u167_21 0012                                         u168_20 0018  
                                       u168_21 0017                                         u169_20 0023  
                                       u169_21 0022                                         _OSCCON 0099  
                                       _SPBRGH 019C                                         _SPBRGL 019B  
                                       _WDTCON 0097                                      ??_TX_Lora 0073  
                                       __CFC22 0800                                      ??_ErrCode 0071  
                                       __CFOFF 0861                                         __RESET 086A  
                                       __RXC22 083B                                         _fATerr 006E  
                                       _fDetec 00E6                                         ___wmul 0E1A  
                                    ??___lwdiv 0074                                      ??___lwmod 0074  
                          _EUSART_Transmit_ISR 0DFD                                         _indice 007D  
                                   _TesteEnvio 0447                               ??_SM_CONFIGRADIO 0071  
                                       _offset 01E0                                         _temp16 01E6  
                            __end_of_SM_MODORX 0F5D                                         ltemp0a 0080  
                              ?_WDT_Initialize 0070                                         ttemp0a 007F  
                                       wtemp0a 007F                           ?_EUSART_Transmit_ISR 0070  
                           _M_EnderecoRecebido 0225                        __end_of__initialization 005C  
                                   _fRetSensor 0168           __end_of_EUSART_SetTxInterruptHandler 0DC4  
                 _EUSART_SetTxInterruptHandler 0DBE                                    _Espera_TxOk 0E39  
                               __pcstackCOMMON 0070                                      ?_SM_CFOFF 0070  
                                    ?_SM_RESET 0070                                      ?_SM_START 0070  
                               _OPTION_REGbits 0095                           _eusartRxStatusBuffer 01A0  
              ??_EUSART_SetOverrunErrorHandler 0072                          ??_EUSART_Transmit_ISR 0070  
                            __end_of_ModuloOff 0DE4                           __end_of_EUSART_Reset 0FC3  
                                   __pbssBANK0 0020                                     __pbssBANK1 00A0  
                                   __pbssBANK2 0120                                     __pbssBANK3 01A0  
                                   __pbssBANK4 0220                           __end_of_EUSART_Write 0EA6  
                                    ?_ModuloOn 0070                                     __pmaintext 0060  
                ?_EUSART_SetTxInterruptHandler 0070               _EUSART_TxDefaultInterruptHandler 0068  
                                      ?___wmul 0070                                     __pintentry 0004  
                                   ??_SM_CFOFF 0071                                    ?_TesteEnvio 0070  
                                      _BAUDCON 019F                              _TempoDeReplicacao 0162  
                                      _APFCON0 011D                                        _APFCON1 011E  
                 ??_EUSART_DefaultErrorHandler 0070                                     ??_SM_RESET 0071  
                                   ??_SM_START 0073                                  _eusartRxCount 00E9  
                                   _endereco_C 0222                                     _endereco_D 0221  
                                   _endereco_M 0223                                     _endereco_U 0220  
                                      _OSCTUNE 0098                       ??_EUSART_SetErrorHandler 0072  
                                      _TX_Lora 0648                                        _ErrCode 06C8  
                                   ??_ModuloOn 0070                                 _fComandoSirene 016A  
                                      _fErroID 016E                                        _fLigado 016D  
                                      _fEspera 022F                                        _fRepete 0230  
                                      _fProgID 00EF                                        ___lwdiv 07C6  
                                      ___lwmod 0F5D                                        __ptext1 0E1A  
                                      __ptext2 0DA2                                        __ptext3 0447  
                                      __ptext4 0F5D                                        __ptext5 07C6  
                                      __ptext6 0F2D                                        __ptext7 0648  
                                      __ptext8 0F00                                        __ptext9 0ED3  
                        _OSCILLATOR_Initialize 0DCA                       ??_PIN_MANAGER_Initialize 0070  
                                      clrloop0 0DC5                           end_of_initialization 005C  
        __end_of_EUSART_SetOverrunErrorHandler 0DB8                  _EUSART_SetOverrunErrorHandler 0DB2  
                            _EUSART_Initialize 0FC3                             ?_EUSART_Initialize 0070  
                                    _RCSTAbits 019D                            ??_EUSART_Initialize 0072  
                             ??_WDT_Initialize 0070                 ??_EUSART_SetTxInterruptHandler 0072  
                                    _PORTBbits 000D                                    _TotalSerial 00E4  
                                    _TRISAbits 008C                                      _TRISBbits 008D  
                                    _SM_MODORX 0F2D                                      _DadosLora 0120  
                    __end_of_EUSART_Initialize 1000                                  _AcAliveBatLOW 0233  
                                    _TXSTAbits 019E                                 __end_of__CFC22 0823  
                           __end_of__TXC22PING 083B                                 __end_of__CFOFF 086A  
                               __end_of__RESET 086F                                 __end_of__RXC22 084E  
                                 ?_Espera_TxOk 0070             __end_of_EUSART_DefaultErrorHandler 0D9E  
                   _EUSART_DefaultErrorHandler 0D9A                                 __end_of___wmul 0E39  
                                 _EUSART_Reset 0F8F                                   _EUSART_Write 0E80  
                       ?_OSCILLATOR_Initialize 0070                                   _indiceSensor 0169  
                          start_initialization 0031                             __end_of__TXSTART22 0861  
                                   ?_SM_MODORX 0070                                    SM_MODORX@ch 0070  
 EUSART_SetRxInterruptHandler@interruptHandler 0070   EUSART_SetTxInterruptHandler@interruptHandler 0070  
                           _C_EnderecoRecebido 0238                             _U_EnderecoRecebido 0224  
                                    _ModuloOff 0DD1                 ?_EUSART_SetOverrunErrorHandler 0070  
                   _EUSART_FramingErrorHandler 00E2                                       ??___wmul 0074  
                       _EUSART_SetErrorHandler 0DA6                                   ??_TesteEnvio 0077  
                  __end_of_EUSART_Transmit_ISR 0E1A                                    __pbssCOMMON 007B  
                                    ___latbits 0001                                      _fReplicar 016B  
                   __end_of_EUSART_Receive_ISR 07C6                                       ?_TX_Lora 0070  
             _EUSART_RxDefaultInterruptHandler 0066                                       ?_ErrCode 0070  
                                   ?_ModuloOff 0070                             __end_of_TesteEnvio 055B  
                                    __pnvBANK4 0239                   __end_of_EUSART_RxDataHandler 0648  
                             ___lwdiv@dividend 0072                         _PIN_MANAGER_Initialize 0DE4  
                                     ?___lwdiv 0070                                       ?___lwmod 0070  
                                 _eusartRxHead 00EB                                   _eusartTxHead 00EE  
                                 _eusartRxTail 00EA                                   _eusartTxTail 00ED  
                 ??_INTERRUPT_InterruptManager 0070                        _eusartTxBufferRemaining 00EC  
                                  ??_SM_MODORX 0071                                      _pacoteTRX 00C0  
                             ___lwdiv@quotient 0074                                       _ENDERECO 0164  
                               _eusartRxBuffer 0020                                 _eusartTxBuffer 00A0  
                                    _segsAlive 0239                                 ___wmul@product 0074  
                                     _LATAbits 010C         EUSART_SetErrorHandler@interruptHandler 0070  
                                     _LATBbits 010D                                      clear_ram0 0DC4  
                                     _PIE1bits 0091                              _eusartRxLastError 00E8  
                                     _PIR1bits 0011                ??_EUSART_SetFramingErrorHandler 0072  
    __end_of_EUSART_DefaultOverrunErrorHandler 0DA2            ??_EUSART_DefaultOverrunErrorHandler 0070  
           ?_EUSART_DefaultOverrunErrorHandler 0070              _EUSART_DefaultOverrunErrorHandler 0D9E  
                                     _SM_CFOFF 0ED3                             _D_EnderecoRecebido 0237  
                                     _SM_RESET 0EA6                                       _SM_START 0743  
                            ___wmul@multiplier 0070                                   _AcAliveBatOK 0234  
                                  ??_ModuloOff 0070                                     _EECON1bits 0195  
                                     _ModuloOn 0E5B                                    _AcEVTBatLOW 0231  
                      ??_OSCILLATOR_Initialize 0070                            _EUSART_ErrorHandler 00DE  
                                     _fRetLora 007B                    ?_EUSART_DefaultErrorHandler 0070  
                                     ___int_sp 0000                                       _fTimeOut 016F  
                                   _ANSELAbits 018C                                       _cicloLED 01EC  
                              ___lwdiv@divisor 0070                           _EUSART_RxDataHandler 055B  
                               _SM_CONFIGRADIO 0F00                                ___lwdiv@counter 0076  
                                     __ptext10 0E39                                       __ptext11 0743  
                                     __ptext20 0FC3                                       __ptext12 0EA6  
                                     __ptext21 0DBE                                       __ptext13 0E80  
                                     __ptext30 0003                                       __ptext22 0DB8  
                                     __ptext14 0F8F                                       __ptext31 0D9A  
                                     __ptext23 0DB2                                       __ptext15 0E5B  
                                     __ptext32 055B                                       __ptext24 0DAC  
                                     __ptext16 0DE4                                       __ptext25 0DA6  
                                     __ptext17 0DCA                                       __ptext18 06C8  
                                     __ptext27 0DFD                                       __ptext19 0DD1  
                                     __ptext28 0788                                       __ptext29 0D9E  
                                     _endereco 01E2                                       _contaRTX 01E8  
                             SM_CONFIGRADIO@ch 0070                                       _passagem 00D6  
                      ?_EUSART_SetErrorHandler 0070                                       _tempoRTX 01EA  
EUSART_SetOverrunErrorHandler@interruptHandler 0070                                       int$flags 007E  
           __end_of_INTERRUPT_InterruptManager 002F                     _INTERRUPT_InterruptManager 0004  
        __end_of_EUSART_SetFramingErrorHandler 0DB2                  _EUSART_SetFramingErrorHandler 0DAC  
                       __end_of_SM_CONFIGRADIO 0F2D                                     _INTCONbits 000B  
                        ?_EUSART_RxDataHandler 0070                                     _AcEVTBatOK 0232  
                                     intlevel1 0000                               ___lwmod@dividend 0072  
                      ?_PIN_MANAGER_Initialize 0070                 __end_of_EUSART_SetErrorHandler 0DAC  
         __end_of_EUSART_SetRxInterruptHandler 0DBE                   _EUSART_SetRxInterruptHandler 0DB8  
                           _EUSART_Receive_ISR 0788  EUSART_SetFramingErrorHandler@interruptHandler 0070  
                                  _tempoEspera 0160                                  __pstringtext1 0800  
                                __pstringtext2 0823                                  __pstringtext3 083B  
                                __pstringtext4 084E                                  __pstringtext5 0861  
                                __pstringtext6 086A                                    ErrCode@code 0073  
                          ?_EUSART_Receive_ISR 0070                                ___lwmod@divisor 0070  
                              ?_SM_CONFIGRADIO 0070                                ___lwmod@counter 0074  
                                   _WDTCONbits 0097                             EUSART_Write@txData 0070  
               __end_of_PIN_MANAGER_Initialize 0DFD                           ??_EUSART_Receive_ISR 0070  
