

Microchip MPLAB XC8 Assembler V2.50 build 20240725155939 
                                                                                               Sun Dec 08 11:06:36 2024

Microchip MPLAB XC8 C Compiler v2.50 (Free license) build 20240725155939 Og1 
     1                           	processor	16F1847
     2                           	pagewidth 120
     3                           	opt	flic
     4                           	psect	eeprom_data,global,class=EEDATA,space=3,delta=2,noexec
     5                           	psect	stringtext1,global,class=STRCODE,space=0,delta=2,noexec
     6                           	psect	stringtext2,global,class=STRCODE,space=0,delta=2,noexec
     7                           	psect	stringtext3,global,class=STRCODE,space=0,delta=2,noexec
     8                           	psect	stringtext4,global,class=STRCODE,space=0,delta=2,noexec
     9                           	psect	stringtext5,global,class=STRCODE,space=0,delta=2,noexec
    10                           	psect	stringtext6,global,class=STRCODE,space=0,delta=2,noexec
    11                           	psect	nvBANK1,global,class=BANK1,space=1,delta=1,noexec
    12                           	psect	cinit,global,class=CODE,space=0,merge=1,delta=2
    13                           	psect	bssCOMMON,global,class=COMMON,space=1,delta=1,noexec
    14                           	psect	bssBANK0,global,class=BANK0,space=1,delta=1,noexec
    15                           	psect	bssBANK1,global,class=BANK1,space=1,delta=1,noexec
    16                           	psect	bssBANK2,global,class=BANK2,space=1,delta=1,noexec
    17                           	psect	bssBANK3,global,class=BANK3,space=1,delta=1,noexec
    18                           	psect	bssBANK4,global,class=BANK4,space=1,delta=1,noexec
    19                           	psect	clrtext,global,class=CODE,space=0,delta=2
    20                           	psect	cstackCOMMON,global,class=COMMON,space=1,delta=1,noexec
    21                           	psect	maintext,global,class=CODE,space=0,merge=1,split=1,delta=2
    22                           	psect	text1,local,class=CODE,space=0,merge=1,delta=2,group=1
    23                           	psect	text2,local,class=CODE,space=0,merge=1,delta=2
    24                           	psect	text3,local,class=CODE,space=0,merge=1,delta=2
    25                           	psect	text4,local,class=CODE,space=0,merge=1,delta=2,group=1
    26                           	psect	text5,local,class=CODE,space=0,merge=1,delta=2,group=1
    27                           	psect	text6,local,class=CODE,space=0,merge=1,delta=2
    28                           	psect	text7,local,class=CODE,space=0,merge=1,delta=2
    29                           	psect	text8,local,class=CODE,space=0,merge=1,delta=2
    30                           	psect	text9,local,class=CODE,space=0,merge=1,delta=2
    31                           	psect	text10,local,class=CODE,space=0,merge=1,delta=2
    32                           	psect	text11,local,class=CODE,space=0,merge=1,delta=2
    33                           	psect	text12,local,class=CODE,space=0,merge=1,delta=2
    34                           	psect	text13,local,class=CODE,space=0,merge=1,delta=2
    35                           	psect	text14,local,class=CODE,space=0,merge=1,delta=2
    36                           	psect	text15,local,class=CODE,space=0,merge=1,delta=2
    37                           	psect	text16,local,class=CODE,space=0,merge=1,delta=2
    38                           	psect	text17,local,class=CODE,space=0,merge=1,delta=2
    39                           	psect	text18,local,class=CODE,space=0,merge=1,delta=2
    40                           	psect	text19,local,class=CODE,space=0,merge=1,delta=2
    41                           	psect	text20,local,class=CODE,space=0,merge=1,delta=2
    42                           	psect	text21,local,class=CODE,space=0,merge=1,delta=2
    43                           	psect	text22,local,class=CODE,space=0,merge=1,delta=2
    44                           	psect	text23,local,class=CODE,space=0,merge=1,delta=2
    45                           	psect	text24,local,class=CODE,space=0,merge=1,delta=2
    46                           	psect	text25,local,class=CODE,space=0,merge=1,delta=2
    47                           	psect	intentry,global,class=CODE,space=0,delta=2
    48                           	psect	text27,local,class=CODE,space=0,merge=1,delta=2
    49                           	psect	text28,local,class=CODE,space=0,merge=1,delta=2
    50                           	psect	text29,local,class=CODE,space=0,merge=1,delta=2
    51                           	psect	text30,local,class=CODE,space=0,merge=1,delta=2
    52                           	psect	text31,local,class=CODE,space=0,merge=1,delta=2
    53                           	psect	text32,local,class=CODE,space=0,merge=1,delta=2
    54                           	psect	idloc,global,abs,ovrld,class=IDLOC,space=5,delta=2,noexec
    55                           	psect	config,global,abs,ovrld,class=CONFIG,space=4,delta=2,noexec
    56                           	dabs	1,0x7E,2
    57     0000                     
    58                           ; Generated 07/09/2023 GMT
    59                           ; 
    60                           ; Copyright © 2023, Microchip Technology Inc. and its subsidiaries ("Microchip")
    61                           ; All rights reserved.
    62                           ; 
    63                           ; This software is developed by Microchip Technology Inc. and its subsidiaries ("Microch
      +                          ip").
    64                           ; 
    65                           ; Redistribution and use in source and binary forms, with or without modification, are
    66                           ; permitted provided that the following conditions are met:
    67                           ; 
    68                           ;     1. Redistributions of source code must retain the above copyright notice, this lis
      +                          t of
    69                           ;        conditions and the following disclaimer.
    70                           ; 
    71                           ;     2. Redistributions in binary form must reproduce the above copyright notice, this 
      +                          list
    72                           ;        of conditions and the following disclaimer in the documentation and/or other
    73                           ;        materials provided with the distribution. Publication is not required when
    74                           ;        this file is used in an embedded application.
    75                           ; 
    76                           ;     3. Microchip's name may not be used to endorse or promote products derived from th
      +                          is
    77                           ;        software without specific prior written permission.
    78                           ; 
    79                           ; THIS SOFTWARE IS PROVIDED BY MICROCHIP "AS IS" AND ANY EXPRESS OR IMPLIED WARRANTIES,
    80                           ; INCLUDING, BUT NOT LIMITED TO, THE IMPLIED WARRANTIES OF MERCHANTABILITY AND FITNESS F
      +                          OR
    81                           ; PURPOSE ARE DISCLAIMED.  IN NO EVENT SHALL MICROCHIP BE LIABLE FOR ANY DIRECT, INDIREC
      +                          T,
    82                           ; INCIDENTAL, SPECIAL, EXEMPLARY, OR CONSEQUENTIAL DAMAGES (INCLUDING BUT NOT LIMITED TO
    83                           ; PROCUREMENT OF SUBSTITUTE GOODS OR SERVICES; LOSS OF USE, DATA OR PROFITS; OR BUSINESS
    84                           ; INTERRUPTION) HOWSOEVER CAUSED AND ON ANY THEORY OF LIABILITY, WHETHER IN CONTRACT, ST
      +                          RICT
    85                           ; LIABILITY, OR TORT (INCLUDING NEGLIGENCE OR OTHERWISE) ARISING IN ANY WAY OUT OF THE U
      +                          SE OF
    86                           ; THIS SOFTWARE, EVEN IF ADVISED OF THE POSSIBILITY OF SUCH DAMAGE.
    87                           ; 
    88                           ; 
    89                           ; Code-generator required, PIC16F1847 Definitions
    90                           ; 
    91                           ; SFR Addresses
    92     0008                     bsr             equ	8
    93     0005                     fsr0h           equ	5
    94     0004                     fsr0l           equ	4
    95     0007                     fsr1h           equ	7
    96     0006                     fsr1l           equ	6
    97     0000                     indf            equ	0
    98     0000                     indf0           equ	0
    99     0001                     indf1           equ	1
   100     000B                     intcon          equ	11
   101     0002                     pc              equ	2
   102     0002                     pcl             equ	2
   103     000A                     pclath          equ	10
   104     0003                     status          equ	3
   105     0009                     wreg            equ	9
   106     0000                     INDF0           equ	0	;# 
   107     0001                     INDF1           equ	1	;# 
   108     0002                     PCL             equ	2	;# 
   109     0003                     STATUS          equ	3	;# 
   110     0004                     FSR0L           equ	4	;# 
   111     0005                     FSR0H           equ	5	;# 
   112     0006                     FSR1L           equ	6	;# 
   113     0007                     FSR1H           equ	7	;# 
   114     0008                     BSR             equ	8	;# 
   115     0009                     WREG            equ	9	;# 
   116     000A                     PCLATH          equ	10	;# 
   117     000B                     INTCON          equ	11	;# 
   118     000C                     PORTA           equ	12	;# 
   119     000D                     PORTB           equ	13	;# 
   120     0011                     PIR1            equ	17	;# 
   121     0012                     PIR2            equ	18	;# 
   122     0013                     PIR3            equ	19	;# 
   123     0014                     PIR4            equ	20	;# 
   124     0015                     TMR0            equ	21	;# 
   125     0016                     TMR1            equ	22	;# 
   126     0016                     TMR1L           equ	22	;# 
   127     0017                     TMR1H           equ	23	;# 
   128     0018                     T1CON           equ	24	;# 
   129     0019                     T1GCON          equ	25	;# 
   130     001A                     TMR2            equ	26	;# 
   131     001B                     PR2             equ	27	;# 
   132     001C                     T2CON           equ	28	;# 
   133     001E                     CPSCON0         equ	30	;# 
   134     001F                     CPSCON1         equ	31	;# 
   135     008C                     TRISA           equ	140	;# 
   136     008D                     TRISB           equ	141	;# 
   137     0091                     PIE1            equ	145	;# 
   138     0092                     PIE2            equ	146	;# 
   139     0093                     PIE3            equ	147	;# 
   140     0094                     PIE4            equ	148	;# 
   141     0095                     OPTION_REG      equ	149	;# 
   142     0096                     PCON            equ	150	;# 
   143     0097                     WDTCON          equ	151	;# 
   144     0098                     OSCTUNE         equ	152	;# 
   145     0099                     OSCCON          equ	153	;# 
   146     009A                     OSCSTAT         equ	154	;# 
   147     009B                     ADRES           equ	155	;# 
   148     009B                     ADRESL          equ	155	;# 
   149     009C                     ADRESH          equ	156	;# 
   150     009D                     ADCON0          equ	157	;# 
   151     009E                     ADCON1          equ	158	;# 
   152     010C                     LATA            equ	268	;# 
   153     010D                     LATB            equ	269	;# 
   154     0111                     CM1CON0         equ	273	;# 
   155     0112                     CM1CON1         equ	274	;# 
   156     0113                     CM2CON0         equ	275	;# 
   157     0114                     CM2CON1         equ	276	;# 
   158     0115                     CMOUT           equ	277	;# 
   159     0116                     BORCON          equ	278	;# 
   160     0117                     FVRCON          equ	279	;# 
   161     0118                     DACCON0         equ	280	;# 
   162     0119                     DACCON1         equ	281	;# 
   163     011A                     SRCON0          equ	282	;# 
   164     011B                     SRCON1          equ	283	;# 
   165     011D                     APFCON0         equ	285	;# 
   166     011E                     APFCON1         equ	286	;# 
   167     018C                     ANSELA          equ	396	;# 
   168     018D                     ANSELB          equ	397	;# 
   169     0191                     EEADR           equ	401	;# 
   170     0191                     EEADRL          equ	401	;# 
   171     0192                     EEADRH          equ	402	;# 
   172     0193                     EEDAT           equ	403	;# 
   173     0193                     EEDATL          equ	403	;# 
   174     0193                     EEDATA          equ	403	;# 
   175     0194                     EEDATH          equ	404	;# 
   176     0195                     EECON1          equ	405	;# 
   177     0196                     EECON2          equ	406	;# 
   178     0199                     RCREG           equ	409	;# 
   179     019A                     TXREG           equ	410	;# 
   180     019B                     SP1BRG          equ	411	;# 
   181     019B                     SP1BRGL         equ	411	;# 
   182     019B                     SPBRG           equ	411	;# 
   183     019B                     SPBRGL          equ	411	;# 
   184     019C                     SP1BRGH         equ	412	;# 
   185     019C                     SPBRGH          equ	412	;# 
   186     019D                     RCSTA           equ	413	;# 
   187     019E                     TXSTA           equ	414	;# 
   188     019F                     BAUDCON         equ	415	;# 
   189     020C                     WPUA            equ	524	;# 
   190     020D                     WPUB            equ	525	;# 
   191     0211                     SSP1BUF         equ	529	;# 
   192     0211                     SSPBUF          equ	529	;# 
   193     0212                     SSP1ADD         equ	530	;# 
   194     0212                     SSPADD          equ	530	;# 
   195     0213                     SSP1MSK         equ	531	;# 
   196     0213                     SSPMSK          equ	531	;# 
   197     0214                     SSP1STAT        equ	532	;# 
   198     0214                     SSPSTAT         equ	532	;# 
   199     0215                     SSP1CON1        equ	533	;# 
   200     0215                     SSPCON1         equ	533	;# 
   201     0215                     SSPCON          equ	533	;# 
   202     0216                     SSP1CON2        equ	534	;# 
   203     0216                     SSPCON2         equ	534	;# 
   204     0217                     SSP1CON3        equ	535	;# 
   205     0217                     SSPCON3         equ	535	;# 
   206     0219                     SSP2BUF         equ	537	;# 
   207     021A                     SSP2ADD         equ	538	;# 
   208     021B                     SSP2MSK         equ	539	;# 
   209     021C                     SSP2STAT        equ	540	;# 
   210     021D                     SSP2CON1        equ	541	;# 
   211     021E                     SSP2CON2        equ	542	;# 
   212     021F                     SSP2CON3        equ	543	;# 
   213     0291                     CCPR1           equ	657	;# 
   214     0291                     CCPR1L          equ	657	;# 
   215     0292                     CCPR1H          equ	658	;# 
   216     0293                     CCP1CON         equ	659	;# 
   217     0294                     PWM1CON         equ	660	;# 
   218     0295                     CCP1AS          equ	661	;# 
   219     0295                     ECCP1AS         equ	661	;# 
   220     0296                     PSTR1CON        equ	662	;# 
   221     0298                     CCPR2           equ	664	;# 
   222     0298                     CCPR2L          equ	664	;# 
   223     0299                     CCPR2H          equ	665	;# 
   224     029A                     CCP2CON         equ	666	;# 
   225     029B                     PWM2CON         equ	667	;# 
   226     029C                     CCP2AS          equ	668	;# 
   227     029C                     ECCP2AS         equ	668	;# 
   228     029D                     PSTR2CON        equ	669	;# 
   229     029E                     CCPTMRS         equ	670	;# 
   230     029E                     CCPTMRS0        equ	670	;# 
   231     0311                     CCPR3           equ	785	;# 
   232     0311                     CCPR3L          equ	785	;# 
   233     0312                     CCPR3H          equ	786	;# 
   234     0313                     CCP3CON         equ	787	;# 
   235     0318                     CCPR4           equ	792	;# 
   236     0318                     CCPR4L          equ	792	;# 
   237     0319                     CCPR4H          equ	793	;# 
   238     031A                     CCP4CON         equ	794	;# 
   239     0394                     IOCBP           equ	916	;# 
   240     0395                     IOCBN           equ	917	;# 
   241     0396                     IOCBF           equ	918	;# 
   242     039A                     CLKRCON         equ	922	;# 
   243     039C                     MDCON           equ	924	;# 
   244     039D                     MDSRC           equ	925	;# 
   245     039E                     MDCARL          equ	926	;# 
   246     039F                     MDCARH          equ	927	;# 
   247     0415                     TMR4            equ	1045	;# 
   248     0416                     PR4             equ	1046	;# 
   249     0417                     T4CON           equ	1047	;# 
   250     041C                     TMR6            equ	1052	;# 
   251     041D                     PR6             equ	1053	;# 
   252     041E                     T6CON           equ	1054	;# 
   253     0FE4                     STATUS_SHAD     equ	4068	;# 
   254     0FE5                     WREG_SHAD       equ	4069	;# 
   255     0FE6                     BSR_SHAD        equ	4070	;# 
   256     0FE7                     PCLATH_SHAD     equ	4071	;# 
   257     0FE8                     FSR0L_SHAD      equ	4072	;# 
   258     0FE9                     FSR0H_SHAD      equ	4073	;# 
   259     0FEA                     FSR1L_SHAD      equ	4074	;# 
   260     0FEB                     FSR1H_SHAD      equ	4075	;# 
   261     0FED                     STKPTR          equ	4077	;# 
   262     0FEE                     TOSL            equ	4078	;# 
   263     0FEF                     TOSH            equ	4079	;# 
   264     0000                     INDF0           equ	0	;# 
   265     0001                     INDF1           equ	1	;# 
   266     0002                     PCL             equ	2	;# 
   267     0003                     STATUS          equ	3	;# 
   268     0004                     FSR0L           equ	4	;# 
   269     0005                     FSR0H           equ	5	;# 
   270     0006                     FSR1L           equ	6	;# 
   271     0007                     FSR1H           equ	7	;# 
   272     0008                     BSR             equ	8	;# 
   273     0009                     WREG            equ	9	;# 
   274     000A                     PCLATH          equ	10	;# 
   275     000B                     INTCON          equ	11	;# 
   276     000C                     PORTA           equ	12	;# 
   277     000D                     PORTB           equ	13	;# 
   278     0011                     PIR1            equ	17	;# 
   279     0012                     PIR2            equ	18	;# 
   280     0013                     PIR3            equ	19	;# 
   281     0014                     PIR4            equ	20	;# 
   282     0015                     TMR0            equ	21	;# 
   283     0016                     TMR1            equ	22	;# 
   284     0016                     TMR1L           equ	22	;# 
   285     0017                     TMR1H           equ	23	;# 
   286     0018                     T1CON           equ	24	;# 
   287     0019                     T1GCON          equ	25	;# 
   288     001A                     TMR2            equ	26	;# 
   289     001B                     PR2             equ	27	;# 
   290     001C                     T2CON           equ	28	;# 
   291     001E                     CPSCON0         equ	30	;# 
   292     001F                     CPSCON1         equ	31	;# 
   293     008C                     TRISA           equ	140	;# 
   294     008D                     TRISB           equ	141	;# 
   295     0091                     PIE1            equ	145	;# 
   296     0092                     PIE2            equ	146	;# 
   297     0093                     PIE3            equ	147	;# 
   298     0094                     PIE4            equ	148	;# 
   299     0095                     OPTION_REG      equ	149	;# 
   300     0096                     PCON            equ	150	;# 
   301     0097                     WDTCON          equ	151	;# 
   302     0098                     OSCTUNE         equ	152	;# 
   303     0099                     OSCCON          equ	153	;# 
   304     009A                     OSCSTAT         equ	154	;# 
   305     009B                     ADRES           equ	155	;# 
   306     009B                     ADRESL          equ	155	;# 
   307     009C                     ADRESH          equ	156	;# 
   308     009D                     ADCON0          equ	157	;# 
   309     009E                     ADCON1          equ	158	;# 
   310     010C                     LATA            equ	268	;# 
   311     010D                     LATB            equ	269	;# 
   312     0111                     CM1CON0         equ	273	;# 
   313     0112                     CM1CON1         equ	274	;# 
   314     0113                     CM2CON0         equ	275	;# 
   315     0114                     CM2CON1         equ	276	;# 
   316     0115                     CMOUT           equ	277	;# 
   317     0116                     BORCON          equ	278	;# 
   318     0117                     FVRCON          equ	279	;# 
   319     0118                     DACCON0         equ	280	;# 
   320     0119                     DACCON1         equ	281	;# 
   321     011A                     SRCON0          equ	282	;# 
   322     011B                     SRCON1          equ	283	;# 
   323     011D                     APFCON0         equ	285	;# 
   324     011E                     APFCON1         equ	286	;# 
   325     018C                     ANSELA          equ	396	;# 
   326     018D                     ANSELB          equ	397	;# 
   327     0191                     EEADR           equ	401	;# 
   328     0191                     EEADRL          equ	401	;# 
   329     0192                     EEADRH          equ	402	;# 
   330     0193                     EEDAT           equ	403	;# 
   331     0193                     EEDATL          equ	403	;# 
   332     0193                     EEDATA          equ	403	;# 
   333     0194                     EEDATH          equ	404	;# 
   334     0195                     EECON1          equ	405	;# 
   335     0196                     EECON2          equ	406	;# 
   336     0199                     RCREG           equ	409	;# 
   337     019A                     TXREG           equ	410	;# 
   338     019B                     SP1BRG          equ	411	;# 
   339     019B                     SP1BRGL         equ	411	;# 
   340     019B                     SPBRG           equ	411	;# 
   341     019B                     SPBRGL          equ	411	;# 
   342     019C                     SP1BRGH         equ	412	;# 
   343     019C                     SPBRGH          equ	412	;# 
   344     019D                     RCSTA           equ	413	;# 
   345     019E                     TXSTA           equ	414	;# 
   346     019F                     BAUDCON         equ	415	;# 
   347     020C                     WPUA            equ	524	;# 
   348     020D                     WPUB            equ	525	;# 
   349     0211                     SSP1BUF         equ	529	;# 
   350     0211                     SSPBUF          equ	529	;# 
   351     0212                     SSP1ADD         equ	530	;# 
   352     0212                     SSPADD          equ	530	;# 
   353     0213                     SSP1MSK         equ	531	;# 
   354     0213                     SSPMSK          equ	531	;# 
   355     0214                     SSP1STAT        equ	532	;# 
   356     0214                     SSPSTAT         equ	532	;# 
   357     0215                     SSP1CON1        equ	533	;# 
   358     0215                     SSPCON1         equ	533	;# 
   359     0215                     SSPCON          equ	533	;# 
   360     0216                     SSP1CON2        equ	534	;# 
   361     0216                     SSPCON2         equ	534	;# 
   362     0217                     SSP1CON3        equ	535	;# 
   363     0217                     SSPCON3         equ	535	;# 
   364     0219                     SSP2BUF         equ	537	;# 
   365     021A                     SSP2ADD         equ	538	;# 
   366     021B                     SSP2MSK         equ	539	;# 
   367     021C                     SSP2STAT        equ	540	;# 
   368     021D                     SSP2CON1        equ	541	;# 
   369     021E                     SSP2CON2        equ	542	;# 
   370     021F                     SSP2CON3        equ	543	;# 
   371     0291                     CCPR1           equ	657	;# 
   372     0291                     CCPR1L          equ	657	;# 
   373     0292                     CCPR1H          equ	658	;# 
   374     0293                     CCP1CON         equ	659	;# 
   375     0294                     PWM1CON         equ	660	;# 
   376     0295                     CCP1AS          equ	661	;# 
   377     0295                     ECCP1AS         equ	661	;# 
   378     0296                     PSTR1CON        equ	662	;# 
   379     0298                     CCPR2           equ	664	;# 
   380     0298                     CCPR2L          equ	664	;# 
   381     0299                     CCPR2H          equ	665	;# 
   382     029A                     CCP2CON         equ	666	;# 
   383     029B                     PWM2CON         equ	667	;# 
   384     029C                     CCP2AS          equ	668	;# 
   385     029C                     ECCP2AS         equ	668	;# 
   386     029D                     PSTR2CON        equ	669	;# 
   387     029E                     CCPTMRS         equ	670	;# 
   388     029E                     CCPTMRS0        equ	670	;# 
   389     0311                     CCPR3           equ	785	;# 
   390     0311                     CCPR3L          equ	785	;# 
   391     0312                     CCPR3H          equ	786	;# 
   392     0313                     CCP3CON         equ	787	;# 
   393     0318                     CCPR4           equ	792	;# 
   394     0318                     CCPR4L          equ	792	;# 
   395     0319                     CCPR4H          equ	793	;# 
   396     031A                     CCP4CON         equ	794	;# 
   397     0394                     IOCBP           equ	916	;# 
   398     0395                     IOCBN           equ	917	;# 
   399     0396                     IOCBF           equ	918	;# 
   400     039A                     CLKRCON         equ	922	;# 
   401     039C                     MDCON           equ	924	;# 
   402     039D                     MDSRC           equ	925	;# 
   403     039E                     MDCARL          equ	926	;# 
   404     039F                     MDCARH          equ	927	;# 
   405     0415                     TMR4            equ	1045	;# 
   406     0416                     PR4             equ	1046	;# 
   407     0417                     T4CON           equ	1047	;# 
   408     041C                     TMR6            equ	1052	;# 
   409     041D                     PR6             equ	1053	;# 
   410     041E                     T6CON           equ	1054	;# 
   411     0FE4                     STATUS_SHAD     equ	4068	;# 
   412     0FE5                     WREG_SHAD       equ	4069	;# 
   413     0FE6                     BSR_SHAD        equ	4070	;# 
   414     0FE7                     PCLATH_SHAD     equ	4071	;# 
   415     0FE8                     FSR0L_SHAD      equ	4072	;# 
   416     0FE9                     FSR0H_SHAD      equ	4073	;# 
   417     0FEA                     FSR1L_SHAD      equ	4074	;# 
   418     0FEB                     FSR1H_SHAD      equ	4075	;# 
   419     0FED                     STKPTR          equ	4077	;# 
   420     0FEE                     TOSL            equ	4078	;# 
   421     0FEF                     TOSH            equ	4079	;# 
   422     0000                     INDF0           equ	0	;# 
   423     0001                     INDF1           equ	1	;# 
   424     0002                     PCL             equ	2	;# 
   425     0003                     STATUS          equ	3	;# 
   426     0004                     FSR0L           equ	4	;# 
   427     0005                     FSR0H           equ	5	;# 
   428     0006                     FSR1L           equ	6	;# 
   429     0007                     FSR1H           equ	7	;# 
   430     0008                     BSR             equ	8	;# 
   431     0009                     WREG            equ	9	;# 
   432     000A                     PCLATH          equ	10	;# 
   433     000B                     INTCON          equ	11	;# 
   434     000C                     PORTA           equ	12	;# 
   435     000D                     PORTB           equ	13	;# 
   436     0011                     PIR1            equ	17	;# 
   437     0012                     PIR2            equ	18	;# 
   438     0013                     PIR3            equ	19	;# 
   439     0014                     PIR4            equ	20	;# 
   440     0015                     TMR0            equ	21	;# 
   441     0016                     TMR1            equ	22	;# 
   442     0016                     TMR1L           equ	22	;# 
   443     0017                     TMR1H           equ	23	;# 
   444     0018                     T1CON           equ	24	;# 
   445     0019                     T1GCON          equ	25	;# 
   446     001A                     TMR2            equ	26	;# 
   447     001B                     PR2             equ	27	;# 
   448     001C                     T2CON           equ	28	;# 
   449     001E                     CPSCON0         equ	30	;# 
   450     001F                     CPSCON1         equ	31	;# 
   451     008C                     TRISA           equ	140	;# 
   452     008D                     TRISB           equ	141	;# 
   453     0091                     PIE1            equ	145	;# 
   454     0092                     PIE2            equ	146	;# 
   455     0093                     PIE3            equ	147	;# 
   456     0094                     PIE4            equ	148	;# 
   457     0095                     OPTION_REG      equ	149	;# 
   458     0096                     PCON            equ	150	;# 
   459     0097                     WDTCON          equ	151	;# 
   460     0098                     OSCTUNE         equ	152	;# 
   461     0099                     OSCCON          equ	153	;# 
   462     009A                     OSCSTAT         equ	154	;# 
   463     009B                     ADRES           equ	155	;# 
   464     009B                     ADRESL          equ	155	;# 
   465     009C                     ADRESH          equ	156	;# 
   466     009D                     ADCON0          equ	157	;# 
   467     009E                     ADCON1          equ	158	;# 
   468     010C                     LATA            equ	268	;# 
   469     010D                     LATB            equ	269	;# 
   470     0111                     CM1CON0         equ	273	;# 
   471     0112                     CM1CON1         equ	274	;# 
   472     0113                     CM2CON0         equ	275	;# 
   473     0114                     CM2CON1         equ	276	;# 
   474     0115                     CMOUT           equ	277	;# 
   475     0116                     BORCON          equ	278	;# 
   476     0117                     FVRCON          equ	279	;# 
   477     0118                     DACCON0         equ	280	;# 
   478     0119                     DACCON1         equ	281	;# 
   479     011A                     SRCON0          equ	282	;# 
   480     011B                     SRCON1          equ	283	;# 
   481     011D                     APFCON0         equ	285	;# 
   482     011E                     APFCON1         equ	286	;# 
   483     018C                     ANSELA          equ	396	;# 
   484     018D                     ANSELB          equ	397	;# 
   485     0191                     EEADR           equ	401	;# 
   486     0191                     EEADRL          equ	401	;# 
   487     0192                     EEADRH          equ	402	;# 
   488     0193                     EEDAT           equ	403	;# 
   489     0193                     EEDATL          equ	403	;# 
   490     0193                     EEDATA          equ	403	;# 
   491     0194                     EEDATH          equ	404	;# 
   492     0195                     EECON1          equ	405	;# 
   493     0196                     EECON2          equ	406	;# 
   494     0199                     RCREG           equ	409	;# 
   495     019A                     TXREG           equ	410	;# 
   496     019B                     SP1BRG          equ	411	;# 
   497     019B                     SP1BRGL         equ	411	;# 
   498     019B                     SPBRG           equ	411	;# 
   499     019B                     SPBRGL          equ	411	;# 
   500     019C                     SP1BRGH         equ	412	;# 
   501     019C                     SPBRGH          equ	412	;# 
   502     019D                     RCSTA           equ	413	;# 
   503     019E                     TXSTA           equ	414	;# 
   504     019F                     BAUDCON         equ	415	;# 
   505     020C                     WPUA            equ	524	;# 
   506     020D                     WPUB            equ	525	;# 
   507     0211                     SSP1BUF         equ	529	;# 
   508     0211                     SSPBUF          equ	529	;# 
   509     0212                     SSP1ADD         equ	530	;# 
   510     0212                     SSPADD          equ	530	;# 
   511     0213                     SSP1MSK         equ	531	;# 
   512     0213                     SSPMSK          equ	531	;# 
   513     0214                     SSP1STAT        equ	532	;# 
   514     0214                     SSPSTAT         equ	532	;# 
   515     0215                     SSP1CON1        equ	533	;# 
   516     0215                     SSPCON1         equ	533	;# 
   517     0215                     SSPCON          equ	533	;# 
   518     0216                     SSP1CON2        equ	534	;# 
   519     0216                     SSPCON2         equ	534	;# 
   520     0217                     SSP1CON3        equ	535	;# 
   521     0217                     SSPCON3         equ	535	;# 
   522     0219                     SSP2BUF         equ	537	;# 
   523     021A                     SSP2ADD         equ	538	;# 
   524     021B                     SSP2MSK         equ	539	;# 
   525     021C                     SSP2STAT        equ	540	;# 
   526     021D                     SSP2CON1        equ	541	;# 
   527     021E                     SSP2CON2        equ	542	;# 
   528     021F                     SSP2CON3        equ	543	;# 
   529     0291                     CCPR1           equ	657	;# 
   530     0291                     CCPR1L          equ	657	;# 
   531     0292                     CCPR1H          equ	658	;# 
   532     0293                     CCP1CON         equ	659	;# 
   533     0294                     PWM1CON         equ	660	;# 
   534     0295                     CCP1AS          equ	661	;# 
   535     0295                     ECCP1AS         equ	661	;# 
   536     0296                     PSTR1CON        equ	662	;# 
   537     0298                     CCPR2           equ	664	;# 
   538     0298                     CCPR2L          equ	664	;# 
   539     0299                     CCPR2H          equ	665	;# 
   540     029A                     CCP2CON         equ	666	;# 
   541     029B                     PWM2CON         equ	667	;# 
   542     029C                     CCP2AS          equ	668	;# 
   543     029C                     ECCP2AS         equ	668	;# 
   544     029D                     PSTR2CON        equ	669	;# 
   545     029E                     CCPTMRS         equ	670	;# 
   546     029E                     CCPTMRS0        equ	670	;# 
   547     0311                     CCPR3           equ	785	;# 
   548     0311                     CCPR3L          equ	785	;# 
   549     0312                     CCPR3H          equ	786	;# 
   550     0313                     CCP3CON         equ	787	;# 
   551     0318                     CCPR4           equ	792	;# 
   552     0318                     CCPR4L          equ	792	;# 
   553     0319                     CCPR4H          equ	793	;# 
   554     031A                     CCP4CON         equ	794	;# 
   555     0394                     IOCBP           equ	916	;# 
   556     0395                     IOCBN           equ	917	;# 
   557     0396                     IOCBF           equ	918	;# 
   558     039A                     CLKRCON         equ	922	;# 
   559     039C                     MDCON           equ	924	;# 
   560     039D                     MDSRC           equ	925	;# 
   561     039E                     MDCARL          equ	926	;# 
   562     039F                     MDCARH          equ	927	;# 
   563     0415                     TMR4            equ	1045	;# 
   564     0416                     PR4             equ	1046	;# 
   565     0417                     T4CON           equ	1047	;# 
   566     041C                     TMR6            equ	1052	;# 
   567     041D                     PR6             equ	1053	;# 
   568     041E                     T6CON           equ	1054	;# 
   569     0FE4                     STATUS_SHAD     equ	4068	;# 
   570     0FE5                     WREG_SHAD       equ	4069	;# 
   571     0FE6                     BSR_SHAD        equ	4070	;# 
   572     0FE7                     PCLATH_SHAD     equ	4071	;# 
   573     0FE8                     FSR0L_SHAD      equ	4072	;# 
   574     0FE9                     FSR0H_SHAD      equ	4073	;# 
   575     0FEA                     FSR1L_SHAD      equ	4074	;# 
   576     0FEB                     FSR1H_SHAD      equ	4075	;# 
   577     0FED                     STKPTR          equ	4077	;# 
   578     0FEE                     TOSL            equ	4078	;# 
   579     0FEF                     TOSH            equ	4079	;# 
   580     0000                     INDF0           equ	0	;# 
   581     0001                     INDF1           equ	1	;# 
   582     0002                     PCL             equ	2	;# 
   583     0003                     STATUS          equ	3	;# 
   584     0004                     FSR0L           equ	4	;# 
   585     0005                     FSR0H           equ	5	;# 
   586     0006                     FSR1L           equ	6	;# 
   587     0007                     FSR1H           equ	7	;# 
   588     0008                     BSR             equ	8	;# 
   589     0009                     WREG            equ	9	;# 
   590     000A                     PCLATH          equ	10	;# 
   591     000B                     INTCON          equ	11	;# 
   592     000C                     PORTA           equ	12	;# 
   593     000D                     PORTB           equ	13	;# 
   594     0011                     PIR1            equ	17	;# 
   595     0012                     PIR2            equ	18	;# 
   596     0013                     PIR3            equ	19	;# 
   597     0014                     PIR4            equ	20	;# 
   598     0015                     TMR0            equ	21	;# 
   599     0016                     TMR1            equ	22	;# 
   600     0016                     TMR1L           equ	22	;# 
   601     0017                     TMR1H           equ	23	;# 
   602     0018                     T1CON           equ	24	;# 
   603     0019                     T1GCON          equ	25	;# 
   604     001A                     TMR2            equ	26	;# 
   605     001B                     PR2             equ	27	;# 
   606     001C                     T2CON           equ	28	;# 
   607     001E                     CPSCON0         equ	30	;# 
   608     001F                     CPSCON1         equ	31	;# 
   609     008C                     TRISA           equ	140	;# 
   610     008D                     TRISB           equ	141	;# 
   611     0091                     PIE1            equ	145	;# 
   612     0092                     PIE2            equ	146	;# 
   613     0093                     PIE3            equ	147	;# 
   614     0094                     PIE4            equ	148	;# 
   615     0095                     OPTION_REG      equ	149	;# 
   616     0096                     PCON            equ	150	;# 
   617     0097                     WDTCON          equ	151	;# 
   618     0098                     OSCTUNE         equ	152	;# 
   619     0099                     OSCCON          equ	153	;# 
   620     009A                     OSCSTAT         equ	154	;# 
   621     009B                     ADRES           equ	155	;# 
   622     009B                     ADRESL          equ	155	;# 
   623     009C                     ADRESH          equ	156	;# 
   624     009D                     ADCON0          equ	157	;# 
   625     009E                     ADCON1          equ	158	;# 
   626     010C                     LATA            equ	268	;# 
   627     010D                     LATB            equ	269	;# 
   628     0111                     CM1CON0         equ	273	;# 
   629     0112                     CM1CON1         equ	274	;# 
   630     0113                     CM2CON0         equ	275	;# 
   631     0114                     CM2CON1         equ	276	;# 
   632     0115                     CMOUT           equ	277	;# 
   633     0116                     BORCON          equ	278	;# 
   634     0117                     FVRCON          equ	279	;# 
   635     0118                     DACCON0         equ	280	;# 
   636     0119                     DACCON1         equ	281	;# 
   637     011A                     SRCON0          equ	282	;# 
   638     011B                     SRCON1          equ	283	;# 
   639     011D                     APFCON0         equ	285	;# 
   640     011E                     APFCON1         equ	286	;# 
   641     018C                     ANSELA          equ	396	;# 
   642     018D                     ANSELB          equ	397	;# 
   643     0191                     EEADR           equ	401	;# 
   644     0191                     EEADRL          equ	401	;# 
   645     0192                     EEADRH          equ	402	;# 
   646     0193                     EEDAT           equ	403	;# 
   647     0193                     EEDATL          equ	403	;# 
   648     0193                     EEDATA          equ	403	;# 
   649     0194                     EEDATH          equ	404	;# 
   650     0195                     EECON1          equ	405	;# 
   651     0196                     EECON2          equ	406	;# 
   652     0199                     RCREG           equ	409	;# 
   653     019A                     TXREG           equ	410	;# 
   654     019B                     SP1BRG          equ	411	;# 
   655     019B                     SP1BRGL         equ	411	;# 
   656     019B                     SPBRG           equ	411	;# 
   657     019B                     SPBRGL          equ	411	;# 
   658     019C                     SP1BRGH         equ	412	;# 
   659     019C                     SPBRGH          equ	412	;# 
   660     019D                     RCSTA           equ	413	;# 
   661     019E                     TXSTA           equ	414	;# 
   662     019F                     BAUDCON         equ	415	;# 
   663     020C                     WPUA            equ	524	;# 
   664     020D                     WPUB            equ	525	;# 
   665     0211                     SSP1BUF         equ	529	;# 
   666     0211                     SSPBUF          equ	529	;# 
   667     0212                     SSP1ADD         equ	530	;# 
   668     0212                     SSPADD          equ	530	;# 
   669     0213                     SSP1MSK         equ	531	;# 
   670     0213                     SSPMSK          equ	531	;# 
   671     0214                     SSP1STAT        equ	532	;# 
   672     0214                     SSPSTAT         equ	532	;# 
   673     0215                     SSP1CON1        equ	533	;# 
   674     0215                     SSPCON1         equ	533	;# 
   675     0215                     SSPCON          equ	533	;# 
   676     0216                     SSP1CON2        equ	534	;# 
   677     0216                     SSPCON2         equ	534	;# 
   678     0217                     SSP1CON3        equ	535	;# 
   679     0217                     SSPCON3         equ	535	;# 
   680     0219                     SSP2BUF         equ	537	;# 
   681     021A                     SSP2ADD         equ	538	;# 
   682     021B                     SSP2MSK         equ	539	;# 
   683     021C                     SSP2STAT        equ	540	;# 
   684     021D                     SSP2CON1        equ	541	;# 
   685     021E                     SSP2CON2        equ	542	;# 
   686     021F                     SSP2CON3        equ	543	;# 
   687     0291                     CCPR1           equ	657	;# 
   688     0291                     CCPR1L          equ	657	;# 
   689     0292                     CCPR1H          equ	658	;# 
   690     0293                     CCP1CON         equ	659	;# 
   691     0294                     PWM1CON         equ	660	;# 
   692     0295                     CCP1AS          equ	661	;# 
   693     0295                     ECCP1AS         equ	661	;# 
   694     0296                     PSTR1CON        equ	662	;# 
   695     0298                     CCPR2           equ	664	;# 
   696     0298                     CCPR2L          equ	664	;# 
   697     0299                     CCPR2H          equ	665	;# 
   698     029A                     CCP2CON         equ	666	;# 
   699     029B                     PWM2CON         equ	667	;# 
   700     029C                     CCP2AS          equ	668	;# 
   701     029C                     ECCP2AS         equ	668	;# 
   702     029D                     PSTR2CON        equ	669	;# 
   703     029E                     CCPTMRS         equ	670	;# 
   704     029E                     CCPTMRS0        equ	670	;# 
   705     0311                     CCPR3           equ	785	;# 
   706     0311                     CCPR3L          equ	785	;# 
   707     0312                     CCPR3H          equ	786	;# 
   708     0313                     CCP3CON         equ	787	;# 
   709     0318                     CCPR4           equ	792	;# 
   710     0318                     CCPR4L          equ	792	;# 
   711     0319                     CCPR4H          equ	793	;# 
   712     031A                     CCP4CON         equ	794	;# 
   713     0394                     IOCBP           equ	916	;# 
   714     0395                     IOCBN           equ	917	;# 
   715     0396                     IOCBF           equ	918	;# 
   716     039A                     CLKRCON         equ	922	;# 
   717     039C                     MDCON           equ	924	;# 
   718     039D                     MDSRC           equ	925	;# 
   719     039E                     MDCARL          equ	926	;# 
   720     039F                     MDCARH          equ	927	;# 
   721     0415                     TMR4            equ	1045	;# 
   722     0416                     PR4             equ	1046	;# 
   723     0417                     T4CON           equ	1047	;# 
   724     041C                     TMR6            equ	1052	;# 
   725     041D                     PR6             equ	1053	;# 
   726     041E                     T6CON           equ	1054	;# 
   727     0FE4                     STATUS_SHAD     equ	4068	;# 
   728     0FE5                     WREG_SHAD       equ	4069	;# 
   729     0FE6                     BSR_SHAD        equ	4070	;# 
   730     0FE7                     PCLATH_SHAD     equ	4071	;# 
   731     0FE8                     FSR0L_SHAD      equ	4072	;# 
   732     0FE9                     FSR0H_SHAD      equ	4073	;# 
   733     0FEA                     FSR1L_SHAD      equ	4074	;# 
   734     0FEB                     FSR1H_SHAD      equ	4075	;# 
   735     0FED                     STKPTR          equ	4077	;# 
   736     0FEE                     TOSL            equ	4078	;# 
   737     0FEF                     TOSH            equ	4079	;# 
   738     0000                     INDF0           equ	0	;# 
   739     0001                     INDF1           equ	1	;# 
   740     0002                     PCL             equ	2	;# 
   741     0003                     STATUS          equ	3	;# 
   742     0004                     FSR0L           equ	4	;# 
   743     0005                     FSR0H           equ	5	;# 
   744     0006                     FSR1L           equ	6	;# 
   745     0007                     FSR1H           equ	7	;# 
   746     0008                     BSR             equ	8	;# 
   747     0009                     WREG            equ	9	;# 
   748     000A                     PCLATH          equ	10	;# 
   749     000B                     INTCON          equ	11	;# 
   750     000C                     PORTA           equ	12	;# 
   751     000D                     PORTB           equ	13	;# 
   752     0011                     PIR1            equ	17	;# 
   753     0012                     PIR2            equ	18	;# 
   754     0013                     PIR3            equ	19	;# 
   755     0014                     PIR4            equ	20	;# 
   756     0015                     TMR0            equ	21	;# 
   757     0016                     TMR1            equ	22	;# 
   758     0016                     TMR1L           equ	22	;# 
   759     0017                     TMR1H           equ	23	;# 
   760     0018                     T1CON           equ	24	;# 
   761     0019                     T1GCON          equ	25	;# 
   762     001A                     TMR2            equ	26	;# 
   763     001B                     PR2             equ	27	;# 
   764     001C                     T2CON           equ	28	;# 
   765     001E                     CPSCON0         equ	30	;# 
   766     001F                     CPSCON1         equ	31	;# 
   767     008C                     TRISA           equ	140	;# 
   768     008D                     TRISB           equ	141	;# 
   769     0091                     PIE1            equ	145	;# 
   770     0092                     PIE2            equ	146	;# 
   771     0093                     PIE3            equ	147	;# 
   772     0094                     PIE4            equ	148	;# 
   773     0095                     OPTION_REG      equ	149	;# 
   774     0096                     PCON            equ	150	;# 
   775     0097                     WDTCON          equ	151	;# 
   776     0098                     OSCTUNE         equ	152	;# 
   777     0099                     OSCCON          equ	153	;# 
   778     009A                     OSCSTAT         equ	154	;# 
   779     009B                     ADRES           equ	155	;# 
   780     009B                     ADRESL          equ	155	;# 
   781     009C                     ADRESH          equ	156	;# 
   782     009D                     ADCON0          equ	157	;# 
   783     009E                     ADCON1          equ	158	;# 
   784     010C                     LATA            equ	268	;# 
   785     010D                     LATB            equ	269	;# 
   786     0111                     CM1CON0         equ	273	;# 
   787     0112                     CM1CON1         equ	274	;# 
   788     0113                     CM2CON0         equ	275	;# 
   789     0114                     CM2CON1         equ	276	;# 
   790     0115                     CMOUT           equ	277	;# 
   791     0116                     BORCON          equ	278	;# 
   792     0117                     FVRCON          equ	279	;# 
   793     0118                     DACCON0         equ	280	;# 
   794     0119                     DACCON1         equ	281	;# 
   795     011A                     SRCON0          equ	282	;# 
   796     011B                     SRCON1          equ	283	;# 
   797     011D                     APFCON0         equ	285	;# 
   798     011E                     APFCON1         equ	286	;# 
   799     018C                     ANSELA          equ	396	;# 
   800     018D                     ANSELB          equ	397	;# 
   801     0191                     EEADR           equ	401	;# 
   802     0191                     EEADRL          equ	401	;# 
   803     0192                     EEADRH          equ	402	;# 
   804     0193                     EEDAT           equ	403	;# 
   805     0193                     EEDATL          equ	403	;# 
   806     0193                     EEDATA          equ	403	;# 
   807     0194                     EEDATH          equ	404	;# 
   808     0195                     EECON1          equ	405	;# 
   809     0196                     EECON2          equ	406	;# 
   810     0199                     RCREG           equ	409	;# 
   811     019A                     TXREG           equ	410	;# 
   812     019B                     SP1BRG          equ	411	;# 
   813     019B                     SP1BRGL         equ	411	;# 
   814     019B                     SPBRG           equ	411	;# 
   815     019B                     SPBRGL          equ	411	;# 
   816     019C                     SP1BRGH         equ	412	;# 
   817     019C                     SPBRGH          equ	412	;# 
   818     019D                     RCSTA           equ	413	;# 
   819     019E                     TXSTA           equ	414	;# 
   820     019F                     BAUDCON         equ	415	;# 
   821     020C                     WPUA            equ	524	;# 
   822     020D                     WPUB            equ	525	;# 
   823     0211                     SSP1BUF         equ	529	;# 
   824     0211                     SSPBUF          equ	529	;# 
   825     0212                     SSP1ADD         equ	530	;# 
   826     0212                     SSPADD          equ	530	;# 
   827     0213                     SSP1MSK         equ	531	;# 
   828     0213                     SSPMSK          equ	531	;# 
   829     0214                     SSP1STAT        equ	532	;# 
   830     0214                     SSPSTAT         equ	532	;# 
   831     0215                     SSP1CON1        equ	533	;# 
   832     0215                     SSPCON1         equ	533	;# 
   833     0215                     SSPCON          equ	533	;# 
   834     0216                     SSP1CON2        equ	534	;# 
   835     0216                     SSPCON2         equ	534	;# 
   836     0217                     SSP1CON3        equ	535	;# 
   837     0217                     SSPCON3         equ	535	;# 
   838     0219                     SSP2BUF         equ	537	;# 
   839     021A                     SSP2ADD         equ	538	;# 
   840     021B                     SSP2MSK         equ	539	;# 
   841     021C                     SSP2STAT        equ	540	;# 
   842     021D                     SSP2CON1        equ	541	;# 
   843     021E                     SSP2CON2        equ	542	;# 
   844     021F                     SSP2CON3        equ	543	;# 
   845     0291                     CCPR1           equ	657	;# 
   846     0291                     CCPR1L          equ	657	;# 
   847     0292                     CCPR1H          equ	658	;# 
   848     0293                     CCP1CON         equ	659	;# 
   849     0294                     PWM1CON         equ	660	;# 
   850     0295                     CCP1AS          equ	661	;# 
   851     0295                     ECCP1AS         equ	661	;# 
   852     0296                     PSTR1CON        equ	662	;# 
   853     0298                     CCPR2           equ	664	;# 
   854     0298                     CCPR2L          equ	664	;# 
   855     0299                     CCPR2H          equ	665	;# 
   856     029A                     CCP2CON         equ	666	;# 
   857     029B                     PWM2CON         equ	667	;# 
   858     029C                     CCP2AS          equ	668	;# 
   859     029C                     ECCP2AS         equ	668	;# 
   860     029D                     PSTR2CON        equ	669	;# 
   861     029E                     CCPTMRS         equ	670	;# 
   862     029E                     CCPTMRS0        equ	670	;# 
   863     0311                     CCPR3           equ	785	;# 
   864     0311                     CCPR3L          equ	785	;# 
   865     0312                     CCPR3H          equ	786	;# 
   866     0313                     CCP3CON         equ	787	;# 
   867     0318                     CCPR4           equ	792	;# 
   868     0318                     CCPR4L          equ	792	;# 
   869     0319                     CCPR4H          equ	793	;# 
   870     031A                     CCP4CON         equ	794	;# 
   871     0394                     IOCBP           equ	916	;# 
   872     0395                     IOCBN           equ	917	;# 
   873     0396                     IOCBF           equ	918	;# 
   874     039A                     CLKRCON         equ	922	;# 
   875     039C                     MDCON           equ	924	;# 
   876     039D                     MDSRC           equ	925	;# 
   877     039E                     MDCARL          equ	926	;# 
   878     039F                     MDCARH          equ	927	;# 
   879     0415                     TMR4            equ	1045	;# 
   880     0416                     PR4             equ	1046	;# 
   881     0417                     T4CON           equ	1047	;# 
   882     041C                     TMR6            equ	1052	;# 
   883     041D                     PR6             equ	1053	;# 
   884     041E                     T6CON           equ	1054	;# 
   885     0FE4                     STATUS_SHAD     equ	4068	;# 
   886     0FE5                     WREG_SHAD       equ	4069	;# 
   887     0FE6                     BSR_SHAD        equ	4070	;# 
   888     0FE7                     PCLATH_SHAD     equ	4071	;# 
   889     0FE8                     FSR0L_SHAD      equ	4072	;# 
   890     0FE9                     FSR0H_SHAD      equ	4073	;# 
   891     0FEA                     FSR1L_SHAD      equ	4074	;# 
   892     0FEB                     FSR1H_SHAD      equ	4075	;# 
   893     0FED                     STKPTR          equ	4077	;# 
   894     0FEE                     TOSL            equ	4078	;# 
   895     0FEF                     TOSH            equ	4079	;# 
   896     0000                     INDF0           equ	0	;# 
   897     0001                     INDF1           equ	1	;# 
   898     0002                     PCL             equ	2	;# 
   899     0003                     STATUS          equ	3	;# 
   900     0004                     FSR0L           equ	4	;# 
   901     0005                     FSR0H           equ	5	;# 
   902     0006                     FSR1L           equ	6	;# 
   903     0007                     FSR1H           equ	7	;# 
   904     0008                     BSR             equ	8	;# 
   905     0009                     WREG            equ	9	;# 
   906     000A                     PCLATH          equ	10	;# 
   907     000B                     INTCON          equ	11	;# 
   908     000C                     PORTA           equ	12	;# 
   909     000D                     PORTB           equ	13	;# 
   910     0011                     PIR1            equ	17	;# 
   911     0012                     PIR2            equ	18	;# 
   912     0013                     PIR3            equ	19	;# 
   913     0014                     PIR4            equ	20	;# 
   914     0015                     TMR0            equ	21	;# 
   915     0016                     TMR1            equ	22	;# 
   916     0016                     TMR1L           equ	22	;# 
   917     0017                     TMR1H           equ	23	;# 
   918     0018                     T1CON           equ	24	;# 
   919     0019                     T1GCON          equ	25	;# 
   920     001A                     TMR2            equ	26	;# 
   921     001B                     PR2             equ	27	;# 
   922     001C                     T2CON           equ	28	;# 
   923     001E                     CPSCON0         equ	30	;# 
   924     001F                     CPSCON1         equ	31	;# 
   925     008C                     TRISA           equ	140	;# 
   926     008D                     TRISB           equ	141	;# 
   927     0091                     PIE1            equ	145	;# 
   928     0092                     PIE2            equ	146	;# 
   929     0093                     PIE3            equ	147	;# 
   930     0094                     PIE4            equ	148	;# 
   931     0095                     OPTION_REG      equ	149	;# 
   932     0096                     PCON            equ	150	;# 
   933     0097                     WDTCON          equ	151	;# 
   934     0098                     OSCTUNE         equ	152	;# 
   935     0099                     OSCCON          equ	153	;# 
   936     009A                     OSCSTAT         equ	154	;# 
   937     009B                     ADRES           equ	155	;# 
   938     009B                     ADRESL          equ	155	;# 
   939     009C                     ADRESH          equ	156	;# 
   940     009D                     ADCON0          equ	157	;# 
   941     009E                     ADCON1          equ	158	;# 
   942     010C                     LATA            equ	268	;# 
   943     010D                     LATB            equ	269	;# 
   944     0111                     CM1CON0         equ	273	;# 
   945     0112                     CM1CON1         equ	274	;# 
   946     0113                     CM2CON0         equ	275	;# 
   947     0114                     CM2CON1         equ	276	;# 
   948     0115                     CMOUT           equ	277	;# 
   949     0116                     BORCON          equ	278	;# 
   950     0117                     FVRCON          equ	279	;# 
   951     0118                     DACCON0         equ	280	;# 
   952     0119                     DACCON1         equ	281	;# 
   953     011A                     SRCON0          equ	282	;# 
   954     011B                     SRCON1          equ	283	;# 
   955     011D                     APFCON0         equ	285	;# 
   956     011E                     APFCON1         equ	286	;# 
   957     018C                     ANSELA          equ	396	;# 
   958     018D                     ANSELB          equ	397	;# 
   959     0191                     EEADR           equ	401	;# 
   960     0191                     EEADRL          equ	401	;# 
   961     0192                     EEADRH          equ	402	;# 
   962     0193                     EEDAT           equ	403	;# 
   963     0193                     EEDATL          equ	403	;# 
   964     0193                     EEDATA          equ	403	;# 
   965     0194                     EEDATH          equ	404	;# 
   966     0195                     EECON1          equ	405	;# 
   967     0196                     EECON2          equ	406	;# 
   968     0199                     RCREG           equ	409	;# 
   969     019A                     TXREG           equ	410	;# 
   970     019B                     SP1BRG          equ	411	;# 
   971     019B                     SP1BRGL         equ	411	;# 
   972     019B                     SPBRG           equ	411	;# 
   973     019B                     SPBRGL          equ	411	;# 
   974     019C                     SP1BRGH         equ	412	;# 
   975     019C                     SPBRGH          equ	412	;# 
   976     019D                     RCSTA           equ	413	;# 
   977     019E                     TXSTA           equ	414	;# 
   978     019F                     BAUDCON         equ	415	;# 
   979     020C                     WPUA            equ	524	;# 
   980     020D                     WPUB            equ	525	;# 
   981     0211                     SSP1BUF         equ	529	;# 
   982     0211                     SSPBUF          equ	529	;# 
   983     0212                     SSP1ADD         equ	530	;# 
   984     0212                     SSPADD          equ	530	;# 
   985     0213                     SSP1MSK         equ	531	;# 
   986     0213                     SSPMSK          equ	531	;# 
   987     0214                     SSP1STAT        equ	532	;# 
   988     0214                     SSPSTAT         equ	532	;# 
   989     0215                     SSP1CON1        equ	533	;# 
   990     0215                     SSPCON1         equ	533	;# 
   991     0215                     SSPCON          equ	533	;# 
   992     0216                     SSP1CON2        equ	534	;# 
   993     0216                     SSPCON2         equ	534	;# 
   994     0217                     SSP1CON3        equ	535	;# 
   995     0217                     SSPCON3         equ	535	;# 
   996     0219                     SSP2BUF         equ	537	;# 
   997     021A                     SSP2ADD         equ	538	;# 
   998     021B                     SSP2MSK         equ	539	;# 
   999     021C                     SSP2STAT        equ	540	;# 
  1000     021D                     SSP2CON1        equ	541	;# 
  1001     021E                     SSP2CON2        equ	542	;# 
  1002     021F                     SSP2CON3        equ	543	;# 
  1003     0291                     CCPR1           equ	657	;# 
  1004     0291                     CCPR1L          equ	657	;# 
  1005     0292                     CCPR1H          equ	658	;# 
  1006     0293                     CCP1CON         equ	659	;# 
  1007     0294                     PWM1CON         equ	660	;# 
  1008     0295                     CCP1AS          equ	661	;# 
  1009     0295                     ECCP1AS         equ	661	;# 
  1010     0296                     PSTR1CON        equ	662	;# 
  1011     0298                     CCPR2           equ	664	;# 
  1012     0298                     CCPR2L          equ	664	;# 
  1013     0299                     CCPR2H          equ	665	;# 
  1014     029A                     CCP2CON         equ	666	;# 
  1015     029B                     PWM2CON         equ	667	;# 
  1016     029C                     CCP2AS          equ	668	;# 
  1017     029C                     ECCP2AS         equ	668	;# 
  1018     029D                     PSTR2CON        equ	669	;# 
  1019     029E                     CCPTMRS         equ	670	;# 
  1020     029E                     CCPTMRS0        equ	670	;# 
  1021     0311                     CCPR3           equ	785	;# 
  1022     0311                     CCPR3L          equ	785	;# 
  1023     0312                     CCPR3H          equ	786	;# 
  1024     0313                     CCP3CON         equ	787	;# 
  1025     0318                     CCPR4           equ	792	;# 
  1026     0318                     CCPR4L          equ	792	;# 
  1027     0319                     CCPR4H          equ	793	;# 
  1028     031A                     CCP4CON         equ	794	;# 
  1029     0394                     IOCBP           equ	916	;# 
  1030     0395                     IOCBN           equ	917	;# 
  1031     0396                     IOCBF           equ	918	;# 
  1032     039A                     CLKRCON         equ	922	;# 
  1033     039C                     MDCON           equ	924	;# 
  1034     039D                     MDSRC           equ	925	;# 
  1035     039E                     MDCARL          equ	926	;# 
  1036     039F                     MDCARH          equ	927	;# 
  1037     0415                     TMR4            equ	1045	;# 
  1038     0416                     PR4             equ	1046	;# 
  1039     0417                     T4CON           equ	1047	;# 
  1040     041C                     TMR6            equ	1052	;# 
  1041     041D                     PR6             equ	1053	;# 
  1042     041E                     T6CON           equ	1054	;# 
  1043     0FE4                     STATUS_SHAD     equ	4068	;# 
  1044     0FE5                     WREG_SHAD       equ	4069	;# 
  1045     0FE6                     BSR_SHAD        equ	4070	;# 
  1046     0FE7                     PCLATH_SHAD     equ	4071	;# 
  1047     0FE8                     FSR0L_SHAD      equ	4072	;# 
  1048     0FE9                     FSR0H_SHAD      equ	4073	;# 
  1049     0FEA                     FSR1L_SHAD      equ	4074	;# 
  1050     0FEB                     FSR1H_SHAD      equ	4075	;# 
  1051     0FED                     STKPTR          equ	4077	;# 
  1052     0FEE                     TOSL            equ	4078	;# 
  1053     0FEF                     TOSH            equ	4079	;# 
  1054                           
  1055                           	psect	eeprom_data
  1056     0000  0039 0038 0037 0036 0002 0001 0036 0037 	db	57,56,55,54,2,1,54,55	;# 
  1057     0008  0034 0033 0033 0032 0047 0047 0046 0046 	db	52,51,51,50,71,71,70,70	;# 
  1058     0010  000E 00D4 0039 006F 0015 0008 000B 001B 	db	14,212,57,111,21,8,11,27	;# 
  1059     0018  000B 00DE 0004 0000 0000 0055 0024 00E8 	db	11,222,4,0,0,85,36,232	;# 
  1060     0020  0059 00BD 0009 0008 002B 00F3 002A 001F 	db	89,189,9,8,43,243,42,31	;# 
  1061     0028  0015 0000 0001 0002 0003 0004 0005 0006 	db	21,0,1,2,3,4,5,6	;# 
  1062     0030  0038 0037 0037 0036 0044 0044 0044 0043 	db	56,55,55,54,68,68,68,67	;# 
  1063     0038  005B 005A 005A 0059 0026 0025 0025 0000 	db	91,90,90,89,38,37,37,0	;# 
  1064     0000                     INDF0           equ	0	;# 
  1065     0001                     INDF1           equ	1	;# 
  1066     0002                     PCL             equ	2	;# 
  1067     0003                     STATUS          equ	3	;# 
  1068     0004                     FSR0L           equ	4	;# 
  1069     0005                     FSR0H           equ	5	;# 
  1070     0006                     FSR1L           equ	6	;# 
  1071     0007                     FSR1H           equ	7	;# 
  1072     0008                     BSR             equ	8	;# 
  1073     0009                     WREG            equ	9	;# 
  1074     000A                     PCLATH          equ	10	;# 
  1075     000B                     INTCON          equ	11	;# 
  1076     000C                     PORTA           equ	12	;# 
  1077     000D                     PORTB           equ	13	;# 
  1078     0011                     PIR1            equ	17	;# 
  1079     0012                     PIR2            equ	18	;# 
  1080     0013                     PIR3            equ	19	;# 
  1081     0014                     PIR4            equ	20	;# 
  1082     0015                     TMR0            equ	21	;# 
  1083     0016                     TMR1            equ	22	;# 
  1084     0016                     TMR1L           equ	22	;# 
  1085     0017                     TMR1H           equ	23	;# 
  1086     0018                     T1CON           equ	24	;# 
  1087     0019                     T1GCON          equ	25	;# 
  1088     001A                     TMR2            equ	26	;# 
  1089     001B                     PR2             equ	27	;# 
  1090     001C                     T2CON           equ	28	;# 
  1091     001E                     CPSCON0         equ	30	;# 
  1092     001F                     CPSCON1         equ	31	;# 
  1093     008C                     TRISA           equ	140	;# 
  1094     008D                     TRISB           equ	141	;# 
  1095     0091                     PIE1            equ	145	;# 
  1096     0092                     PIE2            equ	146	;# 
  1097     0093                     PIE3            equ	147	;# 
  1098     0094                     PIE4            equ	148	;# 
  1099     0095                     OPTION_REG      equ	149	;# 
  1100     0096                     PCON            equ	150	;# 
  1101     0097                     WDTCON          equ	151	;# 
  1102     0098                     OSCTUNE         equ	152	;# 
  1103     0099                     OSCCON          equ	153	;# 
  1104     009A                     OSCSTAT         equ	154	;# 
  1105     009B                     ADRES           equ	155	;# 
  1106     009B                     ADRESL          equ	155	;# 
  1107     009C                     ADRESH          equ	156	;# 
  1108     009D                     ADCON0          equ	157	;# 
  1109     009E                     ADCON1          equ	158	;# 
  1110     010C                     LATA            equ	268	;# 
  1111     010D                     LATB            equ	269	;# 
  1112     0111                     CM1CON0         equ	273	;# 
  1113     0112                     CM1CON1         equ	274	;# 
  1114     0113                     CM2CON0         equ	275	;# 
  1115     0114                     CM2CON1         equ	276	;# 
  1116     0115                     CMOUT           equ	277	;# 
  1117     0116                     BORCON          equ	278	;# 
  1118     0117                     FVRCON          equ	279	;# 
  1119     0118                     DACCON0         equ	280	;# 
  1120     0119                     DACCON1         equ	281	;# 
  1121     011A                     SRCON0          equ	282	;# 
  1122     011B                     SRCON1          equ	283	;# 
  1123     011D                     APFCON0         equ	285	;# 
  1124     011E                     APFCON1         equ	286	;# 
  1125     018C                     ANSELA          equ	396	;# 
  1126     018D                     ANSELB          equ	397	;# 
  1127     0191                     EEADR           equ	401	;# 
  1128     0191                     EEADRL          equ	401	;# 
  1129     0192                     EEADRH          equ	402	;# 
  1130     0193                     EEDAT           equ	403	;# 
  1131     0193                     EEDATL          equ	403	;# 
  1132     0193                     EEDATA          equ	403	;# 
  1133     0194                     EEDATH          equ	404	;# 
  1134     0195                     EECON1          equ	405	;# 
  1135     0196                     EECON2          equ	406	;# 
  1136     0199                     RCREG           equ	409	;# 
  1137     019A                     TXREG           equ	410	;# 
  1138     019B                     SP1BRG          equ	411	;# 
  1139     019B                     SP1BRGL         equ	411	;# 
  1140     019B                     SPBRG           equ	411	;# 
  1141     019B                     SPBRGL          equ	411	;# 
  1142     019C                     SP1BRGH         equ	412	;# 
  1143     019C                     SPBRGH          equ	412	;# 
  1144     019D                     RCSTA           equ	413	;# 
  1145     019E                     TXSTA           equ	414	;# 
  1146     019F                     BAUDCON         equ	415	;# 
  1147     020C                     WPUA            equ	524	;# 
  1148     020D                     WPUB            equ	525	;# 
  1149     0211                     SSP1BUF         equ	529	;# 
  1150     0211                     SSPBUF          equ	529	;# 
  1151     0212                     SSP1ADD         equ	530	;# 
  1152     0212                     SSPADD          equ	530	;# 
  1153     0213                     SSP1MSK         equ	531	;# 
  1154     0213                     SSPMSK          equ	531	;# 
  1155     0214                     SSP1STAT        equ	532	;# 
  1156     0214                     SSPSTAT         equ	532	;# 
  1157     0215                     SSP1CON1        equ	533	;# 
  1158     0215                     SSPCON1         equ	533	;# 
  1159     0215                     SSPCON          equ	533	;# 
  1160     0216                     SSP1CON2        equ	534	;# 
  1161     0216                     SSPCON2         equ	534	;# 
  1162     0217                     SSP1CON3        equ	535	;# 
  1163     0217                     SSPCON3         equ	535	;# 
  1164     0219                     SSP2BUF         equ	537	;# 
  1165     021A                     SSP2ADD         equ	538	;# 
  1166     021B                     SSP2MSK         equ	539	;# 
  1167     021C                     SSP2STAT        equ	540	;# 
  1168     021D                     SSP2CON1        equ	541	;# 
  1169     021E                     SSP2CON2        equ	542	;# 
  1170     021F                     SSP2CON3        equ	543	;# 
  1171     0291                     CCPR1           equ	657	;# 
  1172     0291                     CCPR1L          equ	657	;# 
  1173     0292                     CCPR1H          equ	658	;# 
  1174     0293                     CCP1CON         equ	659	;# 
  1175     0294                     PWM1CON         equ	660	;# 
  1176     0295                     CCP1AS          equ	661	;# 
  1177     0295                     ECCP1AS         equ	661	;# 
  1178     0296                     PSTR1CON        equ	662	;# 
  1179     0298                     CCPR2           equ	664	;# 
  1180     0298                     CCPR2L          equ	664	;# 
  1181     0299                     CCPR2H          equ	665	;# 
  1182     029A                     CCP2CON         equ	666	;# 
  1183     029B                     PWM2CON         equ	667	;# 
  1184     029C                     CCP2AS          equ	668	;# 
  1185     029C                     ECCP2AS         equ	668	;# 
  1186     029D                     PSTR2CON        equ	669	;# 
  1187     029E                     CCPTMRS         equ	670	;# 
  1188     029E                     CCPTMRS0        equ	670	;# 
  1189     0311                     CCPR3           equ	785	;# 
  1190     0311                     CCPR3L          equ	785	;# 
  1191     0312                     CCPR3H          equ	786	;# 
  1192     0313                     CCP3CON         equ	787	;# 
  1193     0318                     CCPR4           equ	792	;# 
  1194     0318                     CCPR4L          equ	792	;# 
  1195     0319                     CCPR4H          equ	793	;# 
  1196     031A                     CCP4CON         equ	794	;# 
  1197     0394                     IOCBP           equ	916	;# 
  1198     0395                     IOCBN           equ	917	;# 
  1199     0396                     IOCBF           equ	918	;# 
  1200     039A                     CLKRCON         equ	922	;# 
  1201     039C                     MDCON           equ	924	;# 
  1202     039D                     MDSRC           equ	925	;# 
  1203     039E                     MDCARL          equ	926	;# 
  1204     039F                     MDCARH          equ	927	;# 
  1205     0415                     TMR4            equ	1045	;# 
  1206     0416                     PR4             equ	1046	;# 
  1207     0417                     T4CON           equ	1047	;# 
  1208     041C                     TMR6            equ	1052	;# 
  1209     041D                     PR6             equ	1053	;# 
  1210     041E                     T6CON           equ	1054	;# 
  1211     0FE4                     STATUS_SHAD     equ	4068	;# 
  1212     0FE5                     WREG_SHAD       equ	4069	;# 
  1213     0FE6                     BSR_SHAD        equ	4070	;# 
  1214     0FE7                     PCLATH_SHAD     equ	4071	;# 
  1215     0FE8                     FSR0L_SHAD      equ	4072	;# 
  1216     0FE9                     FSR0H_SHAD      equ	4073	;# 
  1217     0FEA                     FSR1L_SHAD      equ	4074	;# 
  1218     0FEB                     FSR1H_SHAD      equ	4075	;# 
  1219     0FED                     STKPTR          equ	4077	;# 
  1220     0FEE                     TOSL            equ	4078	;# 
  1221     0FEF                     TOSH            equ	4079	;# 
  1222                           
  1223                           	psect	stringtext1
  1224     1000                     __pstringtext1:
  1225     1000                     __CFC22:
  1226     1000  3441               	retlw	65
  1227     1001  3454               	retlw	84
  1228     1002  342B               	retlw	43
  1229     1003  3454               	retlw	84
  1230     1004  3443               	retlw	67
  1231     1005  344F               	retlw	79
  1232     1006  344E               	retlw	78
  1233     1007  3446               	retlw	70
  1234     1008  343D               	retlw	61
  1235     1009  3439               	retlw	57
  1236     100A  3430               	retlw	48
  1237     100B  3436               	retlw	54
  1238     100C  3437               	retlw	55
  1239     100D  3430               	retlw	48
  1240     100E  3430               	retlw	48
  1241     100F  343A               	retlw	58
  1242     1010  3432               	retlw	50
  1243     1011  3432               	retlw	50
  1244     1012  343A               	retlw	58
  1245     1013  3431               	retlw	49
  1246     1014  3432               	retlw	50
  1247     1015  3435               	retlw	53
  1248     1016  343A               	retlw	58
  1249     1017  3431               	retlw	49
  1250     1018  3432               	retlw	50
  1251     1019  343A               	retlw	58
  1252     101A  3434               	retlw	52
  1253     101B  342F               	retlw	47
  1254     101C  3438               	retlw	56
  1255     101D  343A               	retlw	58
  1256     101E  3431               	retlw	49
  1257     101F  343A               	retlw	58
  1258     1020  3431               	retlw	49
  1259     1021  340D               	retlw	13
  1260     1022  3400               	retlw	0
  1261     1023                     __end_of__CFC22:
  1262                           
  1263                           	psect	stringtext2
  1264     1023                     __pstringtext2:
  1265     1023                     __TXC22PING:
  1266     1023  3441               	retlw	65
  1267     1024  3454               	retlw	84
  1268     1025  342B               	retlw	43
  1269     1026  3454               	retlw	84
  1270     1027  3458               	retlw	88
  1271     1028  344C               	retlw	76
  1272     1029  3452               	retlw	82
  1273     102A  3441               	retlw	65
  1274     102B  343D               	retlw	61
  1275     102C  3439               	retlw	57
  1276     102D  3430               	retlw	48
  1277     102E  3436               	retlw	54
  1278     102F  3437               	retlw	55
  1279     1030  3430               	retlw	48
  1280     1031  3430               	retlw	48
  1281     1032  343A               	retlw	58
  1282     1033  3430               	retlw	48
  1283     1034  343A               	retlw	58
  1284     1035  3450               	retlw	80
  1285     1036  3449               	retlw	73
  1286     1037  344E               	retlw	78
  1287     1038  3447               	retlw	71
  1288     1039  340D               	retlw	13
  1289     103A  3400               	retlw	0
  1290     103B                     __end_of__TXC22PING:
  1291                           
  1292                           	psect	stringtext3
  1293     103B                     __pstringtext3:
  1294     103B                     __RXC22:
  1295     103B  3441               	retlw	65
  1296     103C  3454               	retlw	84
  1297     103D  342B               	retlw	43
  1298     103E  3452               	retlw	82
  1299     103F  3458               	retlw	88
  1300     1040  344C               	retlw	76
  1301     1041  3452               	retlw	82
  1302     1042  3441               	retlw	65
  1303     1043  343D               	retlw	61
  1304     1044  3439               	retlw	57
  1305     1045  3430               	retlw	48
  1306     1046  3436               	retlw	54
  1307     1047  3437               	retlw	55
  1308     1048  3430               	retlw	48
  1309     1049  3430               	retlw	48
  1310     104A  343A               	retlw	58
  1311     104B  3431               	retlw	49
  1312     104C  340D               	retlw	13
  1313     104D  3400               	retlw	0
  1314     104E                     __end_of__RXC22:
  1315                           
  1316                           	psect	stringtext4
  1317     104E                     __pstringtext4:
  1318     104E                     __TXSTART22:
  1319     104E  3441               	retlw	65
  1320     104F  3454               	retlw	84
  1321     1050  342B               	retlw	43
  1322     1051  3454               	retlw	84
  1323     1052  3458               	retlw	88
  1324     1053  344C               	retlw	76
  1325     1054  3452               	retlw	82
  1326     1055  3441               	retlw	65
  1327     1056  343D               	retlw	61
  1328     1057  3439               	retlw	57
  1329     1058  3430               	retlw	48
  1330     1059  3436               	retlw	54
  1331     105A  3437               	retlw	55
  1332     105B  3430               	retlw	48
  1333     105C  3430               	retlw	48
  1334     105D  343A               	retlw	58
  1335     105E  3430               	retlw	48
  1336     105F  343A               	retlw	58
  1337     1060  3400               	retlw	0
  1338     1061                     __end_of__TXSTART22:
  1339                           
  1340                           	psect	stringtext5
  1341     1061                     __pstringtext5:
  1342     1061                     __CFOFF:
  1343     1061  3441               	retlw	65
  1344     1062  3454               	retlw	84
  1345     1063  342B               	retlw	43
  1346     1064  3454               	retlw	84
  1347     1065  344F               	retlw	79
  1348     1066  3446               	retlw	70
  1349     1067  3446               	retlw	70
  1350     1068  340D               	retlw	13
  1351     1069  3400               	retlw	0
  1352     106A                     __end_of__CFOFF:
  1353                           
  1354                           	psect	stringtext6
  1355     106A                     __pstringtext6:
  1356     106A                     __RESET:
  1357     106A  3441               	retlw	65
  1358     106B  3454               	retlw	84
  1359     106C  345A               	retlw	90
  1360     106D  340D               	retlw	13
  1361     106E  3400               	retlw	0
  1362     106F                     __end_of__RESET:
  1363                           
  1364                           	psect	nvBANK1
  1365     00EA                     __pnvBANK1:
  1366     00EA                     _segsAlive:
  1367     00EA                     	ds	2
  1368     000C                     _PORTAbits      set	12
  1369     000D                     _PORTBbits      set	13
  1370     0011                     _PIR1bits       set	17
  1371     000B                     _INTCONbits     set	11
  1372     0097                     _WDTCONbits     set	151
  1373     008D                     _TRISBbits      set	141
  1374     0095                     _OPTION_REGbits set	149
  1375     008D                     _TRISB          set	141
  1376     008C                     _TRISA          set	140
  1377     0091                     _PIE1bits       set	145
  1378     0097                     _WDTCON         set	151
  1379     0098                     _OSCTUNE        set	152
  1380     0099                     _OSCCON         set	153
  1381     010C                     _LATAbits       set	268
  1382     010D                     _LATBbits       set	269
  1383     011E                     _APFCON1        set	286
  1384     011D                     _APFCON0        set	285
  1385     010D                     _LATB           set	269
  1386     010C                     _LATA           set	268
  1387     0116                     _BORCON         set	278
  1388     0196                     _EECON2         set	406
  1389     0193                     _EEDATL         set	403
  1390     0194                     _EEDATH         set	404
  1391     0195                     _EECON1bits     set	405
  1392     0192                     _EEADRH         set	402
  1393     0191                     _EEADRL         set	401
  1394     018C                     _ANSELA         set	396
  1395     018D                     _ANSELB         set	397
  1396     0199                     _RCREG          set	409
  1397     019D                     _RCSTAbits      set	413
  1398     019A                     _TXREG          set	410
  1399     019E                     _TXSTAbits      set	414
  1400     019C                     _SPBRGH         set	412
  1401     019B                     _SPBRGL         set	411
  1402     019E                     _TXSTA          set	414
  1403     019D                     _RCSTA          set	413
  1404     019F                     _BAUDCON        set	415
  1405     020C                     _WPUA           set	524
  1406     020D                     _WPUB           set	525
  1407                           
  1408                           	psect	cinit
  1409     002E                     start_initialization:	
  1410                           ; #config settings
  1411                           
  1412     002E                     __initialization:
  1413                           
  1414                           ; Clear objects allocated to COMMON
  1415     002E  01FB               	clrf	__pbssCOMMON& (0+127)
  1416     002F  01FC               	clrf	(__pbssCOMMON+1)& (0+127)
  1417     0030  01FD               	clrf	(__pbssCOMMON+2)& (0+127)
  1418                           
  1419                           ; Clear objects allocated to BANK0
  1420     0031  3020               	movlw	low __pbssBANK0
  1421     0032  0084               	movwf	4
  1422     0033  3000               	movlw	high __pbssBANK0
  1423     0034  0085               	movwf	5
  1424     0035  304F               	movlw	79
  1425     0036  318D  25ED  3180   	fcall	clear_ram0
  1426                           
  1427                           ; Clear objects allocated to BANK1
  1428     0039  30A0               	movlw	low __pbssBANK1
  1429     003A  0084               	movwf	4
  1430     003B  3000               	movlw	high __pbssBANK1
  1431     003C  0085               	movwf	5
  1432     003D  304A               	movlw	74
  1433     003E  318D  25ED  3180   	fcall	clear_ram0
  1434                           
  1435                           ; Clear objects allocated to BANK2
  1436     0041  3020               	movlw	low __pbssBANK2
  1437     0042  0084               	movwf	4
  1438     0043  3001               	movlw	high __pbssBANK2
  1439     0044  0085               	movwf	5
  1440     0045  3040               	movlw	64
  1441     0046  318D  25ED  3180   	fcall	clear_ram0
  1442                           
  1443                           ; Clear objects allocated to BANK3
  1444     0049  30A0               	movlw	low __pbssBANK3
  1445     004A  0084               	movwf	4
  1446     004B  3001               	movlw	high __pbssBANK3
  1447     004C  0085               	movwf	5
  1448     004D  3040               	movlw	64
  1449     004E  318D  25ED  3180   	fcall	clear_ram0
  1450                           
  1451                           ; Clear objects allocated to BANK4
  1452     0051  3020               	movlw	low __pbssBANK4
  1453     0052  0084               	movwf	4
  1454     0053  3002               	movlw	high __pbssBANK4
  1455     0054  0085               	movwf	5
  1456     0055  3040               	movlw	64
  1457     0056  318D  25ED  3180   	fcall	clear_ram0
  1458     0059                     end_of_initialization:	
  1459                           ;End of C runtime variable initialization code
  1460                           
  1461     0059                     __end_of__initialization:
  1462     0059  107E               	bcf	int$flags,0	;clear compiler interrupt flag (level 1)
  1463     005A  0020               	movlb	0
  1464     005B  3180  285D         	ljmp	_main	;jump to C main() function
  1465                           
  1466                           	psect	bssCOMMON
  1467     007B                     __pbssCOMMON:
  1468     007B                     _loop:
  1469     007B                     	ds	1
  1470     007C                     _eusartRxHead:
  1471     007C                     	ds	1
  1472     007D                     _indice:
  1473     007D                     	ds	1
  1474                           
  1475                           	psect	bssBANK0
  1476     0020                     __pbssBANK0:
  1477     0020                     _flags:
  1478     0020                     	ds	6
  1479     0026                     _endereco:
  1480     0026                     	ds	2
  1481     0028                     _enderecoRecebido:
  1482     0028                     	ds	2
  1483     002A                     _temp16:
  1484     002A                     	ds	2
  1485     002C                     _tempoRTX:
  1486     002C                     	ds	2
  1487     002E                     _cicloLED:
  1488     002E                     	ds	2
  1489     0030                     _TempoDeReplicacao:
  1490     0030                     	ds	2
  1491     0032                     _ENDERECO:
  1492     0032                     	ds	2
  1493     0034                     _OFFSET:
  1494     0034                     	ds	2
  1495     0036                     _EUSART_OverrunErrorHandler:
  1496     0036                     	ds	2
  1497     0038                     _EUSART_FramingErrorHandler:
  1498     0038                     	ds	2
  1499     003A                     _EUSART_RxDefaultInterruptHandler:
  1500     003A                     	ds	2
  1501     003C                     _EUSART_TxDefaultInterruptHandler:
  1502     003C                     	ds	2
  1503     003E                     _endereco_U:
  1504     003E                     	ds	1
  1505     003F                     _endereco_D:
  1506     003F                     	ds	1
  1507     0040                     _endereco_C:
  1508     0040                     	ds	1
  1509     0041                     _endereco_M:
  1510     0041                     	ds	1
  1511     0042                     _U_EnderecoRecebido:
  1512     0042                     	ds	1
  1513     0043                     _M_EnderecoRecebido:
  1514     0043                     	ds	1
  1515     0044                     _rett:
  1516     0044                     	ds	1
  1517     0045                     _temp8:
  1518     0045                     	ds	1
  1519     0046                     _BatL:
  1520     0046                     	ds	1
  1521     0047                     _BatH:
  1522     0047                     	ds	1
  1523     0048                     _dips:
  1524     0048                     	ds	1
  1525     0049                     _canal:
  1526     0049                     	ds	1
  1527     004A                     _LL:
  1528     004A                     	ds	1
  1529     004B                     _HH:
  1530     004B                     	ds	1
  1531     004C                     _fEspera:
  1532     004C                     	ds	1
  1533     004D                     _fRepete:
  1534     004D                     	ds	1
  1535     004E                     _fRetSensor:
  1536     004E                     	ds	1
  1537     004F                     _indiceSensor:
  1538     004F                     	ds	1
  1539     0050                     _fComandoSirene:
  1540     0050                     	ds	1
  1541     0051                     _fReplicar:
  1542     0051                     	ds	1
  1543     0052                     _fRTX:
  1544     0052                     	ds	1
  1545     0053                     _fLigado:
  1546     0053                     	ds	1
  1547     0054                     _fErroID:
  1548     0054                     	ds	1
  1549     0055                     _fTimeOut:
  1550     0055                     	ds	1
  1551     0056                     _fDetec:
  1552     0056                     	ds	1
  1553     0057                     _fAT:
  1554     0057                     	ds	1
  1555     0058                     _AcEVTBatLOW:
  1556     0058                     	ds	1
  1557     0059                     _AcEVTBatOK:
  1558     0059                     	ds	1
  1559     005A                     _AcAliveBatLOW:
  1560     005A                     	ds	1
  1561     005B                     _AcAliveBatOK:
  1562     005B                     	ds	1
  1563     005C                     _TIPO:
  1564     005C                     	ds	1
  1565     005D                     _SM_STATUSflags:
  1566     005D                     	ds	1
  1567     005E                     _eusartRxLastError:
  1568     005E                     	ds	1
  1569     005F                     _eusartRxCount:
  1570     005F                     	ds	1
  1571     0060                     _eusartRxTail:
  1572     0060                     	ds	1
  1573     0061                     _eusartTxBufferRemaining:
  1574     0061                     	ds	1
  1575     0062                     _eusartTxTail:
  1576     0062                     	ds	1
  1577     0063                     _eusartTxHead:
  1578     0063                     	ds	1
  1579     0064                     _fProgID:
  1580     0064                     	ds	1
  1581     0065                     _fRetLora:
  1582     0065                     	ds	1
  1583     0066                     _UltimoDadoRecebido:
  1584     0066                     	ds	1
  1585     0067                     _fTxOk:
  1586     0067                     	ds	1
  1587     0068                     _fParm:
  1588     0068                     	ds	1
  1589     0069                     _fBusy:
  1590     0069                     	ds	1
  1591     006A                     _fAtOk:
  1592     006A                     	ds	1
  1593     006B                     _fATerr:
  1594     006B                     	ds	1
  1595     006C                     _fOK:
  1596     006C                     	ds	1
  1597     006D                     _D_EnderecoRecebido:
  1598     006D                     	ds	1
  1599     006E                     _C_EnderecoRecebido:
  1600     006E                     	ds	1
  1601                           
  1602                           	psect	bssBANK1
  1603     00A0                     __pbssBANK1:
  1604     00A0                     _eusartTxBuffer:
  1605     00A0                     	ds	32
  1606     00C0                     _pacoteTRX:
  1607     00C0                     	ds	14
  1608     00CE                     _DadosSensor:
  1609     00CE                     	ds	8
  1610     00D6                     _passagem:
  1611     00D6                     	ds	4
  1612     00DA                     _ID:
  1613     00DA                     	ds	4
  1614     00DE                     _offset:
  1615     00DE                     	ds	2
  1616     00E0                     _contaRTX:
  1617     00E0                     	ds	2
  1618     00E2                     _tMs:
  1619     00E2                     	ds	2
  1620     00E4                     _tempoEspera:
  1621     00E4                     	ds	2
  1622     00E6                     _EUSART_ErrorHandler:
  1623     00E6                     	ds	2
  1624     00E8                     _TotalSerial:
  1625     00E8                     	ds	2
  1626                           
  1627                           	psect	bssBANK2
  1628     0120                     __pbssBANK2:
  1629     0120                     _DadosLora:
  1630     0120                     	ds	64
  1631                           
  1632                           	psect	bssBANK3
  1633     01A0                     __pbssBANK3:
  1634     01A0                     _eusartRxStatusBuffer:
  1635     01A0                     	ds	64
  1636                           
  1637                           	psect	bssBANK4
  1638     0220                     __pbssBANK4:
  1639     0220                     _eusartRxBuffer:
  1640     0220                     	ds	64
  1641                           
  1642                           	psect	clrtext
  1643     0DED                     clear_ram0:	
  1644                           ;	Called with FSR0 containing the base address, and
  1645                           ;	WREG with the size to clear
  1646                           
  1647     0DED  0064               	clrwdt	;clear the watchdog before getting into this loop
  1648     0DEE                     clrloop0:
  1649     0DEE  0180               	clrf	0	;clear RAM location pointed to by FSR
  1650     0DEF  3101               	addfsr 0,1
  1651     0DF0  0B89               	decfsz	9,f	;Have we reached the end of clearing yet?
  1652     0DF1  2DEE               	goto	clrloop0	;have we reached the end yet?
  1653     0DF2  3400               	retlw	0	;all done for this memory range, return
  1654                           
  1655                           	psect	cstackCOMMON
  1656     0070                     __pcstackCOMMON:
  1657     0070                     ?_EUSART_SetRxInterruptHandler:
  1658     0070                     ?_EUSART_Receive_ISR:	
  1659                           ; 1 bytes @ 0x0
  1660                           
  1661     0070                     ?_EUSART_SetTxInterruptHandler:	
  1662                           ; 1 bytes @ 0x0
  1663                           
  1664     0070                     ?_EUSART_Transmit_ISR:	
  1665                           ; 1 bytes @ 0x0
  1666                           
  1667     0070                     ?_EUSART_SetFramingErrorHandler:	
  1668                           ; 1 bytes @ 0x0
  1669                           
  1670     0070                     ?_EUSART_DefaultFramingErrorHandler:	
  1671                           ; 1 bytes @ 0x0
  1672                           
  1673     0070                     ?_EUSART_SetOverrunErrorHandler:	
  1674                           ; 1 bytes @ 0x0
  1675                           
  1676     0070                     ?_EUSART_DefaultOverrunErrorHandler:	
  1677                           ; 1 bytes @ 0x0
  1678                           
  1679     0070                     ?_EUSART_SetErrorHandler:	
  1680                           ; 1 bytes @ 0x0
  1681                           
  1682     0070                     ?_EUSART_DefaultErrorHandler:	
  1683                           ; 1 bytes @ 0x0
  1684                           
  1685     0070                     ?_EUSART_RxDataHandler:	
  1686                           ; 1 bytes @ 0x0
  1687                           
  1688     0070                     ?_OSCILLATOR_Initialize:	
  1689                           ; 1 bytes @ 0x0
  1690                           
  1691     0070                     ?_WDT_Initialize:	
  1692                           ; 1 bytes @ 0x0
  1693                           
  1694     0070                     ?_INTERRUPT_InterruptManager:	
  1695                           ; 1 bytes @ 0x0
  1696                           
  1697     0070                     ?_EUSART_Reset:	
  1698                           ; 1 bytes @ 0x0
  1699                           
  1700     0070                     ?_EUSART_Initialize:	
  1701                           ; 1 bytes @ 0x0
  1702                           
  1703     0070                     ?_EUSART_Write:	
  1704                           ; 1 bytes @ 0x0
  1705                           
  1706     0070                     ?_PIN_MANAGER_Initialize:	
  1707                           ; 1 bytes @ 0x0
  1708                           
  1709     0070                     ?_ModuloOn:	
  1710                           ; 1 bytes @ 0x0
  1711                           
  1712     0070                     ?_ModuloOff:	
  1713                           ; 1 bytes @ 0x0
  1714                           
  1715     0070                     ?_ErrCode:	
  1716                           ; 1 bytes @ 0x0
  1717                           
  1718     0070                     ?_Espera_TxOk:	
  1719                           ; 1 bytes @ 0x0
  1720                           
  1721     0070                     ?_SM_RESET:	
  1722                           ; 1 bytes @ 0x0
  1723                           
  1724     0070                     ?_SM_CONFIGRADIO:	
  1725                           ; 1 bytes @ 0x0
  1726                           
  1727     0070                     ?_SM_MODORX:	
  1728                           ; 1 bytes @ 0x0
  1729                           
  1730     0070                     ?_SM_CFOFF:	
  1731                           ; 1 bytes @ 0x0
  1732                           
  1733     0070                     ?_SM_START:	
  1734                           ; 1 bytes @ 0x0
  1735                           
  1736     0070                     ?_TX_Lora:	
  1737                           ; 1 bytes @ 0x0
  1738                           
  1739     0070                     ?_TesteEnvio:	
  1740                           ; 1 bytes @ 0x0
  1741                           
  1742     0070                     ?_main:	
  1743                           ; 1 bytes @ 0x0
  1744                           
  1745     0070                     ?___wmul:	
  1746                           ; 1 bytes @ 0x0
  1747                           
  1748     0070                     ?___lwdiv:	
  1749                           ; 2 bytes @ 0x0
  1750                           
  1751     0070                     ?___lwmod:	
  1752                           ; 2 bytes @ 0x0
  1753                           
  1754     0070                     EUSART_Write@txData:	
  1755                           ; 2 bytes @ 0x0
  1756                           
  1757     0070                     SM_CONFIGRADIO@ch:	
  1758                           ; 1 bytes @ 0x0
  1759                           
  1760     0070                     SM_MODORX@ch:	
  1761                           ; 1 bytes @ 0x0
  1762                           
  1763     0070                     EUSART_SetFramingErrorHandler@interruptHandler:	
  1764                           ; 1 bytes @ 0x0
  1765                           
  1766     0070                     EUSART_SetOverrunErrorHandler@interruptHandler:	
  1767                           ; 2 bytes @ 0x0
  1768                           
  1769     0070                     EUSART_SetErrorHandler@interruptHandler:	
  1770                           ; 2 bytes @ 0x0
  1771                           
  1772     0070                     EUSART_SetTxInterruptHandler@interruptHandler:	
  1773                           ; 2 bytes @ 0x0
  1774                           
  1775     0070                     EUSART_SetRxInterruptHandler@interruptHandler:	
  1776                           ; 2 bytes @ 0x0
  1777                           
  1778     0070                     ___wmul@multiplier:	
  1779                           ; 2 bytes @ 0x0
  1780                           
  1781     0070                     ___lwdiv@divisor:	
  1782                           ; 2 bytes @ 0x0
  1783                           
  1784     0070                     ___lwmod@divisor:	
  1785                           ; 2 bytes @ 0x0
  1786                           
  1787     0070                     ??_EUSART_Receive_ISR:	
  1788                           ; 2 bytes @ 0x0
  1789                           
  1790     0070                     ??_EUSART_Transmit_ISR:	
  1791                           ; 1 bytes @ 0x0
  1792                           
  1793     0070                     ??_EUSART_DefaultFramingErrorHandler:	
  1794                           ; 1 bytes @ 0x0
  1795                           
  1796     0070                     ??_EUSART_DefaultOverrunErrorHandler:	
  1797                           ; 1 bytes @ 0x0
  1798                           
  1799     0070                     ??_EUSART_DefaultErrorHandler:	
  1800                           ; 1 bytes @ 0x0
  1801                           
  1802     0070                     ??_EUSART_RxDataHandler:	
  1803                           ; 1 bytes @ 0x0
  1804                           
  1805     0070                     ??_OSCILLATOR_Initialize:	
  1806                           ; 1 bytes @ 0x0
  1807                           
  1808     0070                     ??_WDT_Initialize:	
  1809                           ; 1 bytes @ 0x0
  1810                           
  1811     0070                     ??_INTERRUPT_InterruptManager:	
  1812                           ; 1 bytes @ 0x0
  1813                           
  1814     0070                     ??_EUSART_Reset:	
  1815                           ; 1 bytes @ 0x0
  1816                           
  1817     0070                     ??_EUSART_Write:	
  1818                           ; 1 bytes @ 0x0
  1819                           
  1820     0070                     ??_PIN_MANAGER_Initialize:	
  1821                           ; 1 bytes @ 0x0
  1822                           
  1823     0070                     ??_ModuloOn:	
  1824                           ; 1 bytes @ 0x0
  1825                           
  1826     0070                     ??_ModuloOff:	
  1827                           ; 1 bytes @ 0x0
  1828                           
  1829     0070                     ??_Espera_TxOk:	
  1830                           ; 1 bytes @ 0x0
  1831                           
  1832                           
  1833                           ; 1 bytes @ 0x0
  1834     0070                     	ds	1
  1835     0071                     ??_ErrCode:
  1836     0071                     ??_SM_RESET:	
  1837                           ; 1 bytes @ 0x1
  1838                           
  1839     0071                     ??_SM_CONFIGRADIO:	
  1840                           ; 1 bytes @ 0x1
  1841                           
  1842     0071                     ??_SM_MODORX:	
  1843                           ; 1 bytes @ 0x1
  1844                           
  1845     0071                     ??_SM_CFOFF:	
  1846                           ; 1 bytes @ 0x1
  1847                           
  1848                           
  1849                           ; 1 bytes @ 0x1
  1850     0071                     	ds	1
  1851     0072                     ___wmul@multiplicand:
  1852     0072                     ___lwdiv@dividend:	
  1853                           ; 2 bytes @ 0x2
  1854                           
  1855     0072                     ___lwmod@dividend:	
  1856                           ; 2 bytes @ 0x2
  1857                           
  1858     0072                     ??_EUSART_SetRxInterruptHandler:	
  1859                           ; 2 bytes @ 0x2
  1860                           
  1861     0072                     ??_EUSART_SetTxInterruptHandler:	
  1862                           ; 1 bytes @ 0x2
  1863                           
  1864     0072                     ??_EUSART_SetFramingErrorHandler:	
  1865                           ; 1 bytes @ 0x2
  1866                           
  1867     0072                     ??_EUSART_SetOverrunErrorHandler:	
  1868                           ; 1 bytes @ 0x2
  1869                           
  1870     0072                     ??_EUSART_SetErrorHandler:	
  1871                           ; 1 bytes @ 0x2
  1872                           
  1873     0072                     ??_EUSART_Initialize:	
  1874                           ; 1 bytes @ 0x2
  1875                           
  1876                           
  1877                           ; 1 bytes @ 0x2
  1878     0072                     	ds	1
  1879     0073                     ErrCode@code:
  1880     0073                     ??_SM_START:	
  1881                           ; 1 bytes @ 0x3
  1882                           
  1883     0073                     ??_TX_Lora:	
  1884                           ; 1 bytes @ 0x3
  1885                           
  1886                           
  1887                           ; 1 bytes @ 0x3
  1888     0073                     	ds	1
  1889     0074                     ___lwmod@counter:
  1890     0074                     ___wmul@product:	
  1891                           ; 1 bytes @ 0x4
  1892                           
  1893     0074                     ___lwdiv@quotient:	
  1894                           ; 2 bytes @ 0x4
  1895                           
  1896     0074                     ??___wmul:	
  1897                           ; 2 bytes @ 0x4
  1898                           
  1899     0074                     ??___lwdiv:	
  1900                           ; 1 bytes @ 0x4
  1901                           
  1902     0074                     ??___lwmod:	
  1903                           ; 1 bytes @ 0x4
  1904                           
  1905                           
  1906                           ; 1 bytes @ 0x4
  1907     0074                     	ds	2
  1908     0076                     ___lwdiv@counter:
  1909                           
  1910                           ; 1 bytes @ 0x6
  1911     0076                     	ds	1
  1912     0077                     ??_TesteEnvio:
  1913                           
  1914                           ; 1 bytes @ 0x7
  1915     0077                     	ds	2
  1916     0079                     ??_main:
  1917                           
  1918                           ; 1 bytes @ 0x9
  1919     0079                     	ds	2
  1920                           
  1921                           	psect	maintext
  1922     005D                     __pmaintext:	
  1923 ;;
  1924 ;;Main: autosize = 0, tempsize = 2, incstack = 0, save=0
  1925 ;;
  1926 ;; *************** function _main *****************
  1927 ;; Defined at:
  1928 ;;		line 313 in file "main.c"
  1929 ;; Parameters:    Size  Location     Type
  1930 ;;		None
  1931 ;; Auto vars:     Size  Location     Type
  1932 ;;		None
  1933 ;; Return value:  Size  Location     Type
  1934 ;;                  1    wreg      void 
  1935 ;; Registers used:
  1936 ;;		wreg, fsr0l, fsr0h, fsr1l, fsr1h, status,2, status,0, pclath, cstack
  1937 ;; Tracked objects:
  1938 ;;		On entry : B1F/0
  1939 ;;		On exit  : 0/0
  1940 ;;		Unchanged: 0/0
  1941 ;; Data sizes:     COMMON   BANK0   BANK1   BANK2   BANK3   BANK4   BANK5   BANK6   BANK7   BANK8   BANK9  BANK10  BANK1
      +1  BANK12
  1942 ;;      Params:         0       0       0       0       0       0       0       0       0       0       0       0       
      +0       0
  1943 ;;      Locals:         0       0       0       0       0       0       0       0       0       0       0       0       
      +0       0
  1944 ;;      Temps:          2       0       0       0       0       0       0       0       0       0       0       0       
      +0       0
  1945 ;;      Totals:         2       0       0       0       0       0       0       0       0       0       0       0       
      +0       0
  1946 ;;Total ram usage:        2 bytes
  1947 ;; Hardware stack levels required when called: 7
  1948 ;; This function calls:
  1949 ;;		_EUSART_Initialize
  1950 ;;		_ErrCode
  1951 ;;		_ModuloOff
  1952 ;;		_OSCILLATOR_Initialize
  1953 ;;		_PIN_MANAGER_Initialize
  1954 ;;		_SM_CFOFF
  1955 ;;		_SM_CONFIGRADIO
  1956 ;;		_SM_MODORX
  1957 ;;		_SM_START
  1958 ;;		_TX_Lora
  1959 ;;		_TesteEnvio
  1960 ;;		_WDT_Initialize
  1961 ;;		___lwdiv
  1962 ;;		___lwmod
  1963 ;;		___wmul
  1964 ;; This function is called by:
  1965 ;;		Startup code after reset
  1966 ;; This function uses a non-reentrant model
  1967 ;;
  1968                           
  1969     005D                     _main:	
  1970                           ;psect for function _main
  1971                           
  1972     005D                     l3023:	
  1973                           ;incstack = 0
  1974                           ; Regs used in _main: [wreg-fsr1h+status,2+status,0+pclath+cstack]
  1975                           
  1976                           
  1977                           ;main.c: 315:     __nop();
  1978     005D  0000               	nop
  1979                           
  1980                           ;main.c: 316:     __nop();
  1981     005E  0000               	nop
  1982     005F                     l3025:
  1983                           
  1984                           ;main.c: 319:     PIN_MANAGER_Initialize();
  1985     005F  318E  260D  3180   	fcall	_PIN_MANAGER_Initialize
  1986     0062                     l3027:
  1987     0062  0021               	movlb	1	; select bank1
  1988     0063  108D               	bcf	13,1	;volatile
  1989     0064                     l3029:
  1990     0064  0022               	movlb	2	; select bank2
  1991     0065  108D               	bcf	13,1	;volatile
  1992     0066                     l603:
  1993                           
  1994                           ;main.c: 322:     OSCILLATOR_Initialize();
  1995     0066  318D  25F3  3180   	fcall	_OSCILLATOR_Initialize
  1996                           
  1997                           ;main.c: 323:     WDT_Initialize();
  1998     0069  318D  25CB  3180   	fcall	_WDT_Initialize
  1999     006C                     l3031:
  2000                           
  2001                           ;main.c: 324:     WDTCONbits.SWDTEN=0;
  2002     006C  0021               	movlb	1	; select bank1
  2003     006D  1017               	bcf	23,0	;volatile
  2004     006E                     l3033:
  2005     006E  0022               	movlb	2	; select bank2
  2006     006F  100C               	bcf	12,0	;volatile
  2007     0070                     l3035:
  2008                           
  2009                           ;main.c: 326:     ModuloOff();
  2010     0070  318D  25FA  3180   	fcall	_ModuloOff
  2011     0073                     l3037:
  2012     0073  0022               	movlb	2	; select bank2
  2013     0074  170C               	bsf	12,6	;volatile
  2014     0075                     l3039:
  2015     0075  178C               	bsf	12,7	;volatile
  2016     0076                     l3041:
  2017                           
  2018                           ;main.c: 331:     indice=0;
  2019     0076  01FD               	clrf	_indice	;volatile
  2020     0077                     l3043:
  2021                           
  2022                           ;main.c: 332:     fRetSensor=250;
  2023     0077  30FA               	movlw	250
  2024     0078  0020               	movlb	0	; select bank0
  2025     0079  00CE               	movwf	_fRetSensor	;volatile
  2026     007A                     l3045:
  2027                           
  2028                           ;main.c: 333:     segsAlive=0;
  2029     007A  0021               	movlb	1	; select bank1
  2030     007B  01EA               	clrf	_segsAlive^(0+128)
  2031     007C  01EB               	clrf	(_segsAlive+1)^(0+128)
  2032     007D                     l3047:
  2033                           
  2034                           ;main.c: 335:     EUSART_Initialize();
  2035     007D  3187  2762  3180   	fcall	_EUSART_Initialize
  2036     0080                     l3049:
  2037                           
  2038                           ;main.c: 336:     (INTCONbits.GIE = 1);
  2039     0080  178B               	bsf	11,7	;volatile
  2040     0081                     l3051:
  2041                           
  2042                           ;main.c: 337:     (INTCONbits.PEIE = 1);
  2043     0081  170B               	bsf	11,6	;volatile
  2044     0082                     l3053:
  2045                           
  2046                           ;main.c: 340:     __nop();
  2047     0082  0000               	nop
  2048     0083                     l3055:
  2049                           
  2050                           ;main.c: 341:     rett = SM_START();
  2051     0083  3187  271F  3180   	fcall	_SM_START
  2052     0086  0020               	movlb	0	; select bank0
  2053     0087  00C4               	movwf	_rett
  2054     0088                     l3057:
  2055                           
  2056                           ;main.c: 342:     if (rett != fSM_OK)
  2057     0088  0344               	decf	_rett,w
  2058     0089  1903               	btfsc	3,2
  2059     008A  288C               	goto	u1791
  2060     008B  288D               	goto	u1790
  2061     008C                     u1791:
  2062     008C  2891               	goto	l3061
  2063     008D                     u1790:
  2064     008D                     l3059:
  2065                           
  2066                           ;main.c: 343:         ErrCode(rett);
  2067     008D  0844               	movf	_rett,w
  2068     008E  3186  26A4  3180   	fcall	_ErrCode
  2069     0091                     l3061:
  2070                           
  2071                           ;main.c: 344:     __nop();
  2072     0091  0000               	nop
  2073     0092                     l3063:
  2074                           
  2075                           ;main.c: 347:     SM_CFOFF();
  2076     0092  318E  26DB  3180   	fcall	_SM_CFOFF
  2077     0095                     l3065:
  2078                           
  2079                           ;main.c: 348:     SM_CONFIGRADIO(22);
  2080     0095  3016               	movlw	22
  2081     0096  318F  2706  3180   	fcall	_SM_CONFIGRADIO
  2082     0099                     l3067:
  2083                           
  2084                           ;main.c: 349:     SM_MODORX(22);
  2085     0099  3016               	movlw	22
  2086     009A  318F  2731  3180   	fcall	_SM_MODORX
  2087     009D                     l3069:
  2088                           
  2089                           ;main.c: 350:     SM_CFOFF();
  2090     009D  318E  26DB  3180   	fcall	_SM_CFOFF
  2091     00A0                     l3071:
  2092                           
  2093                           ;main.c: 351:     SM_CONFIGRADIO(22);
  2094     00A0  3016               	movlw	22
  2095     00A1  318F  2706  3180   	fcall	_SM_CONFIGRADIO
  2096     00A4                     l3073:
  2097                           
  2098                           ;main.c: 352:     SM_MODORX(22);
  2099     00A4  3016               	movlw	22
  2100     00A5  318F  2731  3180   	fcall	_SM_MODORX
  2101     00A8                     l3075:
  2102                           
  2103                           ;main.c: 353:     __nop();
  2104     00A8  0000               	nop
  2105     00A9                     l3077:
  2106     00A9  0022               	movlb	2	; select bank2
  2107     00AA  170C               	bsf	12,6	;volatile
  2108     00AB                     l3079:
  2109     00AB  178C               	bsf	12,7	;volatile
  2110     00AC                     l3081:
  2111     00AC  300B               	movlw	11
  2112     00AD  00FA               	movwf	??_main+1
  2113     00AE  3026               	movlw	38
  2114     00AF  00F9               	movwf	??_main
  2115     00B0  305E               	movlw	94
  2116     00B1                     u2117:
  2117     00B1  0B89               	decfsz	9,f
  2118     00B2  28B1               	goto	u2117
  2119     00B3  0BF9               	decfsz	??_main,f
  2120     00B4  28B1               	goto	u2117
  2121     00B5  0BFA               	decfsz	??_main+1,f
  2122     00B6  28B1               	goto	u2117
  2123     00B7                     l3083:
  2124     00B7  0022               	movlb	2	; select bank2
  2125     00B8  130C               	bcf	12,6	;volatile
  2126     00B9                     l3085:
  2127     00B9  138C               	bcf	12,7	;volatile
  2128     00BA                     l3087:
  2129     00BA  300B               	movlw	11
  2130     00BB  00FA               	movwf	??_main+1
  2131     00BC  3026               	movlw	38
  2132     00BD  00F9               	movwf	??_main
  2133     00BE  305E               	movlw	94
  2134     00BF                     u2127:
  2135     00BF  0B89               	decfsz	9,f
  2136     00C0  28BF               	goto	u2127
  2137     00C1  0BF9               	decfsz	??_main,f
  2138     00C2  28BF               	goto	u2127
  2139     00C3  0BFA               	decfsz	??_main+1,f
  2140     00C4  28BF               	goto	u2127
  2141     00C5                     l3089:
  2142     00C5  0022               	movlb	2	; select bank2
  2143     00C6  170C               	bsf	12,6	;volatile
  2144     00C7                     l3091:
  2145     00C7  178C               	bsf	12,7	;volatile
  2146     00C8                     l3093:
  2147     00C8  300B               	movlw	11
  2148     00C9  00FA               	movwf	??_main+1
  2149     00CA  3026               	movlw	38
  2150     00CB  00F9               	movwf	??_main
  2151     00CC  305E               	movlw	94
  2152     00CD                     u2137:
  2153     00CD  0B89               	decfsz	9,f
  2154     00CE  28CD               	goto	u2137
  2155     00CF  0BF9               	decfsz	??_main,f
  2156     00D0  28CD               	goto	u2137
  2157     00D1  0BFA               	decfsz	??_main+1,f
  2158     00D2  28CD               	goto	u2137
  2159     00D3                     l3095:
  2160     00D3  0022               	movlb	2	; select bank2
  2161     00D4  130C               	bcf	12,6	;volatile
  2162     00D5                     l3097:
  2163     00D5  138C               	bcf	12,7	;volatile
  2164     00D6                     l3099:
  2165     00D6  300B               	movlw	11
  2166     00D7  00FA               	movwf	??_main+1
  2167     00D8  3026               	movlw	38
  2168     00D9  00F9               	movwf	??_main
  2169     00DA  305E               	movlw	94
  2170     00DB                     u2147:
  2171     00DB  0B89               	decfsz	9,f
  2172     00DC  28DB               	goto	u2147
  2173     00DD  0BF9               	decfsz	??_main,f
  2174     00DE  28DB               	goto	u2147
  2175     00DF  0BFA               	decfsz	??_main+1,f
  2176     00E0  28DB               	goto	u2147
  2177     00E1                     l3101:
  2178     00E1  0022               	movlb	2	; select bank2
  2179     00E2  170C               	bsf	12,6	;volatile
  2180     00E3                     l3103:
  2181     00E3  178C               	bsf	12,7	;volatile
  2182     00E4                     l3105:
  2183     00E4  300B               	movlw	11
  2184     00E5  00FA               	movwf	??_main+1
  2185     00E6  3026               	movlw	38
  2186     00E7  00F9               	movwf	??_main
  2187     00E8  305E               	movlw	94
  2188     00E9                     u2157:
  2189     00E9  0B89               	decfsz	9,f
  2190     00EA  28E9               	goto	u2157
  2191     00EB  0BF9               	decfsz	??_main,f
  2192     00EC  28E9               	goto	u2157
  2193     00ED  0BFA               	decfsz	??_main+1,f
  2194     00EE  28E9               	goto	u2157
  2195     00EF                     l3107:
  2196     00EF  0022               	movlb	2	; select bank2
  2197     00F0  130C               	bcf	12,6	;volatile
  2198     00F1                     l3109:
  2199     00F1  138C               	bcf	12,7	;volatile
  2200     00F2                     l3111:
  2201     00F2  300B               	movlw	11
  2202     00F3  00FA               	movwf	??_main+1
  2203     00F4  3026               	movlw	38
  2204     00F5  00F9               	movwf	??_main
  2205     00F6  305E               	movlw	94
  2206     00F7                     u2167:
  2207     00F7  0B89               	decfsz	9,f
  2208     00F8  28F7               	goto	u2167
  2209     00F9  0BF9               	decfsz	??_main,f
  2210     00FA  28F7               	goto	u2167
  2211     00FB  0BFA               	decfsz	??_main+1,f
  2212     00FC  28F7               	goto	u2167
  2213     00FD                     l3113:
  2214                           
  2215                           ;main.c: 359:     fLigado=0;
  2216     00FD  0020               	movlb	0	; select bank0
  2217     00FE  01D3               	clrf	_fLigado	;volatile
  2218     00FF                     l3115:
  2219                           
  2220                           ;main.c: 360:     indice=0;
  2221     00FF  01FD               	clrf	_indice	;volatile
  2222     0100                     l3117:
  2223                           
  2224                           ;main.c: 361:     tempoRTX=0;
  2225     0100  01AC               	clrf	_tempoRTX
  2226     0101  01AD               	clrf	_tempoRTX+1
  2227     0102                     l3119:
  2228                           
  2229                           ;main.c: 362:     passagem=0;
  2230     0102  3000               	movlw	0
  2231     0103  0021               	movlb	1	; select bank1
  2232     0104  00D9               	movwf	(_passagem+3)^(0+128)
  2233     0105  3000               	movlw	0
  2234     0106  00D8               	movwf	(_passagem+2)^(0+128)
  2235     0107  3000               	movlw	0
  2236     0108  00D7               	movwf	(_passagem+1)^(0+128)
  2237     0109  3000               	movlw	0
  2238     010A  00D6               	movwf	_passagem^(0+128)
  2239     010B                     l3121:
  2240                           
  2241                           ;main.c: 363:     contaRTX=0;
  2242     010B  01E0               	clrf	_contaRTX^(0+128)
  2243     010C  01E1               	clrf	(_contaRTX+1)^(0+128)
  2244     010D                     l3123:
  2245                           
  2246                           ;main.c: 364:     cicloLED=50000;
  2247     010D  3050               	movlw	80
  2248     010E  0020               	movlb	0	; select bank0
  2249     010F  00AE               	movwf	_cicloLED
  2250     0110  30C3               	movlw	195
  2251     0111  00AF               	movwf	_cicloLED+1
  2252     0112                     l3125:
  2253                           
  2254                           ;main.c: 365:     __nop();
  2255     0112  0000               	nop
  2256     0113                     l3127:
  2257                           
  2258                           ;main.c: 368:     {;main.c: 369:         __nop();
  2259     0113  0000               	nop
  2260     0114                     l3129:
  2261                           
  2262                           ;main.c: 370:         if (PORTBbits.RB0==0)
  2263     0114  0020               	movlb	0	; select bank0
  2264     0115  180D               	btfsc	13,0	;volatile
  2265     0116  2918               	goto	u1801
  2266     0117  2919               	goto	u1800
  2267     0118                     u1801:
  2268     0118  291C               	goto	l3133
  2269     0119                     u1800:
  2270     0119                     l3131:
  2271                           
  2272                           ;main.c: 371:         {;main.c: 372:             TesteEnvio();
  2273     0119  3184  2428  3180   	fcall	_TesteEnvio
  2274     011C                     l3133:
  2275                           
  2276                           ;main.c: 376:         _delay((unsigned long)((1)*(16000000/4000.0)));
  2277     011C  3006               	movlw	6
  2278     011D  00F9               	movwf	??_main
  2279     011E  3030               	movlw	48
  2280     011F                     u2177:
  2281     011F  0B89               	decfsz	9,f
  2282     0120  291F               	goto	u2177
  2283     0121  0BF9               	decfsz	??_main,f
  2284     0122  291F               	goto	u2177
  2285     0123  3200               	nop2
  2286     0124                     l3135:
  2287                           
  2288                           ;main.c: 379:         if (fRTX==0) cicloLED++;
  2289     0124  0020               	movlb	0	; select bank0
  2290     0125  0852               	movf	_fRTX,w	;volatile
  2291     0126  1D03               	btfss	3,2
  2292     0127  2929               	goto	u1811
  2293     0128  292A               	goto	u1810
  2294     0129                     u1811:
  2295     0129  292E               	goto	l3139
  2296     012A                     u1810:
  2297     012A                     l3137:
  2298     012A  3001               	movlw	1
  2299     012B  07AE               	addwf	_cicloLED,f
  2300     012C  3000               	movlw	0
  2301     012D  3DAF               	addwfc	_cicloLED+1,f
  2302     012E                     l3139:
  2303                           
  2304                           ;main.c: 380:         if (cicloLED==200)
  2305     012E  30C8               	movlw	200
  2306     012F  062E               	xorwf	_cicloLED,w
  2307     0130  042F               	iorwf	_cicloLED+1,w
  2308     0131  1D03               	btfss	3,2
  2309     0132  2934               	goto	u1821
  2310     0133  2935               	goto	u1820
  2311     0134                     u1821:
  2312     0134  2938               	goto	l638
  2313     0135                     u1820:
  2314     0135                     l639:	
  2315                           ;main.c: 381:         {;main.c: 382:             do { LATAbits.LATA6 = 0; } while(0);
  2316                           
  2317     0135  0022               	movlb	2	; select bank2
  2318     0136  130C               	bcf	12,6	;volatile
  2319     0137  2957               	goto	l3149
  2320     0138                     l638:	
  2321                           ;main.c: 384:         else
  2322                           
  2323                           
  2324                           ;main.c: 385:         {;main.c: 386:             if (PORTAbits.RA2==0)
  2325     0138  190C               	btfsc	12,2	;volatile
  2326     0139  293B               	goto	u1831
  2327     013A  293C               	goto	u1830
  2328     013B                     u1831:
  2329     013B  294B               	goto	l3145
  2330     013C                     u1830:
  2331     013C                     l3141:
  2332                           
  2333                           ;main.c: 387:             {;main.c: 388:                 if (cicloLED>5000)
  2334     013C  3013               	movlw	19
  2335     013D  022F               	subwf	_cicloLED+1,w
  2336     013E  3089               	movlw	137
  2337     013F  1903               	skipnz
  2338     0140  022E               	subwf	_cicloLED,w
  2339     0141  1C03               	skipc
  2340     0142  2944               	goto	u1841
  2341     0143  2945               	goto	u1840
  2342     0144                     u1841:
  2343     0144  2957               	goto	l3149
  2344     0145                     u1840:
  2345     0145                     l644:	
  2346                           ;main.c: 389:                 {;main.c: 390:                     do { LATAbits.LATA6 = 1
      +                          ; } while(0);
  2347                           
  2348     0145  0022               	movlb	2	; select bank2
  2349     0146  170C               	bsf	12,6	;volatile
  2350     0147                     l3143:
  2351                           
  2352                           ;main.c: 391:                     cicloLED=0;
  2353     0147  0020               	movlb	0	; select bank0
  2354     0148  01AE               	clrf	_cicloLED
  2355     0149  01AF               	clrf	_cicloLED+1
  2356     014A  2957               	goto	l3149
  2357     014B                     l3145:
  2358                           
  2359                           ;main.c: 395:             {;main.c: 396:                 if (cicloLED>1000)
  2360     014B  3003               	movlw	3
  2361     014C  022F               	subwf	_cicloLED+1,w
  2362     014D  30E9               	movlw	233
  2363     014E  1903               	skipnz
  2364     014F  022E               	subwf	_cicloLED,w
  2365     0150  1C03               	skipc
  2366     0151  2953               	goto	u1851
  2367     0152  2954               	goto	u1850
  2368     0153                     u1851:
  2369     0153  2957               	goto	l3149
  2370     0154                     u1850:
  2371     0154                     l648:	
  2372                           ;main.c: 397:                 {;main.c: 398:                     do { LATAbits.LATA6 = 1
      +                          ; } while(0);
  2373                           
  2374     0154  0022               	movlb	2	; select bank2
  2375     0155  170C               	bsf	12,6	;volatile
  2376     0156  2947               	goto	l3143
  2377     0157                     l3149:
  2378                           
  2379                           ;main.c: 405:         if (fLigado)
  2380     0157  0020               	movlb	0	; select bank0
  2381     0158  0853               	movf	_fLigado,w	;volatile
  2382     0159  1903               	btfsc	3,2
  2383     015A  295C               	goto	u1861
  2384     015B  295D               	goto	u1860
  2385     015C                     u1861:
  2386     015C  297F               	goto	l655
  2387     015D                     u1860:
  2388     015D                     l651:	
  2389                           ;main.c: 406:         {;main.c: 408:             do { LATAbits.LATA7 = 1; } while(0);
  2390                           
  2391     015D  0022               	movlb	2	; select bank2
  2392     015E  178C               	bsf	12,7	;volatile
  2393     015F                     l3151:
  2394                           
  2395                           ;main.c: 410:             passagem++;
  2396     015F  3001               	movlw	1
  2397     0160  0021               	movlb	1	; select bank1
  2398     0161  07D6               	addwf	_passagem^(0+128),f
  2399     0162  3000               	movlw	0
  2400     0163  3DD7               	addwfc	(_passagem+1)^(0+128),f
  2401     0164  3DD8               	addwfc	(_passagem+2)^(0+128),f
  2402     0165  3DD9               	addwfc	(_passagem+3)^(0+128),f
  2403                           
  2404                           ;main.c: 411:             if (passagem>(20*60000))
  2405     0166  0859               	movf	(_passagem+3)^(0+128),w
  2406     0167  1D03               	btfss	3,2
  2407     0168  2973               	goto	u1870
  2408     0169  3081               	movlw	129
  2409     016A  0256               	subwf	_passagem^(0+128),w
  2410     016B  304F               	movlw	79
  2411     016C  3B57               	subwfb	(_passagem+1)^(0+128),w
  2412     016D  3012               	movlw	18
  2413     016E  3B58               	subwfb	(_passagem+2)^(0+128),w
  2414     016F  1C03               	btfss	3,0
  2415     0170  2972               	goto	u1871
  2416     0171  2973               	goto	u1870
  2417     0172                     u1871:
  2418     0172  2981               	goto	l3157
  2419     0173                     u1870:
  2420     0173                     l3153:
  2421                           
  2422                           ;main.c: 412:             {;main.c: 413:                 passagem=(20*60000);
  2423     0173  3000               	movlw	0
  2424     0174  0021               	movlb	1	; select bank1
  2425     0175  00D9               	movwf	(_passagem+3)^(0+128)
  2426     0176  3012               	movlw	18
  2427     0177  00D8               	movwf	(_passagem+2)^(0+128)
  2428     0178  304F               	movlw	79
  2429     0179  00D7               	movwf	(_passagem+1)^(0+128)
  2430     017A  3080               	movlw	128
  2431     017B  00D6               	movwf	_passagem^(0+128)
  2432     017C                     l3155:
  2433                           
  2434                           ;main.c: 414:                 __nop();
  2435     017C  0000               	nop
  2436     017D  0001               	reset	;# 
  2437     017E  2981               	goto	l3157
  2438     017F                     l655:	
  2439                           ;main.c: 420:             do { LATAbits.LATA7 = 0; } while(0);
  2440                           
  2441     017F  0022               	movlb	2	; select bank2
  2442     0180  138C               	bcf	12,7	;volatile
  2443     0181                     l3157:
  2444                           
  2445                           ;main.c: 424:         if (fRTX==1)
  2446     0181  0020               	movlb	0	; select bank0
  2447     0182  0352               	decf	_fRTX,w	;volatile
  2448     0183  1D03               	btfss	3,2
  2449     0184  2986               	goto	u1881
  2450     0185  2987               	goto	u1880
  2451     0186                     u1881:
  2452     0186  29C8               	goto	l3191
  2453     0187                     u1880:
  2454     0187                     l3159:
  2455                           
  2456                           ;main.c: 425:         {;main.c: 426:             if (tempoRTX < 65000)
  2457     0187  30FD               	movlw	253
  2458     0188  022D               	subwf	_tempoRTX+1,w
  2459     0189  30E8               	movlw	232
  2460     018A  1903               	skipnz
  2461     018B  022C               	subwf	_tempoRTX,w
  2462     018C  1803               	skipnc
  2463     018D  298F               	goto	u1891
  2464     018E  2990               	goto	u1890
  2465     018F                     u1891:
  2466     018F  2994               	goto	l658
  2467     0190                     u1890:
  2468     0190                     l3161:
  2469                           
  2470                           ;main.c: 427:                 tempoRTX++;
  2471     0190  3001               	movlw	1
  2472     0191  07AC               	addwf	_tempoRTX,f
  2473     0192  3000               	movlw	0
  2474     0193  3DAD               	addwfc	_tempoRTX+1,f
  2475     0194                     l658:
  2476                           
  2477                           ;main.c: 428:             if (tempoRTX >= TempoDeReplicacao)
  2478     0194  0831               	movf	_TempoDeReplicacao+1,w
  2479     0195  022D               	subwf	_tempoRTX+1,w
  2480     0196  1D03               	skipz
  2481     0197  299A               	goto	u1905
  2482     0198  0830               	movf	_TempoDeReplicacao,w
  2483     0199  022C               	subwf	_tempoRTX,w
  2484     019A                     u1905:
  2485     019A  1C03               	skipc
  2486     019B  299D               	goto	u1901
  2487     019C  299E               	goto	u1900
  2488     019D                     u1901:
  2489     019D  29C8               	goto	l3191
  2490     019E                     u1900:
  2491     019E                     l3163:
  2492                           
  2493                           ;main.c: 429:             {;main.c: 430:                 fRTX=0;
  2494     019E  01D2               	clrf	_fRTX	;volatile
  2495     019F                     l3165:
  2496     019F  0022               	movlb	2	; select bank2
  2497     01A0  130C               	bcf	12,6	;volatile
  2498     01A1                     l3167:
  2499                           
  2500                           ;main.c: 432:                 TX_Lora();
  2501     01A1  3186  2626  3180   	fcall	_TX_Lora
  2502     01A4                     l3169:
  2503                           
  2504                           ;main.c: 433:                 __nop();
  2505     01A4  0000               	nop
  2506     01A5                     l3171:
  2507                           
  2508                           ;main.c: 435:                 SM_CFOFF();
  2509     01A5  318E  26DB  3180   	fcall	_SM_CFOFF
  2510     01A8                     l3173:
  2511                           
  2512                           ;main.c: 436:                 __nop();
  2513     01A8  0000               	nop
  2514     01A9                     l3175:
  2515                           
  2516                           ;main.c: 437:                 SM_CFOFF();
  2517     01A9  318E  26DB  3180   	fcall	_SM_CFOFF
  2518     01AC                     l3177:
  2519                           
  2520                           ;main.c: 438:                 SM_CONFIGRADIO(22);
  2521     01AC  3016               	movlw	22
  2522     01AD  318F  2706  3180   	fcall	_SM_CONFIGRADIO
  2523     01B0                     l3179:
  2524                           
  2525                           ;main.c: 439:                 SM_MODORX(22);
  2526     01B0  3016               	movlw	22
  2527     01B1  318F  2731  3180   	fcall	_SM_MODORX
  2528     01B4                     l3181:
  2529                           
  2530                           ;main.c: 440:                 SM_CFOFF();
  2531     01B4  318E  26DB  3180   	fcall	_SM_CFOFF
  2532     01B7                     l3183:
  2533                           
  2534                           ;main.c: 441:                 SM_CONFIGRADIO(22);
  2535     01B7  3016               	movlw	22
  2536     01B8  318F  2706  3180   	fcall	_SM_CONFIGRADIO
  2537     01BB                     l3185:
  2538                           
  2539                           ;main.c: 442:                 SM_MODORX(22);
  2540     01BB  3016               	movlw	22
  2541     01BC  318F  2731  3180   	fcall	_SM_MODORX
  2542     01BF                     l3187:
  2543                           
  2544                           ;main.c: 443:                 __nop();
  2545     01BF  0000               	nop
  2546                           
  2547                           ;main.c: 444:                 indice=0;
  2548     01C0  01FD               	clrf	_indice	;volatile
  2549                           
  2550                           ;main.c: 445:                 tempoRTX=0;
  2551     01C1  0020               	movlb	0	; select bank0
  2552     01C2  01AC               	clrf	_tempoRTX
  2553     01C3  01AD               	clrf	_tempoRTX+1
  2554     01C4                     l3189:
  2555                           
  2556                           ;main.c: 446:                 cicloLED=13000;
  2557     01C4  30C8               	movlw	200
  2558     01C5  00AE               	movwf	_cicloLED
  2559     01C6  3032               	movlw	50
  2560     01C7  00AF               	movwf	_cicloLED+1
  2561     01C8                     l3191:
  2562                           
  2563                           ;main.c: 451:         if (fRetLora==99)
  2564     01C8  3063               	movlw	99
  2565     01C9  0665               	xorwf	_fRetLora,w	;volatile
  2566     01CA  1D03               	btfss	3,2
  2567     01CB  29CD               	goto	u1911
  2568     01CC  29CE               	goto	u1910
  2569     01CD                     u1911:
  2570     01CD  29D1               	goto	l3197
  2571     01CE                     u1910:
  2572     01CE                     l3193:
  2573                           
  2574                           ;main.c: 452:         {;main.c: 453:             __nop();
  2575     01CE  0000               	nop
  2576     01CF                     l3195:
  2577                           
  2578                           ;main.c: 454:             fRetLora=0;
  2579     01CF  0020               	movlb	0	; select bank0
  2580     01D0  01E5               	clrf	_fRetLora	;volatile
  2581     01D1                     l3197:
  2582                           
  2583                           ;main.c: 456:         if (fRetLora==1)
  2584     01D1  0365               	decf	_fRetLora,w	;volatile
  2585     01D2  1D03               	btfss	3,2
  2586     01D3  29D5               	goto	u1921
  2587     01D4  29D6               	goto	u1920
  2588     01D5                     u1921:
  2589     01D5  2913               	goto	l3127
  2590     01D6                     u1920:
  2591     01D6                     l3199:
  2592                           
  2593                           ;main.c: 457:         {;main.c: 458:             fRetLora=0;
  2594     01D6  01E5               	clrf	_fRetLora	;volatile
  2595                           
  2596                           ;main.c: 459:             fComandoSirene=0;
  2597     01D7  01D0               	clrf	_fComandoSirene	;volatile
  2598                           
  2599                           ;main.c: 460:             indice=0;
  2600     01D8  01FD               	clrf	_indice	;volatile
  2601     01D9                     l3201:
  2602                           
  2603                           ;main.c: 462:             ENDERECO = 9001;
  2604     01D9  3029               	movlw	41
  2605     01DA  00B2               	movwf	_ENDERECO
  2606     01DB  3023               	movlw	35
  2607     01DC  00B3               	movwf	_ENDERECO+1
  2608     01DD                     l3203:
  2609                           
  2610                           ;main.c: 464:             __nop();
  2611     01DD  0000               	nop
  2612     01DE                     l3205:
  2613                           
  2614                           ;main.c: 466:             endereco_M = (uint8_t)(ENDERECO/1000);
  2615     01DE  30E8               	movlw	232
  2616     01DF  00F0               	movwf	___lwdiv@divisor
  2617     01E0  3003               	movlw	3
  2618     01E1  00F1               	movwf	___lwdiv@divisor+1
  2619     01E2  0020               	movlb	0	; select bank0
  2620     01E3  0833               	movf	_ENDERECO+1,w
  2621     01E4  00F3               	movwf	___lwdiv@dividend+1
  2622     01E5  0832               	movf	_ENDERECO,w
  2623     01E6  00F2               	movwf	___lwdiv@dividend
  2624     01E7  318F  27C6  3180   	fcall	___lwdiv
  2625     01EA  0870               	movf	?___lwdiv,w
  2626     01EB  0020               	movlb	0	; select bank0
  2627     01EC  00C1               	movwf	_endereco_M	;volatile
  2628     01ED                     l3207:
  2629                           
  2630                           ;main.c: 467:             temp16 = ENDERECO%1000;
  2631     01ED  30E8               	movlw	232
  2632     01EE  00F0               	movwf	___lwmod@divisor
  2633     01EF  3003               	movlw	3
  2634     01F0  00F1               	movwf	___lwmod@divisor+1
  2635     01F1  0833               	movf	_ENDERECO+1,w
  2636     01F2  00F3               	movwf	___lwmod@dividend+1
  2637     01F3  0832               	movf	_ENDERECO,w
  2638     01F4  00F2               	movwf	___lwmod@dividend
  2639     01F5  318F  275F  3180   	fcall	___lwmod
  2640     01F8  0871               	movf	?___lwmod+1,w
  2641     01F9  0020               	movlb	0	; select bank0
  2642     01FA  00AB               	movwf	_temp16+1
  2643     01FB  0870               	movf	?___lwmod,w
  2644     01FC  00AA               	movwf	_temp16
  2645     01FD                     l3209:
  2646                           
  2647                           ;main.c: 468:             endereco_C = (uint8_t)(temp16/100);
  2648     01FD  3064               	movlw	100
  2649     01FE  00F0               	movwf	___lwdiv@divisor
  2650     01FF  3000               	movlw	0
  2651     0200  00F1               	movwf	___lwdiv@divisor+1
  2652     0201  082B               	movf	_temp16+1,w
  2653     0202  00F3               	movwf	___lwdiv@dividend+1
  2654     0203  082A               	movf	_temp16,w
  2655     0204  00F2               	movwf	___lwdiv@dividend
  2656     0205  318F  27C6  3180   	fcall	___lwdiv
  2657     0208  0870               	movf	?___lwdiv,w
  2658     0209  0020               	movlb	0	; select bank0
  2659     020A  00C0               	movwf	_endereco_C	;volatile
  2660     020B                     l3211:
  2661                           
  2662                           ;main.c: 469:             temp16 = temp16%100;
  2663     020B  3064               	movlw	100
  2664     020C  00F0               	movwf	___lwmod@divisor
  2665     020D  3000               	movlw	0
  2666     020E  00F1               	movwf	___lwmod@divisor+1
  2667     020F  082B               	movf	_temp16+1,w
  2668     0210  00F3               	movwf	___lwmod@dividend+1
  2669     0211  082A               	movf	_temp16,w
  2670     0212  00F2               	movwf	___lwmod@dividend
  2671     0213  318F  275F  3180   	fcall	___lwmod
  2672     0216  0871               	movf	?___lwmod+1,w
  2673     0217  0020               	movlb	0	; select bank0
  2674     0218  00AB               	movwf	_temp16+1
  2675     0219  0870               	movf	?___lwmod,w
  2676     021A  00AA               	movwf	_temp16
  2677     021B                     l3213:
  2678                           
  2679                           ;main.c: 470:             endereco_D = (uint8_t)(temp16/10);
  2680     021B  300A               	movlw	10
  2681     021C  00F0               	movwf	___lwdiv@divisor
  2682     021D  3000               	movlw	0
  2683     021E  00F1               	movwf	___lwdiv@divisor+1
  2684     021F  082B               	movf	_temp16+1,w
  2685     0220  00F3               	movwf	___lwdiv@dividend+1
  2686     0221  082A               	movf	_temp16,w
  2687     0222  00F2               	movwf	___lwdiv@dividend
  2688     0223  318F  27C6  3180   	fcall	___lwdiv
  2689     0226  0870               	movf	?___lwdiv,w
  2690     0227  0020               	movlb	0	; select bank0
  2691     0228  00BF               	movwf	_endereco_D	;volatile
  2692     0229                     l3215:
  2693                           
  2694                           ;main.c: 471:             endereco_U = (uint8_t)(temp16%10);
  2695     0229  300A               	movlw	10
  2696     022A  00F0               	movwf	___lwmod@divisor
  2697     022B  3000               	movlw	0
  2698     022C  00F1               	movwf	___lwmod@divisor+1
  2699     022D  082B               	movf	_temp16+1,w
  2700     022E  00F3               	movwf	___lwmod@dividend+1
  2701     022F  082A               	movf	_temp16,w
  2702     0230  00F2               	movwf	___lwmod@dividend
  2703     0231  318F  275F  3180   	fcall	___lwmod
  2704     0234  0870               	movf	?___lwmod,w
  2705     0235  0020               	movlb	0	; select bank0
  2706     0236  00BE               	movwf	_endereco_U	;volatile
  2707     0237                     l3217:
  2708                           
  2709                           ;main.c: 473:             OFFSET = ENDERECO-9000;
  2710     0237  0832               	movf	_ENDERECO,w
  2711     0238  3ED8               	addlw	216
  2712     0239  00B4               	movwf	_OFFSET
  2713     023A  30DC               	movlw	220
  2714     023B  3D33               	addwfc	_ENDERECO+1,w
  2715     023C  00B5               	movwf	_OFFSET+1
  2716     023D                     l3219:
  2717                           
  2718                           ;main.c: 474:             __nop();
  2719     023D  0000               	nop
  2720                           
  2721                           ;main.c: 475:             switch (endereco_U)
  2722     023E  2A5D               	goto	l3235
  2723     023F                     l3221:
  2724                           
  2725                           ;main.c: 479:                     TempoDeReplicacao = 3;
  2726     023F  3003               	movlw	3
  2727     0240  00B0               	movwf	_TempoDeReplicacao
  2728     0241  3000               	movlw	0
  2729     0242  00B1               	movwf	_TempoDeReplicacao+1
  2730                           
  2731                           ;main.c: 480:                     break;
  2732     0243  2A7E               	goto	l3237
  2733     0244                     l3223:
  2734                           
  2735                           ;main.c: 483:                     TempoDeReplicacao = 5;
  2736     0244  3005               	movlw	5
  2737     0245  00B0               	movwf	_TempoDeReplicacao
  2738     0246  3000               	movlw	0
  2739     0247  00B1               	movwf	_TempoDeReplicacao+1
  2740                           
  2741                           ;main.c: 484:                     break;
  2742     0248  2A7E               	goto	l3237
  2743     0249                     l3225:
  2744                           
  2745                           ;main.c: 487:                     TempoDeReplicacao = 7;
  2746     0249  3007               	movlw	7
  2747     024A  00B0               	movwf	_TempoDeReplicacao
  2748     024B  3000               	movlw	0
  2749     024C  00B1               	movwf	_TempoDeReplicacao+1
  2750                           
  2751                           ;main.c: 488:                     break;
  2752     024D  2A7E               	goto	l3237
  2753     024E                     l3227:
  2754                           
  2755                           ;main.c: 491:                     TempoDeReplicacao = 9;
  2756     024E  3009               	movlw	9
  2757     024F  00B0               	movwf	_TempoDeReplicacao
  2758     0250  3000               	movlw	0
  2759     0251  00B1               	movwf	_TempoDeReplicacao+1
  2760                           
  2761                           ;main.c: 492:                     break;
  2762     0252  2A7E               	goto	l3237
  2763     0253                     l3229:
  2764                           
  2765                           ;main.c: 495:                     TempoDeReplicacao = 11;
  2766     0253  300B               	movlw	11
  2767     0254  00B0               	movwf	_TempoDeReplicacao
  2768     0255  3000               	movlw	0
  2769     0256  00B1               	movwf	_TempoDeReplicacao+1
  2770                           
  2771                           ;main.c: 496:                     break;
  2772     0257  2A7E               	goto	l3237
  2773     0258                     l3231:
  2774                           
  2775                           ;main.c: 498:                     TempoDeReplicacao = 4;
  2776     0258  3004               	movlw	4
  2777     0259  00B0               	movwf	_TempoDeReplicacao
  2778     025A  3000               	movlw	0
  2779     025B  00B1               	movwf	_TempoDeReplicacao+1
  2780                           
  2781                           ;main.c: 499:                     break;
  2782     025C  2A7E               	goto	l3237
  2783     025D                     l3235:
  2784     025D  0020               	movlb	0	; select bank0
  2785     025E  083E               	movf	_endereco_U,w	;volatile
  2786                           
  2787                           ; Switch size 1, requested type "simple"
  2788                           ; Number of cases is 10, Range of values is 0 to 9
  2789                           ; switch strategies available:
  2790                           ; Name         Instructions Cycles
  2791                           ; direct_byte           26     6 (fixed)
  2792                           ; simple_byte           31    16 (average)
  2793                           ; jumptable            260     6 (fixed)
  2794                           ;	Chosen strategy is simple_byte
  2795     025F  3A00               	xorlw	0	; case 0
  2796     0260  1903               	skipnz
  2797     0261  2A53               	goto	l3229
  2798     0262  3A01               	xorlw	1	; case 1
  2799     0263  1903               	skipnz
  2800     0264  2A3F               	goto	l3221
  2801     0265  3A03               	xorlw	3	; case 2
  2802     0266  1903               	skipnz
  2803     0267  2A44               	goto	l3223
  2804     0268  3A01               	xorlw	1	; case 3
  2805     0269  1903               	skipnz
  2806     026A  2A49               	goto	l3225
  2807     026B  3A07               	xorlw	7	; case 4
  2808     026C  1903               	skipnz
  2809     026D  2A4E               	goto	l3227
  2810     026E  3A01               	xorlw	1	; case 5
  2811     026F  1903               	skipnz
  2812     0270  2A53               	goto	l3229
  2813     0271  3A03               	xorlw	3	; case 6
  2814     0272  1903               	skipnz
  2815     0273  2A3F               	goto	l3221
  2816     0274  3A01               	xorlw	1	; case 7
  2817     0275  1903               	skipnz
  2818     0276  2A44               	goto	l3223
  2819     0277  3A0F               	xorlw	15	; case 8
  2820     0278  1903               	skipnz
  2821     0279  2A49               	goto	l3225
  2822     027A  3A01               	xorlw	1	; case 9
  2823     027B  1903               	skipnz
  2824     027C  2A4E               	goto	l3227
  2825     027D  2A58               	goto	l3231
  2826     027E                     l3237:
  2827                           
  2828                           ;main.c: 501:             TempoDeReplicacao *= 1000;
  2829     027E  30E8               	movlw	232
  2830     027F  00F0               	movwf	___wmul@multiplier
  2831     0280  3003               	movlw	3
  2832     0281  00F1               	movwf	___wmul@multiplier+1
  2833     0282  0831               	movf	_TempoDeReplicacao+1,w
  2834     0283  00F3               	movwf	___wmul@multiplicand+1
  2835     0284  0830               	movf	_TempoDeReplicacao,w
  2836     0285  00F2               	movwf	___wmul@multiplicand
  2837     0286  318E  2644  3180   	fcall	___wmul
  2838     0289  0871               	movf	?___wmul+1,w
  2839     028A  0020               	movlb	0	; select bank0
  2840     028B  00B1               	movwf	_TempoDeReplicacao+1
  2841     028C  0870               	movf	?___wmul,w
  2842     028D  00B0               	movwf	_TempoDeReplicacao
  2843     028E                     l3239:
  2844                           
  2845                           ;main.c: 503:             ENDERECO -= OFFSET;
  2846     028E  0834               	movf	_OFFSET,w
  2847     028F  02B2               	subwf	_ENDERECO,f
  2848     0290  0835               	movf	_OFFSET+1,w
  2849     0291  3BB3               	subwfb	_ENDERECO+1,f
  2850     0292                     l3241:
  2851                           
  2852                           ;main.c: 504:             endereco.end16 = ENDERECO;
  2853     0292  0833               	movf	_ENDERECO+1,w
  2854     0293  00A7               	movwf	_endereco+1
  2855     0294  0832               	movf	_ENDERECO,w
  2856     0295  00A6               	movwf	_endereco
  2857     0296                     l3243:
  2858                           
  2859                           ;main.c: 505:             offset.end16 = OFFSET;
  2860     0296  0835               	movf	_OFFSET+1,w
  2861     0297  0021               	movlb	1	; select bank1
  2862     0298  00DF               	movwf	(_offset+1)^(0+128)
  2863     0299  0020               	movlb	0	; select bank0
  2864     029A  0834               	movf	_OFFSET,w
  2865     029B  0021               	movlb	1	; select bank1
  2866     029C  00DE               	movwf	_offset^(0+128)
  2867     029D                     l3245:
  2868                           
  2869                           ;main.c: 506:             __nop();
  2870     029D  0000               	nop
  2871     029E                     l3247:
  2872                           
  2873                           ;main.c: 508:             M_EnderecoRecebido = DadosLora[4]-48;
  2874     029E  0022               	movlb	2	; select bank2
  2875     029F  0824               	movf	(_DadosLora^(0+256)+4),w	;volatile
  2876     02A0  3ED0               	addlw	208
  2877     02A1  0020               	movlb	0	; select bank0
  2878     02A2  00C3               	movwf	_M_EnderecoRecebido
  2879     02A3                     l3249:
  2880                           
  2881                           ;main.c: 509:             C_EnderecoRecebido = DadosLora[5]-48;
  2882     02A3  0022               	movlb	2	; select bank2
  2883     02A4  0825               	movf	(_DadosLora^(0+256)+5),w	;volatile
  2884     02A5  3ED0               	addlw	208
  2885     02A6  0020               	movlb	0	; select bank0
  2886     02A7  00EE               	movwf	_C_EnderecoRecebido
  2887     02A8                     l3251:
  2888                           
  2889                           ;main.c: 510:             D_EnderecoRecebido = DadosLora[6]-48;
  2890     02A8  0022               	movlb	2	; select bank2
  2891     02A9  0826               	movf	(_DadosLora^(0+256)+6),w	;volatile
  2892     02AA  3ED0               	addlw	208
  2893     02AB  0020               	movlb	0	; select bank0
  2894     02AC  00ED               	movwf	_D_EnderecoRecebido
  2895     02AD                     l3253:
  2896                           
  2897                           ;main.c: 511:             U_EnderecoRecebido = DadosLora[7]-48;
  2898     02AD  0022               	movlb	2	; select bank2
  2899     02AE  0827               	movf	(_DadosLora^(0+256)+7),w	;volatile
  2900     02AF  3ED0               	addlw	208
  2901     02B0  0020               	movlb	0	; select bank0
  2902     02B1  00C2               	movwf	_U_EnderecoRecebido
  2903     02B2                     l3255:
  2904                           
  2905                           ;main.c: 512:             __nop();
  2906     02B2  0000               	nop
  2907     02B3                     l3257:
  2908                           
  2909                           ;main.c: 513:             enderecoRecebido = M_EnderecoRecebido*1000;
  2910     02B3  0020               	movlb	0	; select bank0
  2911     02B4  0843               	movf	_M_EnderecoRecebido,w
  2912     02B5  00F9               	movwf	??_main
  2913     02B6  01FA               	clrf	??_main+1
  2914     02B7  0879               	movf	??_main,w
  2915     02B8  00F0               	movwf	___wmul@multiplier
  2916     02B9  087A               	movf	??_main+1,w
  2917     02BA  00F1               	movwf	___wmul@multiplier+1
  2918     02BB  30E8               	movlw	232
  2919     02BC  00F2               	movwf	___wmul@multiplicand
  2920     02BD  3003               	movlw	3
  2921     02BE  00F3               	movwf	___wmul@multiplicand+1
  2922     02BF  318E  2644  3180   	fcall	___wmul
  2923     02C2  0871               	movf	?___wmul+1,w
  2924     02C3  0020               	movlb	0	; select bank0
  2925     02C4  00A9               	movwf	_enderecoRecebido+1
  2926     02C5  0870               	movf	?___wmul,w
  2927     02C6  00A8               	movwf	_enderecoRecebido
  2928     02C7                     l3259:
  2929                           
  2930                           ;main.c: 514:             enderecoRecebido += C_EnderecoRecebido*100;
  2931     02C7  086E               	movf	_C_EnderecoRecebido,w
  2932     02C8  00F9               	movwf	??_main
  2933     02C9  01FA               	clrf	??_main+1
  2934     02CA  0879               	movf	??_main,w
  2935     02CB  00F0               	movwf	___wmul@multiplier
  2936     02CC  087A               	movf	??_main+1,w
  2937     02CD  00F1               	movwf	___wmul@multiplier+1
  2938     02CE  3064               	movlw	100
  2939     02CF  00F2               	movwf	___wmul@multiplicand
  2940     02D0  3000               	movlw	0
  2941     02D1  00F3               	movwf	___wmul@multiplicand+1
  2942     02D2  318E  2644  3180   	fcall	___wmul
  2943     02D5  0870               	movf	?___wmul,w
  2944     02D6  0020               	movlb	0	; select bank0
  2945     02D7  07A8               	addwf	_enderecoRecebido,f
  2946     02D8  0871               	movf	?___wmul+1,w
  2947     02D9  3DA9               	addwfc	_enderecoRecebido+1,f
  2948     02DA                     l3261:
  2949                           
  2950                           ;main.c: 515:             enderecoRecebido += D_EnderecoRecebido*10;
  2951     02DA  086D               	movf	_D_EnderecoRecebido,w
  2952     02DB  00F9               	movwf	??_main
  2953     02DC  01FA               	clrf	??_main+1
  2954     02DD  0879               	movf	??_main,w
  2955     02DE  00F0               	movwf	___wmul@multiplier
  2956     02DF  087A               	movf	??_main+1,w
  2957     02E0  00F1               	movwf	___wmul@multiplier+1
  2958     02E1  300A               	movlw	10
  2959     02E2  00F2               	movwf	___wmul@multiplicand
  2960     02E3  3000               	movlw	0
  2961     02E4  00F3               	movwf	___wmul@multiplicand+1
  2962     02E5  318E  2644  3180   	fcall	___wmul
  2963     02E8  0870               	movf	?___wmul,w
  2964     02E9  0020               	movlb	0	; select bank0
  2965     02EA  07A8               	addwf	_enderecoRecebido,f
  2966     02EB  0871               	movf	?___wmul+1,w
  2967     02EC  3DA9               	addwfc	_enderecoRecebido+1,f
  2968                           
  2969                           ;main.c: 516:             enderecoRecebido += U_EnderecoRecebido;
  2970     02ED  0842               	movf	_U_EnderecoRecebido,w
  2971     02EE  00F9               	movwf	??_main
  2972     02EF  01FA               	clrf	??_main+1
  2973     02F0  0879               	movf	??_main,w
  2974     02F1  07A8               	addwf	_enderecoRecebido,f
  2975     02F2  087A               	movf	??_main+1,w
  2976     02F3  3DA9               	addwfc	_enderecoRecebido+1,f
  2977     02F4                     l3263:
  2978                           
  2979                           ;main.c: 517:             __nop();
  2980     02F4  0000               	nop
  2981                           
  2982                           ;main.c: 519:             pacoteTRX[ 0] = DadosLora[ 2];
  2983     02F5  0022               	movlb	2	; select bank2
  2984     02F6  0822               	movf	(_DadosLora^(0+256)+2),w	;volatile
  2985     02F7  0021               	movlb	1	; select bank1
  2986     02F8  00C0               	movwf	_pacoteTRX^(0+128)	;volatile
  2987                           
  2988                           ;main.c: 520:             pacoteTRX[ 1] = DadosLora[ 3];
  2989     02F9  0022               	movlb	2	; select bank2
  2990     02FA  0823               	movf	(_DadosLora^(0+256)+3),w	;volatile
  2991     02FB  0021               	movlb	1	; select bank1
  2992     02FC  00C1               	movwf	(_pacoteTRX^(0+128)+1)	;volatile
  2993                           
  2994                           ;main.c: 521:             pacoteTRX[ 2] = DadosLora[ 4];
  2995     02FD  0022               	movlb	2	; select bank2
  2996     02FE  0824               	movf	(_DadosLora^(0+256)+4),w	;volatile
  2997     02FF  0021               	movlb	1	; select bank1
  2998     0300  00C2               	movwf	(_pacoteTRX^(0+128)+2)	;volatile
  2999                           
  3000                           ;main.c: 522:             pacoteTRX[ 3] = DadosLora[ 5];
  3001     0301  0022               	movlb	2	; select bank2
  3002     0302  0825               	movf	(_DadosLora^(0+256)+5),w	;volatile
  3003     0303  0021               	movlb	1	; select bank1
  3004     0304  00C3               	movwf	(_pacoteTRX^(0+128)+3)	;volatile
  3005                           
  3006                           ;main.c: 523:             pacoteTRX[ 4] = DadosLora[ 6];
  3007     0305  0022               	movlb	2	; select bank2
  3008     0306  0826               	movf	(_DadosLora^(0+256)+6),w	;volatile
  3009     0307  0021               	movlb	1	; select bank1
  3010     0308  00C4               	movwf	(_pacoteTRX^(0+128)+4)	;volatile
  3011                           
  3012                           ;main.c: 524:             pacoteTRX[ 5] = DadosLora[ 7];
  3013     0309  0022               	movlb	2	; select bank2
  3014     030A  0827               	movf	(_DadosLora^(0+256)+7),w	;volatile
  3015     030B  0021               	movlb	1	; select bank1
  3016     030C  00C5               	movwf	(_pacoteTRX^(0+128)+5)	;volatile
  3017                           
  3018                           ;main.c: 525:             pacoteTRX[ 6] = DadosLora[ 8];
  3019     030D  0022               	movlb	2	; select bank2
  3020     030E  0828               	movf	(_DadosLora^(0+256)+8),w	;volatile
  3021     030F  0021               	movlb	1	; select bank1
  3022     0310  00C6               	movwf	(_pacoteTRX^(0+128)+6)	;volatile
  3023                           
  3024                           ;main.c: 526:             pacoteTRX[ 7] = DadosLora[ 9];
  3025     0311  0022               	movlb	2	; select bank2
  3026     0312  0829               	movf	(_DadosLora^(0+256)+9),w	;volatile
  3027     0313  0021               	movlb	1	; select bank1
  3028     0314  00C7               	movwf	(_pacoteTRX^(0+128)+7)	;volatile
  3029                           
  3030                           ;main.c: 527:             pacoteTRX[ 8] = DadosLora[10];
  3031     0315  0022               	movlb	2	; select bank2
  3032     0316  082A               	movf	(_DadosLora^(0+256)+10),w	;volatile
  3033     0317  0021               	movlb	1	; select bank1
  3034     0318  00C8               	movwf	(_pacoteTRX^(0+128)+8)	;volatile
  3035                           
  3036                           ;main.c: 528:             pacoteTRX[ 9] = DadosLora[11];
  3037     0319  0022               	movlb	2	; select bank2
  3038     031A  082B               	movf	(_DadosLora^(0+256)+11),w	;volatile
  3039     031B  0021               	movlb	1	; select bank1
  3040     031C  00C9               	movwf	(_pacoteTRX^(0+128)+9)	;volatile
  3041                           
  3042                           ;main.c: 529:             pacoteTRX[10] = DadosLora[12];
  3043     031D  0022               	movlb	2	; select bank2
  3044     031E  082C               	movf	(_DadosLora^(0+256)+12),w	;volatile
  3045     031F  0021               	movlb	1	; select bank1
  3046     0320  00CA               	movwf	(_pacoteTRX^(0+128)+10)	;volatile
  3047                           
  3048                           ;main.c: 530:             pacoteTRX[11] = DadosLora[13];
  3049     0321  0022               	movlb	2	; select bank2
  3050     0322  082D               	movf	(_DadosLora^(0+256)+13),w	;volatile
  3051     0323  0021               	movlb	1	; select bank1
  3052     0324  00CB               	movwf	(_pacoteTRX^(0+128)+11)	;volatile
  3053                           
  3054                           ;main.c: 531:             pacoteTRX[12] = DadosLora[14];
  3055     0325  0022               	movlb	2	; select bank2
  3056     0326  082E               	movf	(_DadosLora^(0+256)+14),w	;volatile
  3057     0327  0021               	movlb	1	; select bank1
  3058     0328  00CC               	movwf	(_pacoteTRX^(0+128)+12)	;volatile
  3059     0329                     l3265:
  3060                           
  3061                           ;main.c: 532:             pacoteTRX[13] = 'F';
  3062     0329  3046               	movlw	70
  3063     032A  00CD               	movwf	(_pacoteTRX^(0+128)+13)	;volatile
  3064     032B                     l3267:
  3065                           
  3066                           ;main.c: 534:             if (DadosLora[15]=='F')
  3067     032B  3046               	movlw	70
  3068     032C  0022               	movlb	2	; select bank2
  3069     032D  062F               	xorwf	(_DadosLora^(0+256)+15),w	;volatile
  3070     032E  1D03               	btfss	3,2
  3071     032F  2B31               	goto	u1931
  3072     0330  2B32               	goto	u1930
  3073     0331                     u1931:
  3074     0331  2B5D               	goto	l3277
  3075     0332                     u1930:
  3076     0332                     l678:	
  3077                           ;main.c: 535:             {;main.c: 537:                 do { LATAbits.LATA6 = 1; } whil
      +                          e(0); _delay((unsigned long)((50)*(16000000/4000.0))); do { LATAbits.LATA6 = 0; } while(
      +                          0); _delay((unsigned long)((50)*(16000000/4000.0)));
  3078                           
  3079     0332  170C               	bsf	12,6	;volatile
  3080     0333                     l3269:
  3081     0333  3002               	movlw	2
  3082     0334  00FA               	movwf	??_main+1
  3083     0335  3004               	movlw	4
  3084     0336  00F9               	movwf	??_main
  3085     0337  30BA               	movlw	186
  3086     0338                     u2187:
  3087     0338  0B89               	decfsz	9,f
  3088     0339  2B38               	goto	u2187
  3089     033A  0BF9               	decfsz	??_main,f
  3090     033B  2B38               	goto	u2187
  3091     033C  0BFA               	decfsz	??_main+1,f
  3092     033D  2B38               	goto	u2187
  3093     033E  3200               	nop2
  3094     033F                     l3271:
  3095     033F  0022               	movlb	2	; select bank2
  3096     0340  130C               	bcf	12,6	;volatile
  3097     0341                     l681:
  3098     0341  3002               	movlw	2
  3099     0342  00FA               	movwf	??_main+1
  3100     0343  3004               	movlw	4
  3101     0344  00F9               	movwf	??_main
  3102     0345  30BA               	movlw	186
  3103     0346                     u2197:
  3104     0346  0B89               	decfsz	9,f
  3105     0347  2B46               	goto	u2197
  3106     0348  0BF9               	decfsz	??_main,f
  3107     0349  2B46               	goto	u2197
  3108     034A  0BFA               	decfsz	??_main+1,f
  3109     034B  2B46               	goto	u2197
  3110     034C  3200               	nop2
  3111     034D                     l3273:
  3112     034D  0022               	movlb	2	; select bank2
  3113     034E  170C               	bsf	12,6	;volatile
  3114     034F                     l683:
  3115     034F  3002               	movlw	2
  3116     0350  00FA               	movwf	??_main+1
  3117     0351  3004               	movlw	4
  3118     0352  00F9               	movwf	??_main
  3119     0353  30BA               	movlw	186
  3120     0354                     u2207:
  3121     0354  0B89               	decfsz	9,f
  3122     0355  2B54               	goto	u2207
  3123     0356  0BF9               	decfsz	??_main,f
  3124     0357  2B54               	goto	u2207
  3125     0358  0BFA               	decfsz	??_main+1,f
  3126     0359  2B54               	goto	u2207
  3127     035A  3200               	nop2
  3128     035B                     l3275:
  3129     035B  0022               	movlb	2	; select bank2
  3130     035C  130C               	bcf	12,6	;volatile
  3131     035D                     l3277:
  3132                           
  3133                           ;main.c: 541:             __nop();
  3134     035D  0000               	nop
  3135                           
  3136                           ;main.c: 544:             if ( enderecoRecebido == endereco.end16 )
  3137     035E  0020               	movlb	0	; select bank0
  3138     035F  0829               	movf	_enderecoRecebido+1,w
  3139     0360  0627               	xorwf	_endereco+1,w
  3140     0361  1D03               	skipz
  3141     0362  2B65               	goto	u1945
  3142     0363  0828               	movf	_enderecoRecebido,w
  3143     0364  0626               	xorwf	_endereco,w
  3144     0365                     u1945:
  3145     0365  1D03               	skipz
  3146     0366  2B68               	goto	u1941
  3147     0367  2B69               	goto	u1940
  3148     0368                     u1941:
  3149     0368  2B6B               	goto	l3281
  3150     0369                     u1940:
  3151     0369                     l3279:
  3152                           
  3153                           ;main.c: 545:                 fComandoSirene=1;
  3154     0369  3001               	movlw	1
  3155     036A  00D0               	movwf	_fComandoSirene	;volatile
  3156     036B                     l3281:
  3157                           
  3158                           ;main.c: 548:             endereco.end16 += offset.end16;
  3159     036B  0021               	movlb	1	; select bank1
  3160     036C  085E               	movf	_offset^(0+128),w
  3161     036D  0020               	movlb	0	; select bank0
  3162     036E  07A6               	addwf	_endereco,f
  3163     036F  0021               	movlb	1	; select bank1
  3164     0370  085F               	movf	(_offset+1)^(0+128),w
  3165     0371  0020               	movlb	0	; select bank0
  3166     0372  3DA7               	addwfc	_endereco+1,f
  3167                           
  3168                           ;main.c: 549:             if ( enderecoRecebido == endereco.end16 )
  3169     0373  0829               	movf	_enderecoRecebido+1,w
  3170     0374  0627               	xorwf	_endereco+1,w
  3171     0375  1D03               	skipz
  3172     0376  2B79               	goto	u1955
  3173     0377  0828               	movf	_enderecoRecebido,w
  3174     0378  0626               	xorwf	_endereco,w
  3175     0379                     u1955:
  3176     0379  1D03               	skipz
  3177     037A  2B7C               	goto	u1951
  3178     037B  2B7D               	goto	u1950
  3179     037C                     u1951:
  3180     037C  2B7F               	goto	l3285
  3181     037D                     u1950:
  3182     037D                     l3283:
  3183                           
  3184                           ;main.c: 550:                 fComandoSirene=1;
  3185     037D  3001               	movlw	1
  3186     037E  00D0               	movwf	_fComandoSirene	;volatile
  3187     037F                     l3285:
  3188                           
  3189                           ;main.c: 552:             if (fComandoSirene)
  3190     037F  0850               	movf	_fComandoSirene,w	;volatile
  3191     0380  1903               	btfsc	3,2
  3192     0381  2B83               	goto	u1961
  3193     0382  2B84               	goto	u1960
  3194     0383                     u1961:
  3195     0383  2C0F               	goto	l3341
  3196     0384                     u1960:
  3197     0384                     l3287:
  3198                           
  3199                           ;main.c: 553:             {;main.c: 554:                 __nop();
  3200     0384  0000               	nop
  3201     0385                     l3289:
  3202                           
  3203                           ;main.c: 555:                 fComandoSirene=0;
  3204     0385  0020               	movlb	0	; select bank0
  3205     0386  01D0               	clrf	_fComandoSirene	;volatile
  3206     0387                     l3291:
  3207                           
  3208                           ;main.c: 556:                 passagem=0;
  3209     0387  3000               	movlw	0
  3210     0388  0021               	movlb	1	; select bank1
  3211     0389  00D9               	movwf	(_passagem+3)^(0+128)
  3212     038A  3000               	movlw	0
  3213     038B  00D8               	movwf	(_passagem+2)^(0+128)
  3214     038C  3000               	movlw	0
  3215     038D  00D7               	movwf	(_passagem+1)^(0+128)
  3216     038E  3000               	movlw	0
  3217     038F  00D6               	movwf	_passagem^(0+128)
  3218     0390                     l3293:
  3219                           
  3220                           ;main.c: 558:                 if ( (DadosLora[ 8] == '1')&&(DadosLora[ 9] == '1')&&
  3221     0390  3031               	movlw	49
  3222     0391  0022               	movlb	2	; select bank2
  3223     0392  0628               	xorwf	(_DadosLora^(0+256)+8),w	;volatile
  3224     0393  1D03               	btfss	3,2
  3225     0394  2B96               	goto	u1971
  3226     0395  2B97               	goto	u1970
  3227     0396                     u1971:
  3228     0396  2BD0               	goto	l3315
  3229     0397                     u1970:
  3230     0397                     l3295:
  3231     0397  3031               	movlw	49
  3232     0398  0629               	xorwf	(_DadosLora^(0+256)+9),w	;volatile
  3233     0399  1D03               	btfss	3,2
  3234     039A  2B9C               	goto	u1981
  3235     039B  2B9D               	goto	u1980
  3236     039C                     u1981:
  3237     039C  2BD0               	goto	l3315
  3238     039D                     u1980:
  3239     039D                     l3297:
  3240     039D  3032               	movlw	50
  3241     039E  062A               	xorwf	(_DadosLora^(0+256)+10),w	;volatile
  3242     039F  1D03               	btfss	3,2
  3243     03A0  2BA2               	goto	u1991
  3244     03A1  2BA3               	goto	u1990
  3245     03A2                     u1991:
  3246     03A2  2BD0               	goto	l3315
  3247     03A3                     u1990:
  3248     03A3                     l3299:
  3249     03A3  3032               	movlw	50
  3250     03A4  062B               	xorwf	(_DadosLora^(0+256)+11),w	;volatile
  3251     03A5  1D03               	btfss	3,2
  3252     03A6  2BA8               	goto	u2001
  3253     03A7  2BA9               	goto	u2000
  3254     03A8                     u2001:
  3255     03A8  2BD0               	goto	l3315
  3256     03A9                     u2000:
  3257     03A9                     l3301:
  3258     03A9  3033               	movlw	51
  3259     03AA  062C               	xorwf	(_DadosLora^(0+256)+12),w	;volatile
  3260     03AB  1D03               	btfss	3,2
  3261     03AC  2BAE               	goto	u2011
  3262     03AD  2BAF               	goto	u2010
  3263     03AE                     u2011:
  3264     03AE  2BD0               	goto	l3315
  3265     03AF                     u2010:
  3266     03AF                     l3303:
  3267     03AF  3033               	movlw	51
  3268     03B0  062D               	xorwf	(_DadosLora^(0+256)+13),w	;volatile
  3269     03B1  1D03               	btfss	3,2
  3270     03B2  2BB4               	goto	u2021
  3271     03B3  2BB5               	goto	u2020
  3272     03B4                     u2021:
  3273     03B4  2BD0               	goto	l3315
  3274     03B5                     u2020:
  3275     03B5                     l3305:
  3276                           
  3277                           ;main.c: 561:                 {;main.c: 562:                     if (fLigado==0)
  3278     03B5  0020               	movlb	0	; select bank0
  3279     03B6  0853               	movf	_fLigado,w	;volatile
  3280     03B7  1D03               	btfss	3,2
  3281     03B8  2BBA               	goto	u2031
  3282     03B9  2BBB               	goto	u2030
  3283     03BA                     u2031:
  3284     03BA  2BCB               	goto	l3313
  3285     03BB                     u2030:
  3286     03BB                     l3307:
  3287                           
  3288                           ;main.c: 563:                     {;main.c: 564:                         __nop();
  3289     03BB  0000               	nop
  3290                           
  3291                           ;main.c: 565:                         fLigado = 1;
  3292     03BC  3001               	movlw	1
  3293     03BD  0020               	movlb	0	; select bank0
  3294     03BE  00D3               	movwf	_fLigado	;volatile
  3295                           
  3296                           ;main.c: 566:                         fRTX=1;
  3297     03BF  3001               	movlw	1
  3298     03C0  00D2               	movwf	_fRTX	;volatile
  3299     03C1                     l691:	
  3300                           ;main.c: 567:                         do { LATAbits.LATA6 = 1; } while(0);
  3301                           
  3302     03C1  0022               	movlb	2	; select bank2
  3303     03C2  170C               	bsf	12,6	;volatile
  3304     03C3                     l3309:
  3305                           
  3306                           ;main.c: 568:                         cicloLED=0;
  3307     03C3  0020               	movlb	0	; select bank0
  3308     03C4  01AE               	clrf	_cicloLED
  3309     03C5  01AF               	clrf	_cicloLED+1
  3310                           
  3311                           ;main.c: 569:                         tempoRTX=0;
  3312     03C6  01AC               	clrf	_tempoRTX
  3313     03C7  01AD               	clrf	_tempoRTX+1
  3314     03C8                     l3311:
  3315     03C8  0022               	movlb	2	; select bank2
  3316     03C9  140C               	bsf	12,0	;volatile
  3317     03CA  2BD0               	goto	l3315
  3318     03CB                     l3313:
  3319                           
  3320                           ;main.c: 573:                         contaRTX=1;
  3321     03CB  3001               	movlw	1
  3322     03CC  0021               	movlb	1	; select bank1
  3323     03CD  00E0               	movwf	_contaRTX^(0+128)
  3324     03CE  3000               	movlw	0
  3325     03CF  00E1               	movwf	(_contaRTX^(0+128)+1)
  3326     03D0                     l3315:
  3327                           
  3328                           ;main.c: 576:                 if ( (DadosLora[ 8] == '4')&&(DadosLora[ 9] == '4')&&
  3329     03D0  3034               	movlw	52
  3330     03D1  0022               	movlb	2	; select bank2
  3331     03D2  0628               	xorwf	(_DadosLora^(0+256)+8),w	;volatile
  3332     03D3  1D03               	btfss	3,2
  3333     03D4  2BD6               	goto	u2041
  3334     03D5  2BD7               	goto	u2040
  3335     03D6                     u2041:
  3336     03D6  2C0F               	goto	l3341
  3337     03D7                     u2040:
  3338     03D7                     l3317:
  3339     03D7  3034               	movlw	52
  3340     03D8  0629               	xorwf	(_DadosLora^(0+256)+9),w	;volatile
  3341     03D9  1D03               	btfss	3,2
  3342     03DA  2BDC               	goto	u2051
  3343     03DB  2BDD               	goto	u2050
  3344     03DC                     u2051:
  3345     03DC  2C0F               	goto	l3341
  3346     03DD                     u2050:
  3347     03DD                     l3319:
  3348     03DD  3035               	movlw	53
  3349     03DE  062A               	xorwf	(_DadosLora^(0+256)+10),w	;volatile
  3350     03DF  1D03               	btfss	3,2
  3351     03E0  2BE2               	goto	u2061
  3352     03E1  2BE3               	goto	u2060
  3353     03E2                     u2061:
  3354     03E2  2C0F               	goto	l3341
  3355     03E3                     u2060:
  3356     03E3                     l3321:
  3357     03E3  3035               	movlw	53
  3358     03E4  062B               	xorwf	(_DadosLora^(0+256)+11),w	;volatile
  3359     03E5  1D03               	btfss	3,2
  3360     03E6  2BE8               	goto	u2071
  3361     03E7  2BE9               	goto	u2070
  3362     03E8                     u2071:
  3363     03E8  2C0F               	goto	l3341
  3364     03E9                     u2070:
  3365     03E9                     l3323:
  3366     03E9  3036               	movlw	54
  3367     03EA  062C               	xorwf	(_DadosLora^(0+256)+12),w	;volatile
  3368     03EB  1D03               	btfss	3,2
  3369     03EC  2BEE               	goto	u2081
  3370     03ED  2BEF               	goto	u2080
  3371     03EE                     u2081:
  3372     03EE  2C0F               	goto	l3341
  3373     03EF                     u2080:
  3374     03EF                     l3325:
  3375     03EF  3036               	movlw	54
  3376     03F0  062D               	xorwf	(_DadosLora^(0+256)+13),w	;volatile
  3377     03F1  1D03               	btfss	3,2
  3378     03F2  2BF4               	goto	u2091
  3379     03F3  2BF5               	goto	u2090
  3380     03F4                     u2091:
  3381     03F4  2C0F               	goto	l3341
  3382     03F5                     u2090:
  3383     03F5                     l3327:
  3384                           
  3385                           ;main.c: 579:                 {;main.c: 580:                     if (fLigado==1)
  3386     03F5  0020               	movlb	0	; select bank0
  3387     03F6  0353               	decf	_fLigado,w	;volatile
  3388     03F7  1D03               	btfss	3,2
  3389     03F8  2BFA               	goto	u2101
  3390     03F9  2BFB               	goto	u2100
  3391     03FA                     u2101:
  3392     03FA  2C0A               	goto	l3339
  3393     03FB                     u2100:
  3394     03FB                     l3329:
  3395                           
  3396                           ;main.c: 581:                     {;main.c: 582:                         __nop();
  3397     03FB  0000               	nop
  3398     03FC                     l3331:
  3399                           
  3400                           ;main.c: 583:                         fLigado=0;
  3401     03FC  0020               	movlb	0	; select bank0
  3402     03FD  01D3               	clrf	_fLigado	;volatile
  3403     03FE                     l3333:
  3404                           
  3405                           ;main.c: 584:                         fRTX=1;
  3406     03FE  3001               	movlw	1
  3407     03FF  00D2               	movwf	_fRTX	;volatile
  3408     0400                     l3335:
  3409     0400  0022               	movlb	2	; select bank2
  3410     0401  170C               	bsf	12,6	;volatile
  3411     0402                     l699:
  3412                           
  3413                           ;main.c: 586:                         cicloLED=0;
  3414     0402  0020               	movlb	0	; select bank0
  3415     0403  01AE               	clrf	_cicloLED
  3416     0404  01AF               	clrf	_cicloLED+1
  3417                           
  3418                           ;main.c: 587:                         tempoRTX=0;
  3419     0405  01AC               	clrf	_tempoRTX
  3420     0406  01AD               	clrf	_tempoRTX+1
  3421     0407                     l3337:
  3422     0407  0022               	movlb	2	; select bank2
  3423     0408  100C               	bcf	12,0	;volatile
  3424     0409  2C0F               	goto	l3341
  3425     040A                     l3339:
  3426                           
  3427                           ;main.c: 591:                         contaRTX=2;
  3428     040A  3002               	movlw	2
  3429     040B  0021               	movlb	1	; select bank1
  3430     040C  00E0               	movwf	_contaRTX^(0+128)
  3431     040D  3000               	movlw	0
  3432     040E  00E1               	movwf	(_contaRTX^(0+128)+1)
  3433     040F                     l3341:
  3434                           
  3435                           ;main.c: 595:             SM_CFOFF();
  3436     040F  318E  26DB  3180   	fcall	_SM_CFOFF
  3437     0412                     l3343:
  3438                           
  3439                           ;main.c: 596:             SM_CONFIGRADIO(22);
  3440     0412  3016               	movlw	22
  3441     0413  318F  2706  3180   	fcall	_SM_CONFIGRADIO
  3442     0416                     l3345:
  3443                           
  3444                           ;main.c: 597:             SM_MODORX(22);
  3445     0416  3016               	movlw	22
  3446     0417  318F  2731  3180   	fcall	_SM_MODORX
  3447     041A                     l3347:
  3448                           
  3449                           ;main.c: 598:             SM_CFOFF();
  3450     041A  318E  26DB  3180   	fcall	_SM_CFOFF
  3451     041D                     l3349:
  3452                           
  3453                           ;main.c: 599:             SM_CONFIGRADIO(22);
  3454     041D  3016               	movlw	22
  3455     041E  318F  2706  3180   	fcall	_SM_CONFIGRADIO
  3456     0421                     l3351:
  3457                           
  3458                           ;main.c: 600:             SM_MODORX(22);
  3459     0421  3016               	movlw	22
  3460     0422  318F  2731  3180   	fcall	_SM_MODORX
  3461     0425  2912               	goto	l3125
  3462     0426  3180  282C         	ljmp	start
  3463     0428                     __end_of_main:
  3464                           
  3465                           	psect	text1
  3466     0E44                     __ptext1:	
  3467 ;; *************** function ___wmul *****************
  3468 ;; Defined at:
  3469 ;;		line 15 in file "C:\Program Files\Microchip\xc8\v2.50\pic\sources\c99\common\Umul16.c"
  3470 ;; Parameters:    Size  Location     Type
  3471 ;;  multiplier      2    0[COMMON] unsigned int 
  3472 ;;  multiplicand    2    2[COMMON] unsigned int 
  3473 ;; Auto vars:     Size  Location     Type
  3474 ;;  product         2    4[COMMON] unsigned int 
  3475 ;; Return value:  Size  Location     Type
  3476 ;;                  2    0[COMMON] unsigned int 
  3477 ;; Registers used:
  3478 ;;		wreg, status,2, status,0
  3479 ;; Tracked objects:
  3480 ;;		On entry : 0/0
  3481 ;;		On exit  : 0/0
  3482 ;;		Unchanged: 0/0
  3483 ;; Data sizes:     COMMON   BANK0   BANK1   BANK2   BANK3   BANK4   BANK5   BANK6   BANK7   BANK8   BANK9  BANK10  BANK1
      +1  BANK12
  3484 ;;      Params:         4       0       0       0       0       0       0       0       0       0       0       0       
      +0       0
  3485 ;;      Locals:         2       0       0       0       0       0       0       0       0       0       0       0       
      +0       0
  3486 ;;      Temps:          0       0       0       0       0       0       0       0       0       0       0       0       
      +0       0
  3487 ;;      Totals:         6       0       0       0       0       0       0       0       0       0       0       0       
      +0       0
  3488 ;;Total ram usage:        6 bytes
  3489 ;; Hardware stack levels used: 1
  3490 ;; Hardware stack levels required when called: 4
  3491 ;; This function calls:
  3492 ;;		Nothing
  3493 ;; This function is called by:
  3494 ;;		_main
  3495 ;; This function uses a non-reentrant model
  3496 ;;
  3497                           
  3498     0E44                     ___wmul:	
  3499                           ;psect for function ___wmul
  3500                           
  3501     0E44                     l2953:	
  3502                           ;incstack = 0
  3503                           ; Regs used in ___wmul: [wreg+status,2+status,0]
  3504                           
  3505     0E44  01F4               	clrf	___wmul@product
  3506     0E45  01F5               	clrf	___wmul@product+1
  3507     0E46                     l2955:
  3508     0E46  1C70               	btfss	___wmul@multiplier,0
  3509     0E47  2E49               	goto	u1641
  3510     0E48  2E4A               	goto	u1640
  3511     0E49                     u1641:
  3512     0E49  2E4E               	goto	l855
  3513     0E4A                     u1640:
  3514     0E4A                     l2957:
  3515     0E4A  0872               	movf	___wmul@multiplicand,w
  3516     0E4B  07F4               	addwf	___wmul@product,f
  3517     0E4C  0873               	movf	___wmul@multiplicand+1,w
  3518     0E4D  3DF5               	addwfc	___wmul@product+1,f
  3519     0E4E                     l855:
  3520     0E4E  3001               	movlw	1
  3521     0E4F                     u1655:
  3522     0E4F  35F2               	lslf	___wmul@multiplicand,f
  3523     0E50  0DF3               	rlf	___wmul@multiplicand+1,f
  3524     0E51  0B89               	decfsz	9,f
  3525     0E52  2E4F               	goto	u1655
  3526     0E53                     l2959:
  3527     0E53  3001               	movlw	1
  3528     0E54                     u1665:
  3529     0E54  36F1               	lsrf	___wmul@multiplier+1,f
  3530     0E55  0CF0               	rrf	___wmul@multiplier,f
  3531     0E56  0B89               	decfsz	9,f
  3532     0E57  2E54               	goto	u1665
  3533     0E58                     l2961:
  3534     0E58  0870               	movf	___wmul@multiplier,w
  3535     0E59  0471               	iorwf	___wmul@multiplier+1,w
  3536     0E5A  1D03               	btfss	3,2
  3537     0E5B  2E5D               	goto	u1671
  3538     0E5C  2E5E               	goto	u1670
  3539     0E5D                     u1671:
  3540     0E5D  2E46               	goto	l2955
  3541     0E5E                     u1670:
  3542     0E5E                     l2963:
  3543     0E5E  0875               	movf	___wmul@product+1,w
  3544     0E5F  00F1               	movwf	?___wmul+1
  3545     0E60  0874               	movf	___wmul@product,w
  3546     0E61  00F0               	movwf	?___wmul
  3547     0E62                     l857:
  3548     0E62  0008               	return
  3549     0E63                     __end_of___wmul:
  3550                           
  3551                           	psect	text2
  3552     0DCB                     __ptext2:	
  3553 ;; *************** function _WDT_Initialize *****************
  3554 ;; Defined at:
  3555 ;;		line 70 in file "mcc_generated_files/mcc.c"
  3556 ;; Parameters:    Size  Location     Type
  3557 ;;		None
  3558 ;; Auto vars:     Size  Location     Type
  3559 ;;		None
  3560 ;; Return value:  Size  Location     Type
  3561 ;;                  1    wreg      void 
  3562 ;; Registers used:
  3563 ;;		None
  3564 ;; Tracked objects:
  3565 ;;		On entry : 0/0
  3566 ;;		On exit  : 0/0
  3567 ;;		Unchanged: 0/0
  3568 ;; Data sizes:     COMMON   BANK0   BANK1   BANK2   BANK3   BANK4   BANK5   BANK6   BANK7   BANK8   BANK9  BANK10  BANK1
      +1  BANK12
  3569 ;;      Params:         0       0       0       0       0       0       0       0       0       0       0       0       
      +0       0
  3570 ;;      Locals:         0       0       0       0       0       0       0       0       0       0       0       0       
      +0       0
  3571 ;;      Temps:          0       0       0       0       0       0       0       0       0       0       0       0       
      +0       0
  3572 ;;      Totals:         0       0       0       0       0       0       0       0       0       0       0       0       
      +0       0
  3573 ;;Total ram usage:        0 bytes
  3574 ;; Hardware stack levels used: 1
  3575 ;; Hardware stack levels required when called: 4
  3576 ;; This function calls:
  3577 ;;		Nothing
  3578 ;; This function is called by:
  3579 ;;		_main
  3580 ;; This function uses a non-reentrant model
  3581 ;;
  3582                           
  3583     0DCB                     _WDT_Initialize:	
  3584                           ;psect for function _WDT_Initialize
  3585                           
  3586     0DCB                     l2699:	
  3587                           ;incstack = 0
  3588                           ; Regs used in _WDT_Initialize: []
  3589                           
  3590                           
  3591                           ;mcc_generated_files/mcc.c: 73:     WDTCON = 0x24;
  3592     0DCB  3024               	movlw	36
  3593     0DCC  0021               	movlb	1	; select bank1
  3594     0DCD  0097               	movwf	23	;volatile
  3595     0DCE                     l17:
  3596     0DCE  0008               	return
  3597     0DCF                     __end_of_WDT_Initialize:
  3598                           
  3599                           	psect	text3
  3600     0428                     __ptext3:	
  3601 ;; *************** function _TesteEnvio *****************
  3602 ;; Defined at:
  3603 ;;		line 258 in file "main.c"
  3604 ;; Parameters:    Size  Location     Type
  3605 ;;		None
  3606 ;; Auto vars:     Size  Location     Type
  3607 ;;		None
  3608 ;; Return value:  Size  Location     Type
  3609 ;;                  1    wreg      void 
  3610 ;; Registers used:
  3611 ;;		wreg, fsr0l, fsr0h, fsr1l, fsr1h, status,2, status,0, pclath, cstack
  3612 ;; Tracked objects:
  3613 ;;		On entry : 0/0
  3614 ;;		On exit  : 0/0
  3615 ;;		Unchanged: 0/0
  3616 ;; Data sizes:     COMMON   BANK0   BANK1   BANK2   BANK3   BANK4   BANK5   BANK6   BANK7   BANK8   BANK9  BANK10  BANK1
      +1  BANK12
  3617 ;;      Params:         0       0       0       0       0       0       0       0       0       0       0       0       
      +0       0
  3618 ;;      Locals:         0       0       0       0       0       0       0       0       0       0       0       0       
      +0       0
  3619 ;;      Temps:          2       0       0       0       0       0       0       0       0       0       0       0       
      +0       0
  3620 ;;      Totals:         2       0       0       0       0       0       0       0       0       0       0       0       
      +0       0
  3621 ;;Total ram usage:        2 bytes
  3622 ;; Hardware stack levels used: 1
  3623 ;; Hardware stack levels required when called: 6
  3624 ;; This function calls:
  3625 ;;		_EUSART_Reset
  3626 ;;		_EUSART_Write
  3627 ;;		_SM_CFOFF
  3628 ;;		_SM_CONFIGRADIO
  3629 ;;		_SM_MODORX
  3630 ;;		___lwdiv
  3631 ;;		___lwmod
  3632 ;; This function is called by:
  3633 ;;		_main
  3634 ;; This function uses a non-reentrant model
  3635 ;;
  3636                           
  3637     0428                     _TesteEnvio:	
  3638                           ;psect for function _TesteEnvio
  3639                           
  3640     0428                     l2885:	
  3641                           ;incstack = 0
  3642                           ; Regs used in _TesteEnvio: [wreg-fsr1h+status,2+status,0+pclath+cstack]
  3643                           
  3644                           
  3645                           ;main.c: 260:     while (PORTBbits.RB0==0)
  3646     0428  2C45               	goto	l2891
  3647     0429                     l583:	
  3648                           ;main.c: 261:     { do { LATAbits.LATA7 = 1; } while(0); _delay((unsigned long)((50)*(16
      +                          000000/4000.0))); do { LATAbits.LATA7 = 0; } while(0); _delay((unsigned long)((50)*(1600
      +                          0000/4000.0))); }
  3649                           
  3650     0429  0022               	movlb	2	; select bank2
  3651     042A  178C               	bsf	12,7	;volatile
  3652     042B                     l2887:
  3653     042B  3002               	movlw	2
  3654     042C  00F8               	movwf	??_TesteEnvio+1
  3655     042D  3004               	movlw	4
  3656     042E  00F7               	movwf	??_TesteEnvio
  3657     042F  30BA               	movlw	186
  3658     0430                     u2217:
  3659     0430  0B89               	decfsz	9,f
  3660     0431  2C30               	goto	u2217
  3661     0432  0BF7               	decfsz	??_TesteEnvio,f
  3662     0433  2C30               	goto	u2217
  3663     0434  0BF8               	decfsz	??_TesteEnvio+1,f
  3664     0435  2C30               	goto	u2217
  3665     0436  3200               	nop2
  3666     0437                     l2889:
  3667     0437  0022               	movlb	2	; select bank2
  3668     0438  138C               	bcf	12,7	;volatile
  3669     0439                     l586:
  3670     0439  3002               	movlw	2
  3671     043A  00F8               	movwf	??_TesteEnvio+1
  3672     043B  3004               	movlw	4
  3673     043C  00F7               	movwf	??_TesteEnvio
  3674     043D  30BA               	movlw	186
  3675     043E                     u2227:
  3676     043E  0B89               	decfsz	9,f
  3677     043F  2C3E               	goto	u2227
  3678     0440  0BF7               	decfsz	??_TesteEnvio,f
  3679     0441  2C3E               	goto	u2227
  3680     0442  0BF8               	decfsz	??_TesteEnvio+1,f
  3681     0443  2C3E               	goto	u2227
  3682     0444  3200               	nop2
  3683     0445                     l2891:
  3684                           
  3685                           ;main.c: 260:     while (PORTBbits.RB0==0)
  3686     0445  0020               	movlb	0	; select bank0
  3687     0446  1C0D               	btfss	13,0	;volatile
  3688     0447  2C49               	goto	u1621
  3689     0448  2C4A               	goto	u1620
  3690     0449                     u1621:
  3691     0449  2C29               	goto	l583
  3692     044A                     u1620:
  3693     044A                     l588:	
  3694                           ;main.c: 263:     do { LATAbits.LATA7 = 1; } while(0);
  3695                           
  3696     044A  0022               	movlb	2	; select bank2
  3697     044B  178C               	bsf	12,7	;volatile
  3698     044C                     l2893:
  3699                           
  3700                           ;main.c: 265:     SM_CFOFF();
  3701     044C  318E  26DB  3184   	fcall	_SM_CFOFF
  3702     044F                     l2895:
  3703                           
  3704                           ;main.c: 266:     __nop();
  3705     044F  0000               	nop
  3706                           
  3707                           ;main.c: 267:     SM_CONFIGRADIO(22);
  3708     0450  3016               	movlw	22
  3709     0451  318F  2706  3184   	fcall	_SM_CONFIGRADIO
  3710     0454                     l2897:
  3711                           
  3712                           ;main.c: 268:     __nop();
  3713     0454  0000               	nop
  3714     0455                     l2899:
  3715                           
  3716                           ;main.c: 271:     ENDERECO = 9001;
  3717     0455  3029               	movlw	41
  3718     0456  0020               	movlb	0	; select bank0
  3719     0457  00B2               	movwf	_ENDERECO
  3720     0458  3023               	movlw	35
  3721     0459  00B3               	movwf	_ENDERECO+1
  3722     045A                     l2901:
  3723                           
  3724                           ;main.c: 272:     endereco_M = (uint8_t)(ENDERECO/1000);
  3725     045A  30E8               	movlw	232
  3726     045B  00F0               	movwf	___lwdiv@divisor
  3727     045C  3003               	movlw	3
  3728     045D  00F1               	movwf	___lwdiv@divisor+1
  3729     045E  0833               	movf	_ENDERECO+1,w
  3730     045F  00F3               	movwf	___lwdiv@dividend+1
  3731     0460  0832               	movf	_ENDERECO,w
  3732     0461  00F2               	movwf	___lwdiv@dividend
  3733     0462  318F  27C6  3184   	fcall	___lwdiv
  3734     0465  0870               	movf	?___lwdiv,w
  3735     0466  0020               	movlb	0	; select bank0
  3736     0467  00C1               	movwf	_endereco_M	;volatile
  3737     0468                     l2903:
  3738                           
  3739                           ;main.c: 273:     temp16 = ENDERECO%1000;
  3740     0468  30E8               	movlw	232
  3741     0469  00F0               	movwf	___lwmod@divisor
  3742     046A  3003               	movlw	3
  3743     046B  00F1               	movwf	___lwmod@divisor+1
  3744     046C  0833               	movf	_ENDERECO+1,w
  3745     046D  00F3               	movwf	___lwmod@dividend+1
  3746     046E  0832               	movf	_ENDERECO,w
  3747     046F  00F2               	movwf	___lwmod@dividend
  3748     0470  318F  275F  3184   	fcall	___lwmod
  3749     0473  0871               	movf	?___lwmod+1,w
  3750     0474  0020               	movlb	0	; select bank0
  3751     0475  00AB               	movwf	_temp16+1
  3752     0476  0870               	movf	?___lwmod,w
  3753     0477  00AA               	movwf	_temp16
  3754     0478                     l2905:
  3755                           
  3756                           ;main.c: 274:     endereco_C = (uint8_t)(temp16/100);
  3757     0478  3064               	movlw	100
  3758     0479  00F0               	movwf	___lwdiv@divisor
  3759     047A  3000               	movlw	0
  3760     047B  00F1               	movwf	___lwdiv@divisor+1
  3761     047C  082B               	movf	_temp16+1,w
  3762     047D  00F3               	movwf	___lwdiv@dividend+1
  3763     047E  082A               	movf	_temp16,w
  3764     047F  00F2               	movwf	___lwdiv@dividend
  3765     0480  318F  27C6  3184   	fcall	___lwdiv
  3766     0483  0870               	movf	?___lwdiv,w
  3767     0484  0020               	movlb	0	; select bank0
  3768     0485  00C0               	movwf	_endereco_C	;volatile
  3769     0486                     l2907:
  3770                           
  3771                           ;main.c: 275:     temp16 = temp16%100;
  3772     0486  3064               	movlw	100
  3773     0487  00F0               	movwf	___lwmod@divisor
  3774     0488  3000               	movlw	0
  3775     0489  00F1               	movwf	___lwmod@divisor+1
  3776     048A  082B               	movf	_temp16+1,w
  3777     048B  00F3               	movwf	___lwmod@dividend+1
  3778     048C  082A               	movf	_temp16,w
  3779     048D  00F2               	movwf	___lwmod@dividend
  3780     048E  318F  275F  3184   	fcall	___lwmod
  3781     0491  0871               	movf	?___lwmod+1,w
  3782     0492  0020               	movlb	0	; select bank0
  3783     0493  00AB               	movwf	_temp16+1
  3784     0494  0870               	movf	?___lwmod,w
  3785     0495  00AA               	movwf	_temp16
  3786     0496                     l2909:
  3787                           
  3788                           ;main.c: 276:     endereco_D = (uint8_t)(temp16/10);
  3789     0496  300A               	movlw	10
  3790     0497  00F0               	movwf	___lwdiv@divisor
  3791     0498  3000               	movlw	0
  3792     0499  00F1               	movwf	___lwdiv@divisor+1
  3793     049A  082B               	movf	_temp16+1,w
  3794     049B  00F3               	movwf	___lwdiv@dividend+1
  3795     049C  082A               	movf	_temp16,w
  3796     049D  00F2               	movwf	___lwdiv@dividend
  3797     049E  318F  27C6  3184   	fcall	___lwdiv
  3798     04A1  0870               	movf	?___lwdiv,w
  3799     04A2  0020               	movlb	0	; select bank0
  3800     04A3  00BF               	movwf	_endereco_D	;volatile
  3801     04A4                     l2911:
  3802                           
  3803                           ;main.c: 277:     endereco_U = (uint8_t)(temp16%10);
  3804     04A4  300A               	movlw	10
  3805     04A5  00F0               	movwf	___lwmod@divisor
  3806     04A6  3000               	movlw	0
  3807     04A7  00F1               	movwf	___lwmod@divisor+1
  3808     04A8  082B               	movf	_temp16+1,w
  3809     04A9  00F3               	movwf	___lwmod@dividend+1
  3810     04AA  082A               	movf	_temp16,w
  3811     04AB  00F2               	movwf	___lwmod@dividend
  3812     04AC  318F  275F  3184   	fcall	___lwmod
  3813     04AF  0870               	movf	?___lwmod,w
  3814     04B0  0020               	movlb	0	; select bank0
  3815     04B1  00BE               	movwf	_endereco_U	;volatile
  3816     04B2                     l2913:
  3817                           
  3818                           ;main.c: 279:     endereco_M += 48;
  3819     04B2  3030               	movlw	48
  3820     04B3  07C1               	addwf	_endereco_M,f	;volatile
  3821     04B4                     l2915:
  3822                           
  3823                           ;main.c: 280:     endereco_C += 48;
  3824     04B4  3030               	movlw	48
  3825     04B5  07C0               	addwf	_endereco_C,f	;volatile
  3826     04B6                     l2917:
  3827                           
  3828                           ;main.c: 281:     endereco_D += 48;
  3829     04B6  3030               	movlw	48
  3830     04B7  07BF               	addwf	_endereco_D,f	;volatile
  3831     04B8                     l2919:
  3832                           
  3833                           ;main.c: 282:     endereco_U += 48;
  3834     04B8  3030               	movlw	48
  3835     04B9  07BE               	addwf	_endereco_U,f	;volatile
  3836     04BA                     l2921:
  3837                           
  3838                           ;main.c: 283:     __nop();
  3839     04BA  0000               	nop
  3840     04BB                     l2923:
  3841                           
  3842                           ;main.c: 285:     EUSART_Reset();
  3843     04BB  318F  2791  3184   	fcall	_EUSART_Reset
  3844     04BE                     l2925:
  3845                           
  3846                           ;main.c: 286:     for (loop=0; _TXSTART22[loop]!=0; loop++) EUSART_Write (_TXSTART22[loo
      +                          p]);
  3847     04BE  01FB               	clrf	_loop
  3848     04BF  2CCD               	goto	l2931
  3849     04C0                     l2927:
  3850     04C0  087B               	movf	_loop,w
  3851     04C1  3E4E               	addlw	low (__TXSTART22| (0+32768))
  3852     04C2  0084               	movwf	4
  3853     04C3  3090               	movlw	high (__TXSTART22| (0+32768))
  3854     04C4  1803               	skipnc
  3855     04C5  3E01               	addlw	1
  3856     04C6  0085               	movwf	5
  3857     04C7  0800               	movf	0,w	;code access
  3858     04C8  318E  2688  3184   	fcall	_EUSART_Write
  3859     04CB                     l2929:
  3860     04CB  3001               	movlw	1
  3861     04CC  07FB               	addwf	_loop,f
  3862     04CD                     l2931:
  3863     04CD  087B               	movf	_loop,w
  3864     04CE  3E4E               	addlw	low (__TXSTART22| (0+32768))
  3865     04CF  0084               	movwf	4
  3866     04D0  3090               	movlw	high (__TXSTART22| (0+32768))
  3867     04D1  1803               	skipnc
  3868     04D2  3E01               	addlw	1
  3869     04D3  0085               	movwf	5
  3870     04D4  0012               	moviw fsr0++
  3871     04D5  1D03               	btfss	3,2
  3872     04D6  2CD8               	goto	u1631
  3873     04D7  2CD9               	goto	u1630
  3874     04D8                     u1631:
  3875     04D8  2CC0               	goto	l2927
  3876     04D9                     u1630:
  3877     04D9                     l2933:
  3878                           
  3879                           ;main.c: 287:     EUSART_Write('S');
  3880     04D9  3053               	movlw	83
  3881     04DA  318E  2688  3184   	fcall	_EUSART_Write
  3882                           
  3883                           ;main.c: 288:     EUSART_Write('i');
  3884     04DD  3069               	movlw	105
  3885     04DE  318E  2688  3184   	fcall	_EUSART_Write
  3886                           
  3887                           ;main.c: 289:     EUSART_Write('r');
  3888     04E1  3072               	movlw	114
  3889     04E2  318E  2688  3184   	fcall	_EUSART_Write
  3890                           
  3891                           ;main.c: 290:     EUSART_Write('e');
  3892     04E5  3065               	movlw	101
  3893     04E6  318E  2688  3184   	fcall	_EUSART_Write
  3894                           
  3895                           ;main.c: 291:     EUSART_Write('n');
  3896     04E9  306E               	movlw	110
  3897     04EA  318E  2688  3184   	fcall	_EUSART_Write
  3898                           
  3899                           ;main.c: 292:     EUSART_Write('e');
  3900     04ED  3065               	movlw	101
  3901     04EE  318E  2688  3184   	fcall	_EUSART_Write
  3902                           
  3903                           ;main.c: 293:     EUSART_Write(':');
  3904     04F1  303A               	movlw	58
  3905     04F2  318E  2688  3184   	fcall	_EUSART_Write
  3906                           
  3907                           ;main.c: 294:     EUSART_Write(' ');
  3908     04F5  3020               	movlw	32
  3909     04F6  318E  2688  3184   	fcall	_EUSART_Write
  3910                           
  3911                           ;main.c: 295:     EUSART_Write(endereco_M);
  3912     04F9  0020               	movlb	0	; select bank0
  3913     04FA  0841               	movf	_endereco_M,w	;volatile
  3914     04FB  318E  2688  3184   	fcall	_EUSART_Write
  3915                           
  3916                           ;main.c: 296:     EUSART_Write(endereco_C);
  3917     04FE  0020               	movlb	0	; select bank0
  3918     04FF  0840               	movf	_endereco_C,w	;volatile
  3919     0500  318E  2688  3184   	fcall	_EUSART_Write
  3920                           
  3921                           ;main.c: 297:     EUSART_Write(endereco_D);
  3922     0503  0020               	movlb	0	; select bank0
  3923     0504  083F               	movf	_endereco_D,w	;volatile
  3924     0505  318E  2688  3184   	fcall	_EUSART_Write
  3925                           
  3926                           ;main.c: 298:     EUSART_Write(endereco_U);
  3927     0508  0020               	movlb	0	; select bank0
  3928     0509  083E               	movf	_endereco_U,w	;volatile
  3929     050A  318E  2688  3184   	fcall	_EUSART_Write
  3930                           
  3931                           ;main.c: 299:     EUSART_Write (0x0D);
  3932     050D  300D               	movlw	13
  3933     050E  318E  2688  3184   	fcall	_EUSART_Write
  3934     0511                     l2935:
  3935                           
  3936                           ;main.c: 300:     _delay((unsigned long)((2000)*(16000000/4000.0)));
  3937     0511  3029               	movlw	41
  3938     0512  00F8               	movwf	??_TesteEnvio+1
  3939     0513  3096               	movlw	150
  3940     0514  00F7               	movwf	??_TesteEnvio
  3941     0515  307F               	movlw	127
  3942     0516                     u2237:
  3943     0516  0B89               	decfsz	9,f
  3944     0517  2D16               	goto	u2237
  3945     0518  0BF7               	decfsz	??_TesteEnvio,f
  3946     0519  2D16               	goto	u2237
  3947     051A  0BF8               	decfsz	??_TesteEnvio+1,f
  3948     051B  2D16               	goto	u2237
  3949     051C  0000               	nop
  3950     051D                     l2937:
  3951                           
  3952                           ;main.c: 303:     SM_CFOFF();
  3953     051D  318E  26DB  3184   	fcall	_SM_CFOFF
  3954     0520                     l2939:
  3955                           
  3956                           ;main.c: 304:     SM_CONFIGRADIO(22);
  3957     0520  3016               	movlw	22
  3958     0521  318F  2706  3184   	fcall	_SM_CONFIGRADIO
  3959     0524                     l2941:
  3960                           
  3961                           ;main.c: 305:     SM_MODORX(22);
  3962     0524  3016               	movlw	22
  3963     0525  318F  2731  3184   	fcall	_SM_MODORX
  3964     0528                     l2943:
  3965                           
  3966                           ;main.c: 306:     SM_CFOFF();
  3967     0528  318E  26DB  3184   	fcall	_SM_CFOFF
  3968     052B                     l2945:
  3969                           
  3970                           ;main.c: 307:     SM_CONFIGRADIO(22);
  3971     052B  3016               	movlw	22
  3972     052C  318F  2706  3184   	fcall	_SM_CONFIGRADIO
  3973     052F                     l2947:
  3974                           
  3975                           ;main.c: 308:     SM_MODORX(22);
  3976     052F  3016               	movlw	22
  3977     0530  318F  2731  3184   	fcall	_SM_MODORX
  3978     0533                     l2949:
  3979                           
  3980                           ;main.c: 309:     __nop();
  3981     0533  0000               	nop
  3982     0534                     l2951:
  3983     0534  0022               	movlb	2	; select bank2
  3984     0535  138C               	bcf	12,7	;volatile
  3985     0536                     l595:
  3986     0536  0008               	return
  3987     0537                     __end_of_TesteEnvio:
  3988                           
  3989                           	psect	text4
  3990     0F5F                     __ptext4:	
  3991 ;; *************** function ___lwmod *****************
  3992 ;; Defined at:
  3993 ;;		line 5 in file "C:\Program Files\Microchip\xc8\v2.50\pic\sources\c99\common\lwmod.c"
  3994 ;; Parameters:    Size  Location     Type
  3995 ;;  divisor         2    0[COMMON] unsigned int 
  3996 ;;  dividend        2    2[COMMON] unsigned int 
  3997 ;; Auto vars:     Size  Location     Type
  3998 ;;  counter         1    4[COMMON] unsigned char 
  3999 ;; Return value:  Size  Location     Type
  4000 ;;                  2    0[COMMON] unsigned int 
  4001 ;; Registers used:
  4002 ;;		wreg, status,2, status,0
  4003 ;; Tracked objects:
  4004 ;;		On entry : 0/0
  4005 ;;		On exit  : 0/0
  4006 ;;		Unchanged: 0/0
  4007 ;; Data sizes:     COMMON   BANK0   BANK1   BANK2   BANK3   BANK4   BANK5   BANK6   BANK7   BANK8   BANK9  BANK10  BANK1
      +1  BANK12
  4008 ;;      Params:         4       0       0       0       0       0       0       0       0       0       0       0       
      +0       0
  4009 ;;      Locals:         1       0       0       0       0       0       0       0       0       0       0       0       
      +0       0
  4010 ;;      Temps:          0       0       0       0       0       0       0       0       0       0       0       0       
      +0       0
  4011 ;;      Totals:         5       0       0       0       0       0       0       0       0       0       0       0       
      +0       0
  4012 ;;Total ram usage:        5 bytes
  4013 ;; Hardware stack levels used: 1
  4014 ;; Hardware stack levels required when called: 4
  4015 ;; This function calls:
  4016 ;;		Nothing
  4017 ;; This function is called by:
  4018 ;;		_TesteEnvio
  4019 ;;		_main
  4020 ;; This function uses a non-reentrant model
  4021 ;;
  4022                           
  4023     0F5F                     ___lwmod:	
  4024                           ;psect for function ___lwmod
  4025                           
  4026     0F5F                     l2673:	
  4027                           ;incstack = 0
  4028                           ; Regs used in ___lwmod: [wreg+status,2+status,0]
  4029                           
  4030     0F5F  0870               	movf	___lwmod@divisor,w
  4031     0F60  0471               	iorwf	___lwmod@divisor+1,w
  4032     0F61  1903               	btfsc	3,2
  4033     0F62  2F64               	goto	u1471
  4034     0F63  2F65               	goto	u1470
  4035     0F64                     u1471:
  4036     0F64  2F8C               	goto	l2691
  4037     0F65                     u1470:
  4038     0F65                     l2675:
  4039     0F65  3001               	movlw	1
  4040     0F66  00F4               	movwf	___lwmod@counter
  4041     0F67  2F6F               	goto	l2681
  4042     0F68                     l2677:
  4043     0F68  3001               	movlw	1
  4044     0F69                     u1485:
  4045     0F69  35F0               	lslf	___lwmod@divisor,f
  4046     0F6A  0DF1               	rlf	___lwmod@divisor+1,f
  4047     0F6B  0B89               	decfsz	9,f
  4048     0F6C  2F69               	goto	u1485
  4049     0F6D                     l2679:
  4050     0F6D  3001               	movlw	1
  4051     0F6E  07F4               	addwf	___lwmod@counter,f
  4052     0F6F                     l2681:
  4053     0F6F  1FF1               	btfss	___lwmod@divisor+1,7
  4054     0F70  2F72               	goto	u1491
  4055     0F71  2F73               	goto	u1490
  4056     0F72                     u1491:
  4057     0F72  2F68               	goto	l2677
  4058     0F73                     u1490:
  4059     0F73                     l2683:
  4060     0F73  0871               	movf	___lwmod@divisor+1,w
  4061     0F74  0273               	subwf	___lwmod@dividend+1,w
  4062     0F75  1D03               	skipz
  4063     0F76  2F79               	goto	u1505
  4064     0F77  0870               	movf	___lwmod@divisor,w
  4065     0F78  0272               	subwf	___lwmod@dividend,w
  4066     0F79                     u1505:
  4067     0F79  1C03               	skipc
  4068     0F7A  2F7C               	goto	u1501
  4069     0F7B  2F7D               	goto	u1500
  4070     0F7C                     u1501:
  4071     0F7C  2F81               	goto	l2687
  4072     0F7D                     u1500:
  4073     0F7D                     l2685:
  4074     0F7D  0870               	movf	___lwmod@divisor,w
  4075     0F7E  02F2               	subwf	___lwmod@dividend,f
  4076     0F7F  0871               	movf	___lwmod@divisor+1,w
  4077     0F80  3BF3               	subwfb	___lwmod@dividend+1,f
  4078     0F81                     l2687:
  4079     0F81  3001               	movlw	1
  4080     0F82                     u1515:
  4081     0F82  36F1               	lsrf	___lwmod@divisor+1,f
  4082     0F83  0CF0               	rrf	___lwmod@divisor,f
  4083     0F84  0B89               	decfsz	9,f
  4084     0F85  2F82               	goto	u1515
  4085     0F86                     l2689:
  4086     0F86  3001               	movlw	1
  4087     0F87  02F4               	subwf	___lwmod@counter,f
  4088     0F88  1D03               	btfss	3,2
  4089     0F89  2F8B               	goto	u1521
  4090     0F8A  2F8C               	goto	u1520
  4091     0F8B                     u1521:
  4092     0F8B  2F73               	goto	l2683
  4093     0F8C                     u1520:
  4094     0F8C                     l2691:
  4095     0F8C  0873               	movf	___lwmod@dividend+1,w
  4096     0F8D  00F1               	movwf	?___lwmod+1
  4097     0F8E  0872               	movf	___lwmod@dividend,w
  4098     0F8F  00F0               	movwf	?___lwmod
  4099     0F90                     l1145:
  4100     0F90  0008               	return
  4101     0F91                     __end_of___lwmod:
  4102                           
  4103                           	psect	text5
  4104     0FC6                     __ptext5:	
  4105 ;; *************** function ___lwdiv *****************
  4106 ;; Defined at:
  4107 ;;		line 5 in file "C:\Program Files\Microchip\xc8\v2.50\pic\sources\c99\common\lwdiv.c"
  4108 ;; Parameters:    Size  Location     Type
  4109 ;;  divisor         2    0[COMMON] unsigned int 
  4110 ;;  dividend        2    2[COMMON] unsigned int 
  4111 ;; Auto vars:     Size  Location     Type
  4112 ;;  quotient        2    4[COMMON] unsigned int 
  4113 ;;  counter         1    6[COMMON] unsigned char 
  4114 ;; Return value:  Size  Location     Type
  4115 ;;                  2    0[COMMON] unsigned int 
  4116 ;; Registers used:
  4117 ;;		wreg, status,2, status,0
  4118 ;; Tracked objects:
  4119 ;;		On entry : 0/0
  4120 ;;		On exit  : 0/0
  4121 ;;		Unchanged: 0/0
  4122 ;; Data sizes:     COMMON   BANK0   BANK1   BANK2   BANK3   BANK4   BANK5   BANK6   BANK7   BANK8   BANK9  BANK10  BANK1
      +1  BANK12
  4123 ;;      Params:         4       0       0       0       0       0       0       0       0       0       0       0       
      +0       0
  4124 ;;      Locals:         3       0       0       0       0       0       0       0       0       0       0       0       
      +0       0
  4125 ;;      Temps:          0       0       0       0       0       0       0       0       0       0       0       0       
      +0       0
  4126 ;;      Totals:         7       0       0       0       0       0       0       0       0       0       0       0       
      +0       0
  4127 ;;Total ram usage:        7 bytes
  4128 ;; Hardware stack levels used: 1
  4129 ;; Hardware stack levels required when called: 4
  4130 ;; This function calls:
  4131 ;;		Nothing
  4132 ;; This function is called by:
  4133 ;;		_TesteEnvio
  4134 ;;		_main
  4135 ;; This function uses a non-reentrant model
  4136 ;;
  4137                           
  4138     0FC6                     ___lwdiv:	
  4139                           ;psect for function ___lwdiv
  4140                           
  4141     0FC6                     l2647:	
  4142                           ;incstack = 0
  4143                           ; Regs used in ___lwdiv: [wreg+status,2+status,0]
  4144                           
  4145     0FC6  01F4               	clrf	___lwdiv@quotient
  4146     0FC7  01F5               	clrf	___lwdiv@quotient+1
  4147     0FC8                     l2649:
  4148     0FC8  0870               	movf	___lwdiv@divisor,w
  4149     0FC9  0471               	iorwf	___lwdiv@divisor+1,w
  4150     0FCA  1903               	btfsc	3,2
  4151     0FCB  2FCD               	goto	u1401
  4152     0FCC  2FCE               	goto	u1400
  4153     0FCD                     u1401:
  4154     0FCD  2FFB               	goto	l2669
  4155     0FCE                     u1400:
  4156     0FCE                     l2651:
  4157     0FCE  3001               	movlw	1
  4158     0FCF  00F6               	movwf	___lwdiv@counter
  4159     0FD0  2FD8               	goto	l2657
  4160     0FD1                     l2653:
  4161     0FD1  3001               	movlw	1
  4162     0FD2                     u1415:
  4163     0FD2  35F0               	lslf	___lwdiv@divisor,f
  4164     0FD3  0DF1               	rlf	___lwdiv@divisor+1,f
  4165     0FD4  0B89               	decfsz	9,f
  4166     0FD5  2FD2               	goto	u1415
  4167     0FD6                     l2655:
  4168     0FD6  3001               	movlw	1
  4169     0FD7  07F6               	addwf	___lwdiv@counter,f
  4170     0FD8                     l2657:
  4171     0FD8  1FF1               	btfss	___lwdiv@divisor+1,7
  4172     0FD9  2FDB               	goto	u1421
  4173     0FDA  2FDC               	goto	u1420
  4174     0FDB                     u1421:
  4175     0FDB  2FD1               	goto	l2653
  4176     0FDC                     u1420:
  4177     0FDC                     l2659:
  4178     0FDC  3001               	movlw	1
  4179     0FDD                     u1435:
  4180     0FDD  35F4               	lslf	___lwdiv@quotient,f
  4181     0FDE  0DF5               	rlf	___lwdiv@quotient+1,f
  4182     0FDF  0B89               	decfsz	9,f
  4183     0FE0  2FDD               	goto	u1435
  4184     0FE1  0871               	movf	___lwdiv@divisor+1,w
  4185     0FE2  0273               	subwf	___lwdiv@dividend+1,w
  4186     0FE3  1D03               	skipz
  4187     0FE4  2FE7               	goto	u1445
  4188     0FE5  0870               	movf	___lwdiv@divisor,w
  4189     0FE6  0272               	subwf	___lwdiv@dividend,w
  4190     0FE7                     u1445:
  4191     0FE7  1C03               	skipc
  4192     0FE8  2FEA               	goto	u1441
  4193     0FE9  2FEB               	goto	u1440
  4194     0FEA                     u1441:
  4195     0FEA  2FF0               	goto	l2665
  4196     0FEB                     u1440:
  4197     0FEB                     l2661:
  4198     0FEB  0870               	movf	___lwdiv@divisor,w
  4199     0FEC  02F2               	subwf	___lwdiv@dividend,f
  4200     0FED  0871               	movf	___lwdiv@divisor+1,w
  4201     0FEE  3BF3               	subwfb	___lwdiv@dividend+1,f
  4202     0FEF                     l2663:
  4203     0FEF  1474               	bsf	___lwdiv@quotient,0
  4204     0FF0                     l2665:
  4205     0FF0  3001               	movlw	1
  4206     0FF1                     u1455:
  4207     0FF1  36F1               	lsrf	___lwdiv@divisor+1,f
  4208     0FF2  0CF0               	rrf	___lwdiv@divisor,f
  4209     0FF3  0B89               	decfsz	9,f
  4210     0FF4  2FF1               	goto	u1455
  4211     0FF5                     l2667:
  4212     0FF5  3001               	movlw	1
  4213     0FF6  02F6               	subwf	___lwdiv@counter,f
  4214     0FF7  1D03               	btfss	3,2
  4215     0FF8  2FFA               	goto	u1461
  4216     0FF9  2FFB               	goto	u1460
  4217     0FFA                     u1461:
  4218     0FFA  2FDC               	goto	l2659
  4219     0FFB                     u1460:
  4220     0FFB                     l2669:
  4221     0FFB  0875               	movf	___lwdiv@quotient+1,w
  4222     0FFC  00F1               	movwf	?___lwdiv+1
  4223     0FFD  0874               	movf	___lwdiv@quotient,w
  4224     0FFE  00F0               	movwf	?___lwdiv
  4225     0FFF                     l1135:
  4226     0FFF  0008               	return
  4227     1000                     __end_of___lwdiv:
  4228                           
  4229                           	psect	text6
  4230     0F31                     __ptext6:	
  4231 ;; *************** function _SM_MODORX *****************
  4232 ;; Defined at:
  4233 ;;		line 174 in file "main.c"
  4234 ;; Parameters:    Size  Location     Type
  4235 ;;  ch              1    wreg     unsigned char 
  4236 ;; Auto vars:     Size  Location     Type
  4237 ;;  ch              1    0[COMMON] unsigned char 
  4238 ;; Return value:  Size  Location     Type
  4239 ;;                  1    wreg      void 
  4240 ;; Registers used:
  4241 ;;		wreg, fsr0l, fsr0h, fsr1l, fsr1h, status,2, status,0, pclath, cstack
  4242 ;; Tracked objects:
  4243 ;;		On entry : 0/0
  4244 ;;		On exit  : 0/0
  4245 ;;		Unchanged: 0/0
  4246 ;; Data sizes:     COMMON   BANK0   BANK1   BANK2   BANK3   BANK4   BANK5   BANK6   BANK7   BANK8   BANK9  BANK10  BANK1
      +1  BANK12
  4247 ;;      Params:         0       0       0       0       0       0       0       0       0       0       0       0       
      +0       0
  4248 ;;      Locals:         0       0       0       0       0       0       0       0       0       0       0       0       
      +0       0
  4249 ;;      Temps:          2       0       0       0       0       0       0       0       0       0       0       0       
      +0       0
  4250 ;;      Totals:         2       0       0       0       0       0       0       0       0       0       0       0       
      +0       0
  4251 ;;Total ram usage:        2 bytes
  4252 ;; Hardware stack levels used: 1
  4253 ;; Hardware stack levels required when called: 5
  4254 ;; This function calls:
  4255 ;;		_EUSART_Reset
  4256 ;;		_EUSART_Write
  4257 ;; This function is called by:
  4258 ;;		_TesteEnvio
  4259 ;;		_main
  4260 ;; This function uses a non-reentrant model
  4261 ;;
  4262                           
  4263     0F31                     _SM_MODORX:	
  4264                           ;psect for function _SM_MODORX
  4265                           
  4266     0F31                     l2621:	
  4267                           ;incstack = 0
  4268                           ; Regs used in _SM_MODORX: [wreg-fsr1h+status,2+status,0+pclath+cstack]
  4269                           
  4270                           
  4271                           ;main.c: 174: void SM_MODORX(uint8_t ch);main.c: 175: {;main.c: 176:     EUSART_Reset();
  4272     0F31  318F  2791  318F   	fcall	_EUSART_Reset
  4273     0F34                     l2623:
  4274                           
  4275                           ;main.c: 177:     for (loop=0; _RXC22[loop]!=0; loop++) EUSART_Write (_RXC22[loop]);
  4276     0F34  01FB               	clrf	_loop
  4277     0F35  2F43               	goto	l2629
  4278     0F36                     l2625:
  4279     0F36  087B               	movf	_loop,w
  4280     0F37  3E3B               	addlw	low (__RXC22| (0+32768))
  4281     0F38  0084               	movwf	4
  4282     0F39  3090               	movlw	high (__RXC22| (0+32768))
  4283     0F3A  1803               	skipnc
  4284     0F3B  3E01               	addlw	1
  4285     0F3C  0085               	movwf	5
  4286     0F3D  0800               	movf	0,w	;code access
  4287     0F3E  318E  2688  318F   	fcall	_EUSART_Write
  4288     0F41                     l2627:
  4289     0F41  3001               	movlw	1
  4290     0F42  07FB               	addwf	_loop,f
  4291     0F43                     l2629:
  4292     0F43  087B               	movf	_loop,w
  4293     0F44  3E3B               	addlw	low (__RXC22| (0+32768))
  4294     0F45  0084               	movwf	4
  4295     0F46  3090               	movlw	high (__RXC22| (0+32768))
  4296     0F47  1803               	skipnc
  4297     0F48  3E01               	addlw	1
  4298     0F49  0085               	movwf	5
  4299     0F4A  0012               	moviw fsr0++
  4300     0F4B  1D03               	btfss	3,2
  4301     0F4C  2F4E               	goto	u1381
  4302     0F4D  2F4F               	goto	u1380
  4303     0F4E                     u1381:
  4304     0F4E  2F36               	goto	l2625
  4305     0F4F                     u1380:
  4306     0F4F                     l2631:
  4307                           
  4308                           ;main.c: 178:     _delay((unsigned long)((100)*(16000000/4000.0)));
  4309     0F4F  3003               	movlw	3
  4310     0F50  00F2               	movwf	??_SM_MODORX+1
  4311     0F51  3008               	movlw	8
  4312     0F52  00F1               	movwf	??_SM_MODORX
  4313     0F53  3077               	movlw	119
  4314     0F54                     u2247:
  4315     0F54  0B89               	decfsz	9,f
  4316     0F55  2F54               	goto	u2247
  4317     0F56  0BF1               	decfsz	??_SM_MODORX,f
  4318     0F57  2F54               	goto	u2247
  4319     0F58  0BF2               	decfsz	??_SM_MODORX+1,f
  4320     0F59  2F54               	goto	u2247
  4321     0F5A  0000               	nop
  4322     0F5B                     l2633:
  4323                           
  4324                           ;main.c: 179:     EUSART_Reset();
  4325     0F5B  318F  2791  318F   	fcall	_EUSART_Reset
  4326     0F5E                     l546:
  4327     0F5E  0008               	return
  4328     0F5F                     __end_of_SM_MODORX:
  4329                           
  4330                           	psect	text7
  4331     0626                     __ptext7:	
  4332 ;; *************** function _TX_Lora *****************
  4333 ;; Defined at:
  4334 ;;		line 216 in file "main.c"
  4335 ;; Parameters:    Size  Location     Type
  4336 ;;		None
  4337 ;; Auto vars:     Size  Location     Type
  4338 ;;		None
  4339 ;; Return value:  Size  Location     Type
  4340 ;;                  1    wreg      void 
  4341 ;; Registers used:
  4342 ;;		wreg, fsr0l, fsr0h, fsr1l, fsr1h, status,2, status,0, pclath, cstack
  4343 ;; Tracked objects:
  4344 ;;		On entry : 0/0
  4345 ;;		On exit  : 0/0
  4346 ;;		Unchanged: 0/0
  4347 ;; Data sizes:     COMMON   BANK0   BANK1   BANK2   BANK3   BANK4   BANK5   BANK6   BANK7   BANK8   BANK9  BANK10  BANK1
      +1  BANK12
  4348 ;;      Params:         0       0       0       0       0       0       0       0       0       0       0       0       
      +0       0
  4349 ;;      Locals:         0       0       0       0       0       0       0       0       0       0       0       0       
      +0       0
  4350 ;;      Temps:          1       0       0       0       0       0       0       0       0       0       0       0       
      +0       0
  4351 ;;      Totals:         1       0       0       0       0       0       0       0       0       0       0       0       
      +0       0
  4352 ;;Total ram usage:        1 bytes
  4353 ;; Hardware stack levels used: 1
  4354 ;; Hardware stack levels required when called: 6
  4355 ;; This function calls:
  4356 ;;		_EUSART_Reset
  4357 ;;		_EUSART_Write
  4358 ;;		_Espera_TxOk
  4359 ;;		_ModuloOn
  4360 ;;		_SM_CFOFF
  4361 ;;		_SM_CONFIGRADIO
  4362 ;; This function is called by:
  4363 ;;		_main
  4364 ;; This function uses a non-reentrant model
  4365 ;;
  4366                           
  4367     0626                     _TX_Lora:	
  4368                           ;psect for function _TX_Lora
  4369                           
  4370     0626                     l2855:	
  4371                           ;incstack = 0
  4372                           ; Regs used in _TX_Lora: [wreg-fsr1h+status,2+status,0+pclath+cstack]
  4373                           
  4374                           
  4375                           ;main.c: 218:     __nop();
  4376     0626  0000               	nop
  4377     0627                     l571:	
  4378                           ;main.c: 220:     do { LATAbits.LATA7 = 1; } while(0);
  4379                           
  4380     0627  0022               	movlb	2	; select bank2
  4381     0628  178C               	bsf	12,7	;volatile
  4382     0629                     l2857:
  4383                           
  4384                           ;main.c: 223:     ModuloOn();
  4385     0629  318E  2663  3186   	fcall	_ModuloOn
  4386     062C                     l2859:
  4387                           
  4388                           ;main.c: 225:     SM_CFOFF();
  4389     062C  318E  26DB  3186   	fcall	_SM_CFOFF
  4390     062F                     l2861:
  4391                           
  4392                           ;main.c: 226:     __nop();
  4393     062F  0000               	nop
  4394     0630                     l2863:
  4395                           
  4396                           ;main.c: 227:     SM_CONFIGRADIO(22);
  4397     0630  3016               	movlw	22
  4398     0631  318F  2706  3186   	fcall	_SM_CONFIGRADIO
  4399     0634                     l2865:
  4400                           
  4401                           ;main.c: 228:     __nop();
  4402     0634  0000               	nop
  4403     0635                     l2867:
  4404                           
  4405                           ;main.c: 231:     EUSART_Reset();
  4406     0635  318F  2791  3186   	fcall	_EUSART_Reset
  4407     0638                     l2869:
  4408                           
  4409                           ;main.c: 232:     for (loop=0; _TXSTART22[loop]!=0; loop++) EUSART_Write (_TXSTART22[loo
      +                          p]);
  4410     0638  01FB               	clrf	_loop
  4411     0639  2E47               	goto	l2875
  4412     063A                     l2871:
  4413     063A  087B               	movf	_loop,w
  4414     063B  3E4E               	addlw	low (__TXSTART22| (0+32768))
  4415     063C  0084               	movwf	4
  4416     063D  3090               	movlw	high (__TXSTART22| (0+32768))
  4417     063E  1803               	skipnc
  4418     063F  3E01               	addlw	1
  4419     0640  0085               	movwf	5
  4420     0641  0800               	movf	0,w	;code access
  4421     0642  318E  2688  3186   	fcall	_EUSART_Write
  4422     0645                     l2873:
  4423     0645  3001               	movlw	1
  4424     0646  07FB               	addwf	_loop,f
  4425     0647                     l2875:
  4426     0647  087B               	movf	_loop,w
  4427     0648  3E4E               	addlw	low (__TXSTART22| (0+32768))
  4428     0649  0084               	movwf	4
  4429     064A  3090               	movlw	high (__TXSTART22| (0+32768))
  4430     064B  1803               	skipnc
  4431     064C  3E01               	addlw	1
  4432     064D  0085               	movwf	5
  4433     064E  0012               	moviw fsr0++
  4434     064F  1D03               	btfss	3,2
  4435     0650  2E52               	goto	u1611
  4436     0651  2E53               	goto	u1610
  4437     0652                     u1611:
  4438     0652  2E3A               	goto	l2871
  4439     0653                     u1610:
  4440     0653                     l2877:
  4441                           
  4442                           ;main.c: 234:     EUSART_Write(pacoteTRX[ 0]);
  4443     0653  0021               	movlb	1	; select bank1
  4444     0654  0840               	movf	_pacoteTRX^(0+128),w	;volatile
  4445     0655  318E  2688  3186   	fcall	_EUSART_Write
  4446                           
  4447                           ;main.c: 235:     EUSART_Write(pacoteTRX[ 1]);
  4448     0658  0021               	movlb	1	; select bank1
  4449     0659  0841               	movf	(_pacoteTRX^(0+128)+1),w	;volatile
  4450     065A  318E  2688  3186   	fcall	_EUSART_Write
  4451                           
  4452                           ;main.c: 236:     EUSART_Write(pacoteTRX[ 2]);
  4453     065D  0021               	movlb	1	; select bank1
  4454     065E  0842               	movf	(_pacoteTRX^(0+128)+2),w	;volatile
  4455     065F  318E  2688  3186   	fcall	_EUSART_Write
  4456                           
  4457                           ;main.c: 237:     EUSART_Write(pacoteTRX[ 3]);
  4458     0662  0021               	movlb	1	; select bank1
  4459     0663  0843               	movf	(_pacoteTRX^(0+128)+3),w	;volatile
  4460     0664  318E  2688  3186   	fcall	_EUSART_Write
  4461                           
  4462                           ;main.c: 238:     EUSART_Write(pacoteTRX[ 4]);
  4463     0667  0021               	movlb	1	; select bank1
  4464     0668  0844               	movf	(_pacoteTRX^(0+128)+4),w	;volatile
  4465     0669  318E  2688  3186   	fcall	_EUSART_Write
  4466                           
  4467                           ;main.c: 239:     EUSART_Write(pacoteTRX[ 5]);
  4468     066C  0021               	movlb	1	; select bank1
  4469     066D  0845               	movf	(_pacoteTRX^(0+128)+5),w	;volatile
  4470     066E  318E  2688  3186   	fcall	_EUSART_Write
  4471                           
  4472                           ;main.c: 240:     EUSART_Write(pacoteTRX[ 6]);
  4473     0671  0021               	movlb	1	; select bank1
  4474     0672  0846               	movf	(_pacoteTRX^(0+128)+6),w	;volatile
  4475     0673  318E  2688  3186   	fcall	_EUSART_Write
  4476                           
  4477                           ;main.c: 241:     EUSART_Write(pacoteTRX[ 7]);
  4478     0676  0021               	movlb	1	; select bank1
  4479     0677  0847               	movf	(_pacoteTRX^(0+128)+7),w	;volatile
  4480     0678  318E  2688  3186   	fcall	_EUSART_Write
  4481                           
  4482                           ;main.c: 242:     EUSART_Write(pacoteTRX[ 8]);
  4483     067B  0021               	movlb	1	; select bank1
  4484     067C  0848               	movf	(_pacoteTRX^(0+128)+8),w	;volatile
  4485     067D  318E  2688  3186   	fcall	_EUSART_Write
  4486                           
  4487                           ;main.c: 243:     EUSART_Write(pacoteTRX[ 9]);
  4488     0680  0021               	movlb	1	; select bank1
  4489     0681  0849               	movf	(_pacoteTRX^(0+128)+9),w	;volatile
  4490     0682  318E  2688  3186   	fcall	_EUSART_Write
  4491                           
  4492                           ;main.c: 244:     EUSART_Write(pacoteTRX[10]);
  4493     0685  0021               	movlb	1	; select bank1
  4494     0686  084A               	movf	(_pacoteTRX^(0+128)+10),w	;volatile
  4495     0687  318E  2688  3186   	fcall	_EUSART_Write
  4496                           
  4497                           ;main.c: 245:     EUSART_Write(pacoteTRX[11]);
  4498     068A  0021               	movlb	1	; select bank1
  4499     068B  084B               	movf	(_pacoteTRX^(0+128)+11),w	;volatile
  4500     068C  318E  2688  3186   	fcall	_EUSART_Write
  4501                           
  4502                           ;main.c: 246:     EUSART_Write(pacoteTRX[12]);
  4503     068F  0021               	movlb	1	; select bank1
  4504     0690  084C               	movf	(_pacoteTRX^(0+128)+12),w	;volatile
  4505     0691  318E  2688  3186   	fcall	_EUSART_Write
  4506                           
  4507                           ;main.c: 247:     EUSART_Write(pacoteTRX[13]);
  4508     0694  0021               	movlb	1	; select bank1
  4509     0695  084D               	movf	(_pacoteTRX^(0+128)+13),w	;volatile
  4510     0696  318E  2688  3186   	fcall	_EUSART_Write
  4511                           
  4512                           ;main.c: 249:     EUSART_Write (0x0D);
  4513     0699  300D               	movlw	13
  4514     069A  318E  2688  3186   	fcall	_EUSART_Write
  4515     069D                     l2879:
  4516                           
  4517                           ;main.c: 250:     Espera_TxOk();
  4518     069D  3187  27DD  3186   	fcall	_Espera_TxOk
  4519     06A0                     l2881:
  4520                           
  4521                           ;main.c: 251:     __nop();
  4522     06A0  0000               	nop
  4523     06A1                     l2883:
  4524     06A1  0022               	movlb	2	; select bank2
  4525     06A2  138C               	bcf	12,7	;volatile
  4526     06A3                     l578:
  4527     06A3  0008               	return
  4528     06A4                     __end_of_TX_Lora:
  4529                           
  4530                           	psect	text8
  4531     0F06                     __ptext8:	
  4532 ;; *************** function _SM_CONFIGRADIO *****************
  4533 ;; Defined at:
  4534 ;;		line 168 in file "main.c"
  4535 ;; Parameters:    Size  Location     Type
  4536 ;;  ch              1    wreg     unsigned char 
  4537 ;; Auto vars:     Size  Location     Type
  4538 ;;  ch              1    0[COMMON] unsigned char 
  4539 ;; Return value:  Size  Location     Type
  4540 ;;                  1    wreg      void 
  4541 ;; Registers used:
  4542 ;;		wreg, fsr0l, fsr0h, fsr1l, fsr1h, status,2, status,0, pclath, cstack
  4543 ;; Tracked objects:
  4544 ;;		On entry : 0/0
  4545 ;;		On exit  : 0/0
  4546 ;;		Unchanged: 0/0
  4547 ;; Data sizes:     COMMON   BANK0   BANK1   BANK2   BANK3   BANK4   BANK5   BANK6   BANK7   BANK8   BANK9  BANK10  BANK1
      +1  BANK12
  4548 ;;      Params:         0       0       0       0       0       0       0       0       0       0       0       0       
      +0       0
  4549 ;;      Locals:         0       0       0       0       0       0       0       0       0       0       0       0       
      +0       0
  4550 ;;      Temps:          2       0       0       0       0       0       0       0       0       0       0       0       
      +0       0
  4551 ;;      Totals:         2       0       0       0       0       0       0       0       0       0       0       0       
      +0       0
  4552 ;;Total ram usage:        2 bytes
  4553 ;; Hardware stack levels used: 1
  4554 ;; Hardware stack levels required when called: 5
  4555 ;; This function calls:
  4556 ;;		_EUSART_Reset
  4557 ;;		_EUSART_Write
  4558 ;; This function is called by:
  4559 ;;		_TX_Lora
  4560 ;;		_TesteEnvio
  4561 ;;		_main
  4562 ;; This function uses a non-reentrant model
  4563 ;;
  4564                           
  4565     0F06                     _SM_CONFIGRADIO:	
  4566                           ;psect for function _SM_CONFIGRADIO
  4567                           
  4568     0F06                     l2609:	
  4569                           ;incstack = 0
  4570                           ; Regs used in _SM_CONFIGRADIO: [wreg-fsr1h+status,2+status,0+pclath+cstack]
  4571                           
  4572                           
  4573                           ;main.c: 168: void SM_CONFIGRADIO(uint8_t ch);main.c: 169: {;main.c: 170:     EUSART_Res
      +                          et();
  4574     0F06  318F  2791  318F   	fcall	_EUSART_Reset
  4575     0F09                     l2611:
  4576                           
  4577                           ;main.c: 171:     for (loop=0; _CFC22[loop]!=0; loop++) EUSART_Write (_CFC22[loop]);
  4578     0F09  01FB               	clrf	_loop
  4579     0F0A  2F18               	goto	l2617
  4580     0F0B                     l2613:
  4581     0F0B  087B               	movf	_loop,w
  4582     0F0C  3E00               	addlw	low (__CFC22| (0+32768))
  4583     0F0D  0084               	movwf	4
  4584     0F0E  3090               	movlw	high (__CFC22| (0+32768))
  4585     0F0F  1803               	skipnc
  4586     0F10  3E01               	addlw	1
  4587     0F11  0085               	movwf	5
  4588     0F12  0800               	movf	0,w	;code access
  4589     0F13  318E  2688  318F   	fcall	_EUSART_Write
  4590     0F16                     l2615:
  4591     0F16  3001               	movlw	1
  4592     0F17  07FB               	addwf	_loop,f
  4593     0F18                     l2617:
  4594     0F18  087B               	movf	_loop,w
  4595     0F19  3E00               	addlw	low (__CFC22| (0+32768))
  4596     0F1A  0084               	movwf	4
  4597     0F1B  3090               	movlw	high (__CFC22| (0+32768))
  4598     0F1C  1803               	skipnc
  4599     0F1D  3E01               	addlw	1
  4600     0F1E  0085               	movwf	5
  4601     0F1F  0012               	moviw fsr0++
  4602     0F20  1D03               	btfss	3,2
  4603     0F21  2F23               	goto	u1371
  4604     0F22  2F24               	goto	u1370
  4605     0F23                     u1371:
  4606     0F23  2F0B               	goto	l2613
  4607     0F24                     u1370:
  4608     0F24                     l2619:
  4609                           
  4610                           ;main.c: 172:     _delay((unsigned long)((100)*(16000000/4000.0)));
  4611     0F24  3003               	movlw	3
  4612     0F25  00F2               	movwf	??_SM_CONFIGRADIO+1
  4613     0F26  3008               	movlw	8
  4614     0F27  00F1               	movwf	??_SM_CONFIGRADIO
  4615     0F28  3077               	movlw	119
  4616     0F29                     u2257:
  4617     0F29  0B89               	decfsz	9,f
  4618     0F2A  2F29               	goto	u2257
  4619     0F2B  0BF1               	decfsz	??_SM_CONFIGRADIO,f
  4620     0F2C  2F29               	goto	u2257
  4621     0F2D  0BF2               	decfsz	??_SM_CONFIGRADIO+1,f
  4622     0F2E  2F29               	goto	u2257
  4623     0F2F  0000               	nop
  4624     0F30                     l540:
  4625     0F30  0008               	return
  4626     0F31                     __end_of_SM_CONFIGRADIO:
  4627                           
  4628                           	psect	text9
  4629     0EDB                     __ptext9:	
  4630 ;; *************** function _SM_CFOFF *****************
  4631 ;; Defined at:
  4632 ;;		line 181 in file "main.c"
  4633 ;; Parameters:    Size  Location     Type
  4634 ;;		None
  4635 ;; Auto vars:     Size  Location     Type
  4636 ;;		None
  4637 ;; Return value:  Size  Location     Type
  4638 ;;                  1    wreg      void 
  4639 ;; Registers used:
  4640 ;;		wreg, fsr0l, fsr0h, fsr1l, fsr1h, status,2, status,0, pclath, cstack
  4641 ;; Tracked objects:
  4642 ;;		On entry : 0/0
  4643 ;;		On exit  : 0/0
  4644 ;;		Unchanged: 0/0
  4645 ;; Data sizes:     COMMON   BANK0   BANK1   BANK2   BANK3   BANK4   BANK5   BANK6   BANK7   BANK8   BANK9  BANK10  BANK1
      +1  BANK12
  4646 ;;      Params:         0       0       0       0       0       0       0       0       0       0       0       0       
      +0       0
  4647 ;;      Locals:         0       0       0       0       0       0       0       0       0       0       0       0       
      +0       0
  4648 ;;      Temps:          2       0       0       0       0       0       0       0       0       0       0       0       
      +0       0
  4649 ;;      Totals:         2       0       0       0       0       0       0       0       0       0       0       0       
      +0       0
  4650 ;;Total ram usage:        2 bytes
  4651 ;; Hardware stack levels used: 1
  4652 ;; Hardware stack levels required when called: 5
  4653 ;; This function calls:
  4654 ;;		_EUSART_Reset
  4655 ;;		_EUSART_Write
  4656 ;; This function is called by:
  4657 ;;		_TX_Lora
  4658 ;;		_TesteEnvio
  4659 ;;		_main
  4660 ;; This function uses a non-reentrant model
  4661 ;;
  4662                           
  4663     0EDB                     _SM_CFOFF:	
  4664                           ;psect for function _SM_CFOFF
  4665                           
  4666     0EDB                     l2635:	
  4667                           ;incstack = 0
  4668                           ; Regs used in _SM_CFOFF: [wreg-fsr1h+status,2+status,0+pclath+cstack]
  4669                           
  4670                           
  4671                           ;main.c: 183:     EUSART_Reset();
  4672     0EDB  318F  2791  318E   	fcall	_EUSART_Reset
  4673     0EDE                     l2637:
  4674                           
  4675                           ;main.c: 184:     for (loop=0; _CFOFF[loop]!=0; loop++) EUSART_Write (_CFOFF[loop]);
  4676     0EDE  01FB               	clrf	_loop
  4677     0EDF  2EED               	goto	l2643
  4678     0EE0                     l2639:
  4679     0EE0  087B               	movf	_loop,w
  4680     0EE1  3E61               	addlw	low (__CFOFF| (0+32768))
  4681     0EE2  0084               	movwf	4
  4682     0EE3  3090               	movlw	high (__CFOFF| (0+32768))
  4683     0EE4  1803               	skipnc
  4684     0EE5  3E01               	addlw	1
  4685     0EE6  0085               	movwf	5
  4686     0EE7  0800               	movf	0,w	;code access
  4687     0EE8  318E  2688  318E   	fcall	_EUSART_Write
  4688     0EEB                     l2641:
  4689     0EEB  3001               	movlw	1
  4690     0EEC  07FB               	addwf	_loop,f
  4691     0EED                     l2643:
  4692     0EED  087B               	movf	_loop,w
  4693     0EEE  3E61               	addlw	low (__CFOFF| (0+32768))
  4694     0EEF  0084               	movwf	4
  4695     0EF0  3090               	movlw	high (__CFOFF| (0+32768))
  4696     0EF1  1803               	skipnc
  4697     0EF2  3E01               	addlw	1
  4698     0EF3  0085               	movwf	5
  4699     0EF4  0012               	moviw fsr0++
  4700     0EF5  1D03               	btfss	3,2
  4701     0EF6  2EF8               	goto	u1391
  4702     0EF7  2EF9               	goto	u1390
  4703     0EF8                     u1391:
  4704     0EF8  2EE0               	goto	l2639
  4705     0EF9                     u1390:
  4706     0EF9                     l2645:
  4707                           
  4708                           ;main.c: 185:     _delay((unsigned long)((100)*(16000000/4000.0)));
  4709     0EF9  3003               	movlw	3
  4710     0EFA  00F2               	movwf	??_SM_CFOFF+1
  4711     0EFB  3008               	movlw	8
  4712     0EFC  00F1               	movwf	??_SM_CFOFF
  4713     0EFD  3077               	movlw	119
  4714     0EFE                     u2267:
  4715     0EFE  0B89               	decfsz	9,f
  4716     0EFF  2EFE               	goto	u2267
  4717     0F00  0BF1               	decfsz	??_SM_CFOFF,f
  4718     0F01  2EFE               	goto	u2267
  4719     0F02  0BF2               	decfsz	??_SM_CFOFF+1,f
  4720     0F03  2EFE               	goto	u2267
  4721     0F04  0000               	nop
  4722     0F05                     l552:
  4723     0F05  0008               	return
  4724     0F06                     __end_of_SM_CFOFF:
  4725                           
  4726                           	psect	text10
  4727     07DD                     __ptext10:	
  4728 ;; *************** function _Espera_TxOk *****************
  4729 ;; Defined at:
  4730 ;;		line 147 in file "main.c"
  4731 ;; Parameters:    Size  Location     Type
  4732 ;;		None
  4733 ;; Auto vars:     Size  Location     Type
  4734 ;;		None
  4735 ;; Return value:  Size  Location     Type
  4736 ;;                  1    wreg      unsigned char 
  4737 ;; Registers used:
  4738 ;;		wreg, status,2
  4739 ;; Tracked objects:
  4740 ;;		On entry : 0/0
  4741 ;;		On exit  : 0/0
  4742 ;;		Unchanged: 0/0
  4743 ;; Data sizes:     COMMON   BANK0   BANK1   BANK2   BANK3   BANK4   BANK5   BANK6   BANK7   BANK8   BANK9  BANK10  BANK1
      +1  BANK12
  4744 ;;      Params:         0       0       0       0       0       0       0       0       0       0       0       0       
      +0       0
  4745 ;;      Locals:         0       0       0       0       0       0       0       0       0       0       0       0       
      +0       0
  4746 ;;      Temps:          1       0       0       0       0       0       0       0       0       0       0       0       
      +0       0
  4747 ;;      Totals:         1       0       0       0       0       0       0       0       0       0       0       0       
      +0       0
  4748 ;;Total ram usage:        1 bytes
  4749 ;; Hardware stack levels used: 1
  4750 ;; Hardware stack levels required when called: 4
  4751 ;; This function calls:
  4752 ;;		Nothing
  4753 ;; This function is called by:
  4754 ;;		_TX_Lora
  4755 ;; This function uses a non-reentrant model
  4756 ;;
  4757                           
  4758     07DD                     _Espera_TxOk:	
  4759                           ;psect for function _Espera_TxOk
  4760                           
  4761     07DD                     l2589:	
  4762                           ;incstack = 0
  4763                           ; Regs used in _Espera_TxOk: [wreg+status,2]
  4764                           
  4765                           
  4766                           ;main.c: 149:     temp16=0;
  4767     07DD  0020               	movlb	0	; select bank0
  4768     07DE  01AA               	clrf	_temp16
  4769     07DF  01AB               	clrf	_temp16+1
  4770                           
  4771                           ;main.c: 150:     while (indice<36)
  4772     07E0  2FF8               	goto	l2595
  4773     07E1                     l2591:
  4774                           
  4775                           ;main.c: 151:     {;main.c: 152:         _delay((unsigned long)((1)*(16000000/4000.0)));
  4776     07E1  3006               	movlw	6
  4777     07E2  00F0               	movwf	??_Espera_TxOk
  4778     07E3  3030               	movlw	48
  4779     07E4                     u2277:
  4780     07E4  0B89               	decfsz	9,f
  4781     07E5  2FE4               	goto	u2277
  4782     07E6  0BF0               	decfsz	??_Espera_TxOk,f
  4783     07E7  2FE4               	goto	u2277
  4784     07E8  3200               	nop2
  4785                           
  4786                           ;main.c: 153:         if (++temp16>5000)
  4787     07E9  3001               	movlw	1
  4788     07EA  0020               	movlb	0	; select bank0
  4789     07EB  07AA               	addwf	_temp16,f
  4790     07EC  3000               	movlw	0
  4791     07ED  3DAB               	addwfc	_temp16+1,f
  4792     07EE  3013               	movlw	19
  4793     07EF  022B               	subwf	_temp16+1,w
  4794     07F0  3089               	movlw	137
  4795     07F1  1903               	skipnz
  4796     07F2  022A               	subwf	_temp16,w
  4797     07F3  1C03               	skipc
  4798     07F4  2FF6               	goto	u1341
  4799     07F5  2FF7               	goto	u1340
  4800     07F6                     u1341:
  4801     07F6  2FF8               	goto	l2595
  4802     07F7                     u1340:
  4803     07F7  2FFE               	goto	l527
  4804     07F8                     l2595:
  4805                           
  4806                           ;main.c: 150:     while (indice<36)
  4807     07F8  3024               	movlw	36
  4808     07F9  027D               	subwf	_indice,w	;volatile
  4809     07FA  1C03               	skipc
  4810     07FB  2FFD               	goto	u1351
  4811     07FC  2FFE               	goto	u1350
  4812     07FD                     u1351:
  4813     07FD  2FE1               	goto	l2591
  4814     07FE                     u1350:
  4815     07FE                     l527:
  4816     07FE  0008               	return
  4817     07FF                     __end_of_Espera_TxOk:
  4818                           
  4819                           	psect	text11
  4820     071F                     __ptext11:	
  4821 ;; *************** function _SM_START *****************
  4822 ;; Defined at:
  4823 ;;		line 194 in file "main.c"
  4824 ;; Parameters:    Size  Location     Type
  4825 ;;		None
  4826 ;; Auto vars:     Size  Location     Type
  4827 ;;		None
  4828 ;; Return value:  Size  Location     Type
  4829 ;;                  1    wreg      unsigned char 
  4830 ;; Registers used:
  4831 ;;		wreg, fsr0l, fsr0h, fsr1l, fsr1h, status,2, status,0, pclath, cstack
  4832 ;; Tracked objects:
  4833 ;;		On entry : 0/0
  4834 ;;		On exit  : 0/0
  4835 ;;		Unchanged: 0/0
  4836 ;; Data sizes:     COMMON   BANK0   BANK1   BANK2   BANK3   BANK4   BANK5   BANK6   BANK7   BANK8   BANK9  BANK10  BANK1
      +1  BANK12
  4837 ;;      Params:         0       0       0       0       0       0       0       0       0       0       0       0       
      +0       0
  4838 ;;      Locals:         0       0       0       0       0       0       0       0       0       0       0       0       
      +0       0
  4839 ;;      Temps:          2       0       0       0       0       0       0       0       0       0       0       0       
      +0       0
  4840 ;;      Totals:         2       0       0       0       0       0       0       0       0       0       0       0       
      +0       0
  4841 ;;Total ram usage:        2 bytes
  4842 ;; Hardware stack levels used: 1
  4843 ;; Hardware stack levels required when called: 6
  4844 ;; This function calls:
  4845 ;;		_EUSART_Reset
  4846 ;;		_ModuloOn
  4847 ;;		_SM_RESET
  4848 ;; This function is called by:
  4849 ;;		_main
  4850 ;; This function uses a non-reentrant model
  4851 ;;
  4852                           
  4853     071F                     _SM_START:	
  4854                           ;psect for function _SM_START
  4855                           
  4856     071F                     l2823:	
  4857                           ;incstack = 0
  4858                           ; Regs used in _SM_START: [wreg-fsr1h+status,2+status,0+pclath+cstack]
  4859                           
  4860                           
  4861                           ;main.c: 196:     EUSART_Reset();
  4862     071F  318F  2791  3187   	fcall	_EUSART_Reset
  4863     0722                     l2825:
  4864                           
  4865                           ;main.c: 197:     ModuloOn();
  4866     0722  318E  2663  3187   	fcall	_ModuloOn
  4867     0725                     l2827:
  4868                           
  4869                           ;main.c: 198:     _delay((unsigned long)((3000)*(16000000/4000.0)));
  4870     0725  303D               	movlw	61
  4871     0726  00F4               	movwf	??_SM_START+1
  4872     0727  30E1               	movlw	225
  4873     0728  00F3               	movwf	??_SM_START
  4874     0729  3040               	movlw	64
  4875     072A                     u2287:
  4876     072A  0B89               	decfsz	9,f
  4877     072B  2F2A               	goto	u2287
  4878     072C  0BF3               	decfsz	??_SM_START,f
  4879     072D  2F2A               	goto	u2287
  4880     072E  0BF4               	decfsz	??_SM_START+1,f
  4881     072F  2F2A               	goto	u2287
  4882     0730                     l2829:
  4883                           
  4884                           ;main.c: 199:     __nop();
  4885     0730  0000               	nop
  4886     0731                     l2831:
  4887                           
  4888                           ;main.c: 200:     temp8=0;
  4889     0731  0020               	movlb	0	; select bank0
  4890     0732  01C5               	clrf	_temp8
  4891                           
  4892                           ;main.c: 201:     while (temp8<3)
  4893     0733  2F5A               	goto	l2849
  4894     0734                     l2833:
  4895                           
  4896                           ;main.c: 202:     {;main.c: 203:         SM_RESET();
  4897     0734  318E  26B0  3187   	fcall	_SM_RESET
  4898     0737                     l2835:
  4899                           
  4900                           ;main.c: 204:         temp16=0;
  4901     0737  0020               	movlb	0	; select bank0
  4902     0738  01AA               	clrf	_temp16
  4903     0739  01AB               	clrf	_temp16+1
  4904                           
  4905                           ;main.c: 205:         while (++temp16<3000)
  4906     073A  2F4B               	goto	l2845
  4907     073B                     l2837:
  4908                           
  4909                           ;main.c: 206:         {;main.c: 207:             _delay((unsigned long)((1)*(16000000/40
      +                          00.0)));
  4910     073B  3006               	movlw	6
  4911     073C  00F3               	movwf	??_SM_START
  4912     073D  3030               	movlw	48
  4913     073E                     u2297:
  4914     073E  0B89               	decfsz	9,f
  4915     073F  2F3E               	goto	u2297
  4916     0740  0BF3               	decfsz	??_SM_START,f
  4917     0741  2F3E               	goto	u2297
  4918     0742  3200               	nop2
  4919     0743                     l2839:
  4920                           
  4921                           ;main.c: 208:             if (fAtOk)
  4922     0743  0020               	movlb	0	; select bank0
  4923     0744  086A               	movf	_fAtOk,w	;volatile
  4924     0745  1903               	btfsc	3,2
  4925     0746  2F48               	goto	u1581
  4926     0747  2F49               	goto	u1580
  4927     0748                     u1581:
  4928     0748  2F4B               	goto	l2845
  4929     0749                     u1580:
  4930     0749                     l2841:
  4931                           
  4932                           ;main.c: 209:                 return fSM_OK;
  4933     0749  3001               	movlw	1
  4934     074A  2F61               	goto	l566
  4935     074B                     l2845:
  4936                           
  4937                           ;main.c: 205:         while (++temp16<3000)
  4938     074B  3001               	movlw	1
  4939     074C  07AA               	addwf	_temp16,f
  4940     074D  3000               	movlw	0
  4941     074E  3DAB               	addwfc	_temp16+1,f
  4942     074F  300B               	movlw	11
  4943     0750  022B               	subwf	_temp16+1,w
  4944     0751  30B8               	movlw	184
  4945     0752  1903               	skipnz
  4946     0753  022A               	subwf	_temp16,w
  4947     0754  1C03               	skipc
  4948     0755  2F57               	goto	u1591
  4949     0756  2F58               	goto	u1590
  4950     0757                     u1591:
  4951     0757  2F3B               	goto	l2837
  4952     0758                     u1590:
  4953     0758                     l2847:
  4954                           
  4955                           ;main.c: 211:         temp8++;
  4956     0758  3001               	movlw	1
  4957     0759  07C5               	addwf	_temp8,f
  4958     075A                     l2849:
  4959                           
  4960                           ;main.c: 201:     while (temp8<3)
  4961     075A  3003               	movlw	3
  4962     075B  0245               	subwf	_temp8,w
  4963     075C  1C03               	skipc
  4964     075D  2F5F               	goto	u1601
  4965     075E  2F60               	goto	u1600
  4966     075F                     u1601:
  4967     075F  2F34               	goto	l2833
  4968     0760                     u1600:
  4969     0760                     l2851:
  4970                           
  4971                           ;main.c: 213:     return fSM_NORADIO;
  4972     0760  3007               	movlw	7
  4973     0761                     l566:
  4974     0761  0008               	return
  4975     0762                     __end_of_SM_START:
  4976                           
  4977                           	psect	text12
  4978     0EB0                     __ptext12:	
  4979 ;; *************** function _SM_RESET *****************
  4980 ;; Defined at:
  4981 ;;		line 162 in file "main.c"
  4982 ;; Parameters:    Size  Location     Type
  4983 ;;		None
  4984 ;; Auto vars:     Size  Location     Type
  4985 ;;		None
  4986 ;; Return value:  Size  Location     Type
  4987 ;;                  1    wreg      void 
  4988 ;; Registers used:
  4989 ;;		wreg, fsr0l, fsr0h, fsr1l, fsr1h, status,2, status,0, pclath, cstack
  4990 ;; Tracked objects:
  4991 ;;		On entry : 0/0
  4992 ;;		On exit  : 0/0
  4993 ;;		Unchanged: 0/0
  4994 ;; Data sizes:     COMMON   BANK0   BANK1   BANK2   BANK3   BANK4   BANK5   BANK6   BANK7   BANK8   BANK9  BANK10  BANK1
      +1  BANK12
  4995 ;;      Params:         0       0       0       0       0       0       0       0       0       0       0       0       
      +0       0
  4996 ;;      Locals:         0       0       0       0       0       0       0       0       0       0       0       0       
      +0       0
  4997 ;;      Temps:          2       0       0       0       0       0       0       0       0       0       0       0       
      +0       0
  4998 ;;      Totals:         2       0       0       0       0       0       0       0       0       0       0       0       
      +0       0
  4999 ;;Total ram usage:        2 bytes
  5000 ;; Hardware stack levels used: 1
  5001 ;; Hardware stack levels required when called: 5
  5002 ;; This function calls:
  5003 ;;		_EUSART_Reset
  5004 ;;		_EUSART_Write
  5005 ;; This function is called by:
  5006 ;;		_SM_START
  5007 ;; This function uses a non-reentrant model
  5008 ;;
  5009                           
  5010     0EB0                     _SM_RESET:	
  5011                           ;psect for function _SM_RESET
  5012                           
  5013     0EB0                     l2597:	
  5014                           ;incstack = 0
  5015                           ; Regs used in _SM_RESET: [wreg-fsr1h+status,2+status,0+pclath+cstack]
  5016                           
  5017                           
  5018                           ;main.c: 164:     EUSART_Reset();
  5019     0EB0  318F  2791  318E   	fcall	_EUSART_Reset
  5020     0EB3                     l2599:
  5021                           
  5022                           ;main.c: 165:     for (loop=0; _RESET[loop]!=0; loop++) EUSART_Write (_RESET[loop]);
  5023     0EB3  01FB               	clrf	_loop
  5024     0EB4  2EC2               	goto	l2605
  5025     0EB5                     l2601:
  5026     0EB5  087B               	movf	_loop,w
  5027     0EB6  3E6A               	addlw	low (__RESET| (0+32768))
  5028     0EB7  0084               	movwf	4
  5029     0EB8  3090               	movlw	high (__RESET| (0+32768))
  5030     0EB9  1803               	skipnc
  5031     0EBA  3E01               	addlw	1
  5032     0EBB  0085               	movwf	5
  5033     0EBC  0800               	movf	0,w	;code access
  5034     0EBD  318E  2688  318E   	fcall	_EUSART_Write
  5035     0EC0                     l2603:
  5036     0EC0  3001               	movlw	1
  5037     0EC1  07FB               	addwf	_loop,f
  5038     0EC2                     l2605:
  5039     0EC2  087B               	movf	_loop,w
  5040     0EC3  3E6A               	addlw	low (__RESET| (0+32768))
  5041     0EC4  0084               	movwf	4
  5042     0EC5  3090               	movlw	high (__RESET| (0+32768))
  5043     0EC6  1803               	skipnc
  5044     0EC7  3E01               	addlw	1
  5045     0EC8  0085               	movwf	5
  5046     0EC9  0012               	moviw fsr0++
  5047     0ECA  1D03               	btfss	3,2
  5048     0ECB  2ECD               	goto	u1361
  5049     0ECC  2ECE               	goto	u1360
  5050     0ECD                     u1361:
  5051     0ECD  2EB5               	goto	l2601
  5052     0ECE                     u1360:
  5053     0ECE                     l2607:
  5054                           
  5055                           ;main.c: 166:     _delay((unsigned long)((100)*(16000000/4000.0)));
  5056     0ECE  3003               	movlw	3
  5057     0ECF  00F2               	movwf	??_SM_RESET+1
  5058     0ED0  3008               	movlw	8
  5059     0ED1  00F1               	movwf	??_SM_RESET
  5060     0ED2  3077               	movlw	119
  5061     0ED3                     u2307:
  5062     0ED3  0B89               	decfsz	9,f
  5063     0ED4  2ED3               	goto	u2307
  5064     0ED5  0BF1               	decfsz	??_SM_RESET,f
  5065     0ED6  2ED3               	goto	u2307
  5066     0ED7  0BF2               	decfsz	??_SM_RESET+1,f
  5067     0ED8  2ED3               	goto	u2307
  5068     0ED9  0000               	nop
  5069     0EDA                     l534:
  5070     0EDA  0008               	return
  5071     0EDB                     __end_of_SM_RESET:
  5072                           
  5073                           	psect	text13
  5074     0E88                     __ptext13:	
  5075 ;; *************** function _EUSART_Write *****************
  5076 ;; Defined at:
  5077 ;;		line 161 in file "mcc_generated_files/eusart.c"
  5078 ;; Parameters:    Size  Location     Type
  5079 ;;  txData          1    wreg     unsigned char 
  5080 ;; Auto vars:     Size  Location     Type
  5081 ;;  txData          1    0[COMMON] unsigned char 
  5082 ;; Return value:  Size  Location     Type
  5083 ;;                  1    wreg      void 
  5084 ;; Registers used:
  5085 ;;		wreg, fsr1l, fsr1h, status,2, status,0
  5086 ;; Tracked objects:
  5087 ;;		On entry : 0/0
  5088 ;;		On exit  : 0/0
  5089 ;;		Unchanged: 0/0
  5090 ;; Data sizes:     COMMON   BANK0   BANK1   BANK2   BANK3   BANK4   BANK5   BANK6   BANK7   BANK8   BANK9  BANK10  BANK1
      +1  BANK12
  5091 ;;      Params:         0       0       0       0       0       0       0       0       0       0       0       0       
      +0       0
  5092 ;;      Locals:         1       0       0       0       0       0       0       0       0       0       0       0       
      +0       0
  5093 ;;      Temps:          0       0       0       0       0       0       0       0       0       0       0       0       
      +0       0
  5094 ;;      Totals:         1       0       0       0       0       0       0       0       0       0       0       0       
      +0       0
  5095 ;;Total ram usage:        1 bytes
  5096 ;; Hardware stack levels used: 1
  5097 ;; Hardware stack levels required when called: 4
  5098 ;; This function calls:
  5099 ;;		Nothing
  5100 ;; This function is called by:
  5101 ;;		_SM_RESET
  5102 ;;		_SM_CONFIGRADIO
  5103 ;;		_SM_MODORX
  5104 ;;		_SM_CFOFF
  5105 ;;		_TX_Lora
  5106 ;;		_TesteEnvio
  5107 ;;		_SM_PING
  5108 ;; This function uses a non-reentrant model
  5109 ;;
  5110                           
  5111     0E88                     _EUSART_Write:	
  5112                           ;psect for function _EUSART_Write
  5113                           
  5114                           
  5115                           ;incstack = 0
  5116                           ; Regs used in _EUSART_Write: [wreg+fsr1l+fsr1h+status,2+status,0]
  5117                           ;EUSART_Write@txData stored from wreg
  5118     0E88  00F0               	movwf	EUSART_Write@txData
  5119     0E89                     l2431:
  5120                           
  5121                           ;mcc_generated_files/eusart.c: 161: void EUSART_Write(uint8_t txData);mcc_generated_file
      +                          s/eusart.c: 162: {;mcc_generated_files/eusart.c: 163:     while(0 == eusartTxBufferRemai
      +                          ning)
  5122     0E89  2E8B               	goto	l2433
  5123     0E8A                     l171:
  5124     0E8A  0064               	clrwdt	;# 
  5125     0E8B                     l2433:
  5126                           
  5127                           ;mcc_generated_files/eusart.c: 163:     while(0 == eusartTxBufferRemaining)
  5128     0E8B  0020               	movlb	0	; select bank0
  5129     0E8C  0861               	movf	_eusartTxBufferRemaining,w	;volatile
  5130     0E8D  1903               	btfsc	3,2
  5131     0E8E  2E90               	goto	u1051
  5132     0E8F  2E91               	goto	u1050
  5133     0E90                     u1051:
  5134     0E90  2E8A               	goto	l171
  5135     0E91                     u1050:
  5136     0E91                     l172:
  5137                           
  5138                           ;mcc_generated_files/eusart.c: 168:     if(0 == PIE1bits.TXIE)
  5139     0E91  0021               	movlb	1	; select bank1
  5140     0E92  1A11               	btfsc	17,4	;volatile
  5141     0E93  2E95               	goto	u1061
  5142     0E94  2E96               	goto	u1060
  5143     0E95                     u1061:
  5144     0E95  2E9A               	goto	l173
  5145     0E96                     u1060:
  5146     0E96                     l2435:
  5147                           
  5148                           ;mcc_generated_files/eusart.c: 169:     {;mcc_generated_files/eusart.c: 170:         TXR
      +                          EG = txData;
  5149     0E96  0870               	movf	EUSART_Write@txData,w
  5150     0E97  0023               	movlb	3	; select bank3
  5151     0E98  009A               	movwf	26	;volatile
  5152                           
  5153                           ;mcc_generated_files/eusart.c: 171:     }
  5154     0E99  2EAD               	goto	l2447
  5155     0E9A                     l173:	
  5156                           ;mcc_generated_files/eusart.c: 172:     else
  5157                           
  5158                           
  5159                           ;mcc_generated_files/eusart.c: 173:     {;mcc_generated_files/eusart.c: 174:         PIE
      +                          1bits.TXIE = 0;
  5160     0E9A  1211               	bcf	17,4	;volatile
  5161     0E9B                     l2437:
  5162                           
  5163                           ;mcc_generated_files/eusart.c: 175:         eusartTxBuffer[eusartTxHead++] = txData;
  5164     0E9B  0020               	movlb	0	; select bank0
  5165     0E9C  0863               	movf	_eusartTxHead,w
  5166     0E9D  3EA0               	addlw	(low (_eusartTxBuffer| 0))& (0+255)
  5167     0E9E  0086               	movwf	6
  5168     0E9F  0187               	clrf	7
  5169     0EA0  0870               	movf	EUSART_Write@txData,w
  5170     0EA1  0081               	movwf	1
  5171     0EA2                     l2439:
  5172     0EA2  3001               	movlw	1
  5173     0EA3  07E3               	addwf	_eusartTxHead,f	;volatile
  5174     0EA4                     l2441:
  5175                           
  5176                           ;mcc_generated_files/eusart.c: 176:         if(sizeof(eusartTxBuffer) <= eusartTxHead)
  5177     0EA4  3020               	movlw	32
  5178     0EA5  0263               	subwf	_eusartTxHead,w	;volatile
  5179     0EA6  1C03               	skipc
  5180     0EA7  2EA9               	goto	u1071
  5181     0EA8  2EAA               	goto	u1070
  5182     0EA9                     u1071:
  5183     0EA9  2EAB               	goto	l2445
  5184     0EAA                     u1070:
  5185     0EAA                     l2443:
  5186                           
  5187                           ;mcc_generated_files/eusart.c: 177:         {;mcc_generated_files/eusart.c: 178:        
      +                               eusartTxHead = 0;
  5188     0EAA  01E3               	clrf	_eusartTxHead	;volatile
  5189     0EAB                     l2445:
  5190                           
  5191                           ;mcc_generated_files/eusart.c: 180:         eusartTxBufferRemaining--;
  5192     0EAB  3001               	movlw	1
  5193     0EAC  02E1               	subwf	_eusartTxBufferRemaining,f	;volatile
  5194     0EAD                     l2447:
  5195                           
  5196                           ;mcc_generated_files/eusart.c: 182:     PIE1bits.TXIE = 1;
  5197     0EAD  0021               	movlb	1	; select bank1
  5198     0EAE  1611               	bsf	17,4	;volatile
  5199     0EAF                     l176:
  5200     0EAF  0008               	return
  5201     0EB0                     __end_of_EUSART_Write:
  5202                           
  5203                           	psect	text14
  5204     0F91                     __ptext14:	
  5205 ;; *************** function _EUSART_Reset *****************
  5206 ;; Defined at:
  5207 ;;		line 59 in file "mcc_generated_files/eusart.c"
  5208 ;; Parameters:    Size  Location     Type
  5209 ;;		None
  5210 ;; Auto vars:     Size  Location     Type
  5211 ;;		None
  5212 ;; Return value:  Size  Location     Type
  5213 ;;                  1    wreg      void 
  5214 ;; Registers used:
  5215 ;;		wreg, fsr1l, fsr1h, status,2, status,0
  5216 ;; Tracked objects:
  5217 ;;		On entry : 0/0
  5218 ;;		On exit  : 0/0
  5219 ;;		Unchanged: 0/0
  5220 ;; Data sizes:     COMMON   BANK0   BANK1   BANK2   BANK3   BANK4   BANK5   BANK6   BANK7   BANK8   BANK9  BANK10  BANK1
      +1  BANK12
  5221 ;;      Params:         0       0       0       0       0       0       0       0       0       0       0       0       
      +0       0
  5222 ;;      Locals:         0       0       0       0       0       0       0       0       0       0       0       0       
      +0       0
  5223 ;;      Temps:          0       0       0       0       0       0       0       0       0       0       0       0       
      +0       0
  5224 ;;      Totals:         0       0       0       0       0       0       0       0       0       0       0       0       
      +0       0
  5225 ;;Total ram usage:        0 bytes
  5226 ;; Hardware stack levels used: 1
  5227 ;; Hardware stack levels required when called: 4
  5228 ;; This function calls:
  5229 ;;		Nothing
  5230 ;; This function is called by:
  5231 ;;		_SM_RESET
  5232 ;;		_SM_CONFIGRADIO
  5233 ;;		_SM_MODORX
  5234 ;;		_SM_CFOFF
  5235 ;;		_SM_START
  5236 ;;		_TX_Lora
  5237 ;;		_TesteEnvio
  5238 ;;		_SM_PING
  5239 ;; This function uses a non-reentrant model
  5240 ;;
  5241                           
  5242     0F91                     _EUSART_Reset:	
  5243                           ;psect for function _EUSART_Reset
  5244                           
  5245     0F91                     l2417:	
  5246                           ;incstack = 0
  5247                           ; Regs used in _EUSART_Reset: [wreg+fsr1l+fsr1h+status,2+status,0]
  5248                           
  5249                           
  5250                           ;mcc_generated_files/eusart.c: 61:     for (indice=0;indice<64;indice++)
  5251     0F91  01FD               	clrf	_indice	;volatile
  5252     0F92                     l2419:
  5253     0F92  3040               	movlw	64
  5254     0F93  027D               	subwf	_indice,w	;volatile
  5255     0F94  1C03               	skipc
  5256     0F95  2F97               	goto	u1041
  5257     0F96  2F98               	goto	u1040
  5258     0F97                     u1041:
  5259     0F97  2F99               	goto	l2423
  5260     0F98                     u1040:
  5261     0F98  2FAA               	goto	l144
  5262     0F99                     l2423:
  5263                           
  5264                           ;mcc_generated_files/eusart.c: 62:     {;mcc_generated_files/eusart.c: 63:         Dados
      +                          Lora[indice]=0x20;
  5265     0F99  087D               	movf	_indice,w
  5266     0F9A  3E20               	addlw	(low (_DadosLora| (0+256)))& (0+255)
  5267     0F9B  0086               	movwf	6
  5268     0F9C  3001               	movlw	1	; select bank2/3
  5269     0F9D  0087               	movwf	7
  5270     0F9E  3020               	movlw	32
  5271     0F9F  0081               	movwf	1
  5272                           
  5273                           ;mcc_generated_files/eusart.c: 64:         eusartRxBuffer[indice]=0x20;
  5274     0FA0  087D               	movf	_indice,w
  5275     0FA1  3E20               	addlw	(low (_eusartRxBuffer| (0+512)))& (0+255)
  5276     0FA2  0086               	movwf	6
  5277     0FA3  3002               	movlw	2	; select bank4/5
  5278     0FA4  0087               	movwf	7
  5279     0FA5  3020               	movlw	32
  5280     0FA6  0081               	movwf	1
  5281     0FA7                     l2425:
  5282                           
  5283                           ;mcc_generated_files/eusart.c: 65:     }
  5284     0FA7  3001               	movlw	1
  5285     0FA8  07FD               	addwf	_indice,f	;volatile
  5286     0FA9  2F92               	goto	l2419
  5287     0FAA                     l144:
  5288                           
  5289                           ;mcc_generated_files/eusart.c: 66:     eusartTxBuffer[0]=0x20; eusartTxBuffer[1]=0x20; e
      +                          usartTxBuffer[2]=0x20;
  5290     0FAA  3020               	movlw	32
  5291     0FAB  0021               	movlb	1	; select bank1
  5292     0FAC  00A0               	movwf	_eusartTxBuffer^(0+128)	;volatile
  5293     0FAD  3020               	movlw	32
  5294     0FAE  00A1               	movwf	(_eusartTxBuffer^(0+128)+1)	;volatile
  5295     0FAF  3020               	movlw	32
  5296     0FB0  00A2               	movwf	(_eusartTxBuffer^(0+128)+2)	;volatile
  5297                           
  5298                           ;mcc_generated_files/eusart.c: 67:     eusartTxBuffer[3]=0x20; eusartTxBuffer[4]=0x20; e
      +                          usartTxBuffer[5]=0x20;
  5299     0FB1  3020               	movlw	32
  5300     0FB2  00A3               	movwf	(_eusartTxBuffer^(0+128)+3)	;volatile
  5301     0FB3  3020               	movlw	32
  5302     0FB4  00A4               	movwf	(_eusartTxBuffer^(0+128)+4)	;volatile
  5303     0FB5  3020               	movlw	32
  5304     0FB6  00A5               	movwf	(_eusartTxBuffer^(0+128)+5)	;volatile
  5305                           
  5306                           ;mcc_generated_files/eusart.c: 68:     eusartTxBuffer[6]=0x20; eusartTxBuffer[7]=0x20;
  5307     0FB7  3020               	movlw	32
  5308     0FB8  00A6               	movwf	(_eusartTxBuffer^(0+128)+6)	;volatile
  5309     0FB9  3020               	movlw	32
  5310     0FBA  00A7               	movwf	(_eusartTxBuffer^(0+128)+7)	;volatile
  5311     0FBB                     l2429:
  5312                           
  5313                           ;mcc_generated_files/eusart.c: 69:     indice=0;
  5314     0FBB  01FD               	clrf	_indice	;volatile
  5315                           
  5316                           ;mcc_generated_files/eusart.c: 70:     TotalSerial=0;
  5317     0FBC  01E8               	clrf	_TotalSerial^(0+128)	;volatile
  5318     0FBD  01E9               	clrf	(_TotalSerial+1)^(0+128)	;volatile
  5319                           
  5320                           ;mcc_generated_files/eusart.c: 71:     fOK=0; fATerr=0; fAtOk=0;
  5321     0FBE  0020               	movlb	0	; select bank0
  5322     0FBF  01EC               	clrf	_fOK	;volatile
  5323     0FC0  01EB               	clrf	_fATerr	;volatile
  5324     0FC1  01EA               	clrf	_fAtOk	;volatile
  5325                           
  5326                           ;mcc_generated_files/eusart.c: 72:     fBusy=0;fParm=0;fTxOk=0;
  5327     0FC2  01E9               	clrf	_fBusy	;volatile
  5328     0FC3  01E8               	clrf	_fParm	;volatile
  5329     0FC4  01E7               	clrf	_fTxOk	;volatile
  5330     0FC5                     l145:
  5331     0FC5  0008               	return
  5332     0FC6                     __end_of_EUSART_Reset:
  5333                           
  5334                           	psect	text15
  5335     0E63                     __ptext15:	
  5336 ;; *************** function _ModuloOn *****************
  5337 ;; Defined at:
  5338 ;;		line 102 in file "main.c"
  5339 ;; Parameters:    Size  Location     Type
  5340 ;;		None
  5341 ;; Auto vars:     Size  Location     Type
  5342 ;;		None
  5343 ;; Return value:  Size  Location     Type
  5344 ;;                  1    wreg      void 
  5345 ;; Registers used:
  5346 ;;		wreg
  5347 ;; Tracked objects:
  5348 ;;		On entry : 0/0
  5349 ;;		On exit  : 0/0
  5350 ;;		Unchanged: 0/0
  5351 ;; Data sizes:     COMMON   BANK0   BANK1   BANK2   BANK3   BANK4   BANK5   BANK6   BANK7   BANK8   BANK9  BANK10  BANK1
      +1  BANK12
  5352 ;;      Params:         0       0       0       0       0       0       0       0       0       0       0       0       
      +0       0
  5353 ;;      Locals:         0       0       0       0       0       0       0       0       0       0       0       0       
      +0       0
  5354 ;;      Temps:          2       0       0       0       0       0       0       0       0       0       0       0       
      +0       0
  5355 ;;      Totals:         2       0       0       0       0       0       0       0       0       0       0       0       
      +0       0
  5356 ;;Total ram usage:        2 bytes
  5357 ;; Hardware stack levels used: 1
  5358 ;; Hardware stack levels required when called: 4
  5359 ;; This function calls:
  5360 ;;		Nothing
  5361 ;; This function is called by:
  5362 ;;		_SM_START
  5363 ;;		_TX_Lora
  5364 ;; This function uses a non-reentrant model
  5365 ;;
  5366                           
  5367     0E63                     _ModuloOn:	
  5368                           ;psect for function _ModuloOn
  5369                           
  5370     0E63                     l481:	
  5371                           ;incstack = 0
  5372                           ; Regs used in _ModuloOn: [wreg]
  5373                           ;main.c: 104:     do { LATBbits.LATB1 = 0; } while(0);
  5374                           
  5375     0E63  0022               	movlb	2	; select bank2
  5376     0E64  108D               	bcf	13,1	;volatile
  5377     0E65                     l2565:
  5378                           
  5379                           ;main.c: 105:     _delay((unsigned long)((50)*(16000000/4000.0)));
  5380     0E65  3002               	movlw	2
  5381     0E66  00F1               	movwf	??_ModuloOn+1
  5382     0E67  3004               	movlw	4
  5383     0E68  00F0               	movwf	??_ModuloOn
  5384     0E69  30BA               	movlw	186
  5385     0E6A                     u2317:
  5386     0E6A  0B89               	decfsz	9,f
  5387     0E6B  2E6A               	goto	u2317
  5388     0E6C  0BF0               	decfsz	??_ModuloOn,f
  5389     0E6D  2E6A               	goto	u2317
  5390     0E6E  0BF1               	decfsz	??_ModuloOn+1,f
  5391     0E6F  2E6A               	goto	u2317
  5392     0E70  3200               	nop2
  5393     0E71                     l2567:
  5394                           
  5395                           ;main.c: 106:     __nop(); __nop(); __nop(); __nop();
  5396     0E71  0000               	nop
  5397     0E72                     l2569:
  5398     0E72  0000               	nop
  5399     0E73                     l2571:
  5400     0E73  0000               	nop
  5401     0E74                     l2573:
  5402     0E74  0000               	nop
  5403     0E75                     l2575:
  5404     0E75  0022               	movlb	2	; select bank2
  5405     0E76  148D               	bsf	13,1	;volatile
  5406     0E77                     l2577:
  5407                           
  5408                           ;main.c: 108:     __nop(); __nop(); __nop(); __nop();
  5409     0E77  0000               	nop
  5410     0E78                     l2579:
  5411     0E78  0000               	nop
  5412     0E79                     l2581:
  5413     0E79  0000               	nop
  5414     0E7A                     l2583:
  5415     0E7A  0000               	nop
  5416                           
  5417                           ;main.c: 109:     _delay((unsigned long)((1000)*(16000000/4000.0)));
  5418     0E7B  3015               	movlw	21
  5419     0E7C  00F1               	movwf	??_ModuloOn+1
  5420     0E7D  304B               	movlw	75
  5421     0E7E  00F0               	movwf	??_ModuloOn
  5422     0E7F  30BE               	movlw	190
  5423     0E80                     u2327:
  5424     0E80  0B89               	decfsz	9,f
  5425     0E81  2E80               	goto	u2327
  5426     0E82  0BF0               	decfsz	??_ModuloOn,f
  5427     0E83  2E80               	goto	u2327
  5428     0E84  0BF1               	decfsz	??_ModuloOn+1,f
  5429     0E85  2E80               	goto	u2327
  5430     0E86  3200               	nop2
  5431     0E87                     l485:
  5432     0E87  0008               	return
  5433     0E88                     __end_of_ModuloOn:
  5434                           
  5435                           	psect	text16
  5436     0E0D                     __ptext16:	
  5437 ;; *************** function _PIN_MANAGER_Initialize *****************
  5438 ;; Defined at:
  5439 ;;		line 55 in file "mcc_generated_files/pin_manager.c"
  5440 ;; Parameters:    Size  Location     Type
  5441 ;;		None
  5442 ;; Auto vars:     Size  Location     Type
  5443 ;;		None
  5444 ;; Return value:  Size  Location     Type
  5445 ;;                  1    wreg      void 
  5446 ;; Registers used:
  5447 ;;		status,2
  5448 ;; Tracked objects:
  5449 ;;		On entry : 0/0
  5450 ;;		On exit  : 0/0
  5451 ;;		Unchanged: 0/0
  5452 ;; Data sizes:     COMMON   BANK0   BANK1   BANK2   BANK3   BANK4   BANK5   BANK6   BANK7   BANK8   BANK9  BANK10  BANK1
      +1  BANK12
  5453 ;;      Params:         0       0       0       0       0       0       0       0       0       0       0       0       
      +0       0
  5454 ;;      Locals:         0       0       0       0       0       0       0       0       0       0       0       0       
      +0       0
  5455 ;;      Temps:          0       0       0       0       0       0       0       0       0       0       0       0       
      +0       0
  5456 ;;      Totals:         0       0       0       0       0       0       0       0       0       0       0       0       
      +0       0
  5457 ;;Total ram usage:        0 bytes
  5458 ;; Hardware stack levels used: 1
  5459 ;; Hardware stack levels required when called: 4
  5460 ;; This function calls:
  5461 ;;		Nothing
  5462 ;; This function is called by:
  5463 ;;		_main
  5464 ;; This function uses a non-reentrant model
  5465 ;;
  5466                           
  5467     0E0D                     _PIN_MANAGER_Initialize:	
  5468                           ;psect for function _PIN_MANAGER_Initialize
  5469                           
  5470     0E0D                     l2765:	
  5471                           ;incstack = 0
  5472                           ; Regs used in _PIN_MANAGER_Initialize: [status,2]
  5473                           
  5474                           
  5475                           ;mcc_generated_files/pin_manager.c: 60:     LATA = 0x00;
  5476     0E0D  0022               	movlb	2	; select bank2
  5477     0E0E  018C               	clrf	12	;volatile
  5478     0E0F                     l2767:
  5479                           
  5480                           ;mcc_generated_files/pin_manager.c: 61:     LATB = 0x08;
  5481     0E0F  3008               	movlw	8
  5482     0E10  008D               	movwf	13	;volatile
  5483     0E11                     l2769:
  5484                           
  5485                           ;mcc_generated_files/pin_manager.c: 66:     TRISA = 0x3E;
  5486     0E11  303E               	movlw	62
  5487     0E12  0021               	movlb	1	; select bank1
  5488     0E13  008C               	movwf	12	;volatile
  5489     0E14                     l2771:
  5490                           
  5491                           ;mcc_generated_files/pin_manager.c: 67:     TRISB = 0xDD;
  5492     0E14  30DD               	movlw	221
  5493     0E15  008D               	movwf	13	;volatile
  5494     0E16                     l2773:
  5495                           
  5496                           ;mcc_generated_files/pin_manager.c: 72:     ANSELB = 0xD0;
  5497     0E16  30D0               	movlw	208
  5498     0E17  0023               	movlb	3	; select bank3
  5499     0E18  008D               	movwf	13	;volatile
  5500                           
  5501                           ;mcc_generated_files/pin_manager.c: 73:     ANSELA = 0x00;
  5502     0E19  018C               	clrf	12	;volatile
  5503     0E1A                     l2775:
  5504                           
  5505                           ;mcc_generated_files/pin_manager.c: 78:     WPUB = 0x10;
  5506     0E1A  3010               	movlw	16
  5507     0E1B  0024               	movlb	4	; select bank4
  5508     0E1C  008D               	movwf	13	;volatile
  5509                           
  5510                           ;mcc_generated_files/pin_manager.c: 79:     WPUA = 0x00;
  5511     0E1D  018C               	clrf	12	;volatile
  5512     0E1E                     l2777:
  5513                           
  5514                           ;mcc_generated_files/pin_manager.c: 80:     OPTION_REGbits.nWPUEN = 0;
  5515     0E1E  0021               	movlb	1	; select bank1
  5516     0E1F  1395               	bcf	21,7	;volatile
  5517     0E20                     l2779:
  5518                           
  5519                           ;mcc_generated_files/pin_manager.c: 86:     APFCON0 = 0x80;
  5520     0E20  3080               	movlw	128
  5521     0E21  0022               	movlb	2	; select bank2
  5522     0E22  009D               	movwf	29	;volatile
  5523     0E23                     l2781:
  5524                           
  5525                           ;mcc_generated_files/pin_manager.c: 87:     APFCON1 = 0x01;
  5526     0E23  3001               	movlw	1
  5527     0E24  009E               	movwf	30	;volatile
  5528     0E25                     l253:
  5529     0E25  0008               	return
  5530     0E26                     __end_of_PIN_MANAGER_Initialize:
  5531                           
  5532                           	psect	text17
  5533     0DF3                     __ptext17:	
  5534 ;; *************** function _OSCILLATOR_Initialize *****************
  5535 ;; Defined at:
  5536 ;;		line 60 in file "mcc_generated_files/mcc.c"
  5537 ;; Parameters:    Size  Location     Type
  5538 ;;		None
  5539 ;; Auto vars:     Size  Location     Type
  5540 ;;		None
  5541 ;; Return value:  Size  Location     Type
  5542 ;;                  1    wreg      void 
  5543 ;; Registers used:
  5544 ;;		status,2
  5545 ;; Tracked objects:
  5546 ;;		On entry : 0/0
  5547 ;;		On exit  : 0/0
  5548 ;;		Unchanged: 0/0
  5549 ;; Data sizes:     COMMON   BANK0   BANK1   BANK2   BANK3   BANK4   BANK5   BANK6   BANK7   BANK8   BANK9  BANK10  BANK1
      +1  BANK12
  5550 ;;      Params:         0       0       0       0       0       0       0       0       0       0       0       0       
      +0       0
  5551 ;;      Locals:         0       0       0       0       0       0       0       0       0       0       0       0       
      +0       0
  5552 ;;      Temps:          0       0       0       0       0       0       0       0       0       0       0       0       
      +0       0
  5553 ;;      Totals:         0       0       0       0       0       0       0       0       0       0       0       0       
      +0       0
  5554 ;;Total ram usage:        0 bytes
  5555 ;; Hardware stack levels used: 1
  5556 ;; Hardware stack levels required when called: 4
  5557 ;; This function calls:
  5558 ;;		Nothing
  5559 ;; This function is called by:
  5560 ;;		_main
  5561 ;; This function uses a non-reentrant model
  5562 ;;
  5563                           
  5564     0DF3                     _OSCILLATOR_Initialize:	
  5565                           ;psect for function _OSCILLATOR_Initialize
  5566                           
  5567     0DF3                     l2695:	
  5568                           ;incstack = 0
  5569                           ; Regs used in _OSCILLATOR_Initialize: [status,2]
  5570                           
  5571                           
  5572                           ;mcc_generated_files/mcc.c: 63:     OSCCON = 0x7A;
  5573     0DF3  307A               	movlw	122
  5574     0DF4  0021               	movlb	1	; select bank1
  5575     0DF5  0099               	movwf	25	;volatile
  5576     0DF6                     l2697:
  5577                           
  5578                           ;mcc_generated_files/mcc.c: 65:     OSCTUNE = 0x00;
  5579     0DF6  0198               	clrf	24	;volatile
  5580                           
  5581                           ;mcc_generated_files/mcc.c: 67:     BORCON = 0x00;
  5582     0DF7  0022               	movlb	2	; select bank2
  5583     0DF8  0196               	clrf	22	;volatile
  5584     0DF9                     l14:
  5585     0DF9  0008               	return
  5586     0DFA                     __end_of_OSCILLATOR_Initialize:
  5587                           
  5588                           	psect	text18
  5589     06A4                     __ptext18:	
  5590 ;; *************** function _ErrCode *****************
  5591 ;; Defined at:
  5592 ;;		line 120 in file "main.c"
  5593 ;; Parameters:    Size  Location     Type
  5594 ;;  code            1    wreg     unsigned char 
  5595 ;; Auto vars:     Size  Location     Type
  5596 ;;  code            1    3[COMMON] unsigned char 
  5597 ;;  qual            1    0        unsigned char 
  5598 ;; Return value:  Size  Location     Type
  5599 ;;                  1    wreg      void 
  5600 ;; Registers used:
  5601 ;;		wreg, status,2, status,0, pclath, cstack
  5602 ;; Tracked objects:
  5603 ;;		On entry : 0/0
  5604 ;;		On exit  : 0/0
  5605 ;;		Unchanged: 0/0
  5606 ;; Data sizes:     COMMON   BANK0   BANK1   BANK2   BANK3   BANK4   BANK5   BANK6   BANK7   BANK8   BANK9  BANK10  BANK1
      +1  BANK12
  5607 ;;      Params:         0       0       0       0       0       0       0       0       0       0       0       0       
      +0       0
  5608 ;;      Locals:         1       0       0       0       0       0       0       0       0       0       0       0       
      +0       0
  5609 ;;      Temps:          2       0       0       0       0       0       0       0       0       0       0       0       
      +0       0
  5610 ;;      Totals:         3       0       0       0       0       0       0       0       0       0       0       0       
      +0       0
  5611 ;;Total ram usage:        3 bytes
  5612 ;; Hardware stack levels used: 1
  5613 ;; Hardware stack levels required when called: 5
  5614 ;; This function calls:
  5615 ;;		_ModuloOff
  5616 ;; This function is called by:
  5617 ;;		_main
  5618 ;; This function uses a non-reentrant model
  5619 ;;
  5620                           
  5621     06A4                     _ErrCode:	
  5622                           ;psect for function _ErrCode
  5623                           
  5624                           
  5625                           ;incstack = 0
  5626                           ; Regs used in _ErrCode: [wreg+status,2+status,0+pclath+cstack]
  5627                           ;ErrCode@code stored from wreg
  5628     06A4  00F3               	movwf	ErrCode@code
  5629     06A5                     l2783:
  5630     06A5                     l2785:
  5631                           
  5632                           ;main.c: 123:     __nop();
  5633     06A5  0000               	nop
  5634     06A6                     l2787:
  5635                           
  5636                           ;main.c: 124:     ModuloOff();
  5637     06A6  318D  25FA  3186   	fcall	_ModuloOff
  5638     06A9                     l2789:
  5639     06A9  0022               	movlb	2	; select bank2
  5640     06AA  178C               	bsf	12,7	;volatile
  5641     06AB                     l2791:
  5642     06AB  3006               	movlw	6
  5643     06AC  00F2               	movwf	??_ErrCode+1
  5644     06AD  3013               	movlw	19
  5645     06AE  00F1               	movwf	??_ErrCode
  5646     06AF  30AE               	movlw	174
  5647     06B0                     u2337:
  5648     06B0  0B89               	decfsz	9,f
  5649     06B1  2EB0               	goto	u2337
  5650     06B2  0BF1               	decfsz	??_ErrCode,f
  5651     06B3  2EB0               	goto	u2337
  5652     06B4  0BF2               	decfsz	??_ErrCode+1,f
  5653     06B5  2EB0               	goto	u2337
  5654     06B6                     l2793:
  5655     06B6  0022               	movlb	2	; select bank2
  5656     06B7  138C               	bcf	12,7	;volatile
  5657     06B8                     l2795:
  5658     06B8  3006               	movlw	6
  5659     06B9  00F2               	movwf	??_ErrCode+1
  5660     06BA  3013               	movlw	19
  5661     06BB  00F1               	movwf	??_ErrCode
  5662     06BC  30AE               	movlw	174
  5663     06BD                     u2347:
  5664     06BD  0B89               	decfsz	9,f
  5665     06BE  2EBD               	goto	u2347
  5666     06BF  0BF1               	decfsz	??_ErrCode,f
  5667     06C0  2EBD               	goto	u2347
  5668     06C1  0BF2               	decfsz	??_ErrCode+1,f
  5669     06C2  2EBD               	goto	u2347
  5670     06C3                     l2797:
  5671     06C3  0022               	movlb	2	; select bank2
  5672     06C4  178C               	bsf	12,7	;volatile
  5673     06C5                     l2799:
  5674     06C5  3006               	movlw	6
  5675     06C6  00F2               	movwf	??_ErrCode+1
  5676     06C7  3013               	movlw	19
  5677     06C8  00F1               	movwf	??_ErrCode
  5678     06C9  30AE               	movlw	174
  5679     06CA                     u2357:
  5680     06CA  0B89               	decfsz	9,f
  5681     06CB  2ECA               	goto	u2357
  5682     06CC  0BF1               	decfsz	??_ErrCode,f
  5683     06CD  2ECA               	goto	u2357
  5684     06CE  0BF2               	decfsz	??_ErrCode+1,f
  5685     06CF  2ECA               	goto	u2357
  5686     06D0                     l2801:
  5687     06D0  0022               	movlb	2	; select bank2
  5688     06D1  138C               	bcf	12,7	;volatile
  5689     06D2                     l2803:
  5690     06D2  3006               	movlw	6
  5691     06D3  00F2               	movwf	??_ErrCode+1
  5692     06D4  3013               	movlw	19
  5693     06D5  00F1               	movwf	??_ErrCode
  5694     06D6  30AE               	movlw	174
  5695     06D7                     u2367:
  5696     06D7  0B89               	decfsz	9,f
  5697     06D8  2ED7               	goto	u2367
  5698     06D9  0BF1               	decfsz	??_ErrCode,f
  5699     06DA  2ED7               	goto	u2367
  5700     06DB  0BF2               	decfsz	??_ErrCode+1,f
  5701     06DC  2ED7               	goto	u2367
  5702     06DD                     l2805:
  5703     06DD  0022               	movlb	2	; select bank2
  5704     06DE  170C               	bsf	12,6	;volatile
  5705     06DF                     l2807:
  5706     06DF  3006               	movlw	6
  5707     06E0  00F2               	movwf	??_ErrCode+1
  5708     06E1  3013               	movlw	19
  5709     06E2  00F1               	movwf	??_ErrCode
  5710     06E3  30AE               	movlw	174
  5711     06E4                     u2377:
  5712     06E4  0B89               	decfsz	9,f
  5713     06E5  2EE4               	goto	u2377
  5714     06E6  0BF1               	decfsz	??_ErrCode,f
  5715     06E7  2EE4               	goto	u2377
  5716     06E8  0BF2               	decfsz	??_ErrCode+1,f
  5717     06E9  2EE4               	goto	u2377
  5718     06EA                     l2809:
  5719     06EA  0022               	movlb	2	; select bank2
  5720     06EB  130C               	bcf	12,6	;volatile
  5721     06EC                     l2811:
  5722     06EC  3006               	movlw	6
  5723     06ED  00F2               	movwf	??_ErrCode+1
  5724     06EE  3013               	movlw	19
  5725     06EF  00F1               	movwf	??_ErrCode
  5726     06F0  30AE               	movlw	174
  5727     06F1                     u2387:
  5728     06F1  0B89               	decfsz	9,f
  5729     06F2  2EF1               	goto	u2387
  5730     06F3  0BF1               	decfsz	??_ErrCode,f
  5731     06F4  2EF1               	goto	u2387
  5732     06F5  0BF2               	decfsz	??_ErrCode+1,f
  5733     06F6  2EF1               	goto	u2387
  5734     06F7                     l2813:
  5735     06F7  0022               	movlb	2	; select bank2
  5736     06F8  170C               	bsf	12,6	;volatile
  5737     06F9                     l2815:
  5738     06F9  3006               	movlw	6
  5739     06FA  00F2               	movwf	??_ErrCode+1
  5740     06FB  3013               	movlw	19
  5741     06FC  00F1               	movwf	??_ErrCode
  5742     06FD  30AE               	movlw	174
  5743     06FE                     u2397:
  5744     06FE  0B89               	decfsz	9,f
  5745     06FF  2EFE               	goto	u2397
  5746     0700  0BF1               	decfsz	??_ErrCode,f
  5747     0701  2EFE               	goto	u2397
  5748     0702  0BF2               	decfsz	??_ErrCode+1,f
  5749     0703  2EFE               	goto	u2397
  5750     0704                     l2817:
  5751     0704  0022               	movlb	2	; select bank2
  5752     0705  130C               	bcf	12,6	;volatile
  5753     0706                     l2819:
  5754     0706  3006               	movlw	6
  5755     0707  00F2               	movwf	??_ErrCode+1
  5756     0708  3013               	movlw	19
  5757     0709  00F1               	movwf	??_ErrCode
  5758     070A  30AE               	movlw	174
  5759     070B                     u2407:
  5760     070B  0B89               	decfsz	9,f
  5761     070C  2F0B               	goto	u2407
  5762     070D  0BF1               	decfsz	??_ErrCode,f
  5763     070E  2F0B               	goto	u2407
  5764     070F  0BF2               	decfsz	??_ErrCode+1,f
  5765     0710  2F0B               	goto	u2407
  5766     0711                     l2821:
  5767                           
  5768                           ;main.c: 131:         _delay((unsigned long)((1000)*(16000000/4000.0)));
  5769     0711  3015               	movlw	21
  5770     0712  00F2               	movwf	??_ErrCode+1
  5771     0713  304B               	movlw	75
  5772     0714  00F1               	movwf	??_ErrCode
  5773     0715  30BE               	movlw	190
  5774     0716                     u2417:
  5775     0716  0B89               	decfsz	9,f
  5776     0717  2F16               	goto	u2417
  5777     0718  0BF1               	decfsz	??_ErrCode,f
  5778     0719  2F16               	goto	u2417
  5779     071A  0BF2               	decfsz	??_ErrCode+1,f
  5780     071B  2F16               	goto	u2417
  5781     071C  3200               	nop2
  5782                           
  5783                           ;main.c: 132:     }
  5784     071D  2EA9               	goto	l2789
  5785     071E  0008               	return
  5786     071F                     __end_of_ErrCode:
  5787                           
  5788                           	psect	text19
  5789     0DFA                     __ptext19:	
  5790 ;; *************** function _ModuloOff *****************
  5791 ;; Defined at:
  5792 ;;		line 111 in file "main.c"
  5793 ;; Parameters:    Size  Location     Type
  5794 ;;		None
  5795 ;; Auto vars:     Size  Location     Type
  5796 ;;		None
  5797 ;; Return value:  Size  Location     Type
  5798 ;;                  1    wreg      void 
  5799 ;; Registers used:
  5800 ;;		wreg
  5801 ;; Tracked objects:
  5802 ;;		On entry : 0/0
  5803 ;;		On exit  : 0/0
  5804 ;;		Unchanged: 0/0
  5805 ;; Data sizes:     COMMON   BANK0   BANK1   BANK2   BANK3   BANK4   BANK5   BANK6   BANK7   BANK8   BANK9  BANK10  BANK1
      +1  BANK12
  5806 ;;      Params:         0       0       0       0       0       0       0       0       0       0       0       0       
      +0       0
  5807 ;;      Locals:         0       0       0       0       0       0       0       0       0       0       0       0       
      +0       0
  5808 ;;      Temps:          1       0       0       0       0       0       0       0       0       0       0       0       
      +0       0
  5809 ;;      Totals:         1       0       0       0       0       0       0       0       0       0       0       0       
      +0       0
  5810 ;;Total ram usage:        1 bytes
  5811 ;; Hardware stack levels used: 1
  5812 ;; Hardware stack levels required when called: 4
  5813 ;; This function calls:
  5814 ;;		Nothing
  5815 ;; This function is called by:
  5816 ;;		_ErrCode
  5817 ;;		_main
  5818 ;; This function uses a non-reentrant model
  5819 ;;
  5820                           
  5821     0DFA                     _ModuloOff:	
  5822                           ;psect for function _ModuloOff
  5823                           
  5824     0DFA                     l488:	
  5825                           ;incstack = 0
  5826                           ; Regs used in _ModuloOff: [wreg]
  5827                           ;main.c: 113:     do { LATBbits.LATB1 = 0; } while(0); _delay((unsigned long)((10)*(1600
      +                          0000/4000.0)));
  5828                           
  5829     0DFA  0022               	movlb	2	; select bank2
  5830     0DFB  108D               	bcf	13,1	;volatile
  5831     0DFC                     l2585:
  5832     0DFC  3034               	movlw	52
  5833     0DFD  00F0               	movwf	??_ModuloOff
  5834     0DFE  30F2               	movlw	242
  5835     0DFF                     u2427:
  5836     0DFF  0B89               	decfsz	9,f
  5837     0E00  2DFF               	goto	u2427
  5838     0E01  0BF0               	decfsz	??_ModuloOff,f
  5839     0E02  2DFF               	goto	u2427
  5840     0E03                     l2587:
  5841     0E03  0021               	movlb	1	; select bank1
  5842     0E04  108D               	bcf	13,1	;volatile
  5843     0E05                     l491:
  5844     0E05  3034               	movlw	52
  5845     0E06  00F0               	movwf	??_ModuloOff
  5846     0E07  30F2               	movlw	242
  5847     0E08                     u2437:
  5848     0E08  0B89               	decfsz	9,f
  5849     0E09  2E08               	goto	u2437
  5850     0E0A  0BF0               	decfsz	??_ModuloOff,f
  5851     0E0B  2E08               	goto	u2437
  5852     0E0C                     l492:
  5853     0E0C  0008               	return
  5854     0E0D                     __end_of_ModuloOff:
  5855                           
  5856                           	psect	text20
  5857     0762                     __ptext20:	
  5858 ;; *************** function _EUSART_Initialize *****************
  5859 ;; Defined at:
  5860 ;;		line 75 in file "mcc_generated_files/eusart.c"
  5861 ;; Parameters:    Size  Location     Type
  5862 ;;		None
  5863 ;; Auto vars:     Size  Location     Type
  5864 ;;		None
  5865 ;; Return value:  Size  Location     Type
  5866 ;;                  1    wreg      void 
  5867 ;; Registers used:
  5868 ;;		wreg, status,2, status,0, pclath, cstack
  5869 ;; Tracked objects:
  5870 ;;		On entry : 0/0
  5871 ;;		On exit  : 0/0
  5872 ;;		Unchanged: 0/0
  5873 ;; Data sizes:     COMMON   BANK0   BANK1   BANK2   BANK3   BANK4   BANK5   BANK6   BANK7   BANK8   BANK9  BANK10  BANK1
      +1  BANK12
  5874 ;;      Params:         0       0       0       0       0       0       0       0       0       0       0       0       
      +0       0
  5875 ;;      Locals:         0       0       0       0       0       0       0       0       0       0       0       0       
      +0       0
  5876 ;;      Temps:          0       0       0       0       0       0       0       0       0       0       0       0       
      +0       0
  5877 ;;      Totals:         0       0       0       0       0       0       0       0       0       0       0       0       
      +0       0
  5878 ;;Total ram usage:        0 bytes
  5879 ;; Hardware stack levels used: 1
  5880 ;; Hardware stack levels required when called: 5
  5881 ;; This function calls:
  5882 ;;		_EUSART_SetErrorHandler
  5883 ;;		_EUSART_SetFramingErrorHandler
  5884 ;;		_EUSART_SetOverrunErrorHandler
  5885 ;;		_EUSART_SetRxInterruptHandler
  5886 ;;		_EUSART_SetTxInterruptHandler
  5887 ;; This function is called by:
  5888 ;;		_main
  5889 ;; This function uses a non-reentrant model
  5890 ;;
  5891                           
  5892     0762                     _EUSART_Initialize:	
  5893                           ;psect for function _EUSART_Initialize
  5894                           
  5895     0762                     l2701:	
  5896                           ;incstack = 0
  5897                           ; Regs used in _EUSART_Initialize: [wreg+status,2+status,0+pclath+cstack]
  5898                           
  5899                           
  5900                           ;mcc_generated_files/eusart.c: 78:     PIE1bits.RCIE = 0;
  5901     0762  0021               	movlb	1	; select bank1
  5902     0763  1291               	bcf	17,5	;volatile
  5903     0764                     l2703:
  5904                           
  5905                           ;mcc_generated_files/eusart.c: 79:     EUSART_SetRxInterruptHandler(EUSART_Receive_ISR);
  5906     0764  30A0               	movlw	low _EUSART_Receive_ISR
  5907     0765  00F0               	movwf	EUSART_SetRxInterruptHandler@interruptHandler
  5908     0766  3007               	movlw	high _EUSART_Receive_ISR
  5909     0767  00F1               	movwf	EUSART_SetRxInterruptHandler@interruptHandler+1
  5910     0768  318D  25E1  3187   	fcall	_EUSART_SetRxInterruptHandler
  5911     076B                     l2705:
  5912                           
  5913                           ;mcc_generated_files/eusart.c: 80:     PIE1bits.TXIE = 0;
  5914     076B  0021               	movlb	1	; select bank1
  5915     076C  1211               	bcf	17,4	;volatile
  5916                           
  5917                           ;mcc_generated_files/eusart.c: 81:     EUSART_SetTxInterruptHandler(EUSART_Transmit_ISR)
      +                          ;
  5918     076D  3026               	movlw	low _EUSART_Transmit_ISR
  5919     076E  00F0               	movwf	EUSART_SetTxInterruptHandler@interruptHandler
  5920     076F  300E               	movlw	high _EUSART_Transmit_ISR
  5921     0770  00F1               	movwf	EUSART_SetTxInterruptHandler@interruptHandler+1
  5922     0771  318D  25E7  3187   	fcall	_EUSART_SetTxInterruptHandler
  5923     0774                     l2707:
  5924                           
  5925                           ;mcc_generated_files/eusart.c: 85:     BAUDCON = 0x08;
  5926     0774  3008               	movlw	8
  5927     0775  0023               	movlb	3	; select bank3
  5928     0776  009F               	movwf	31	;volatile
  5929     0777                     l2709:
  5930                           
  5931                           ;mcc_generated_files/eusart.c: 88:     RCSTA = 0x90;
  5932     0777  3090               	movlw	144
  5933     0778  009D               	movwf	29	;volatile
  5934     0779                     l2711:
  5935                           
  5936                           ;mcc_generated_files/eusart.c: 91:     TXSTA = 0x24;
  5937     0779  3024               	movlw	36
  5938     077A  009E               	movwf	30	;volatile
  5939     077B                     l2713:
  5940                           
  5941                           ;mcc_generated_files/eusart.c: 94:     SPBRGL = 0xA0;
  5942     077B  30A0               	movlw	160
  5943     077C  009B               	movwf	27	;volatile
  5944     077D                     l2715:
  5945                           
  5946                           ;mcc_generated_files/eusart.c: 97:     SPBRGH = 0x01;
  5947     077D  3001               	movlw	1
  5948     077E  009C               	movwf	28	;volatile
  5949                           
  5950                           ;mcc_generated_files/eusart.c: 100:     EUSART_SetFramingErrorHandler(EUSART_DefaultFram
      +                          ingErrorHandler);
  5951     077F  30FF               	movlw	low _EUSART_DefaultFramingErrorHandler
  5952     0780  00F0               	movwf	EUSART_SetFramingErrorHandler@interruptHandler
  5953     0781  3007               	movlw	high _EUSART_DefaultFramingErrorHandler
  5954     0782  00F1               	movwf	EUSART_SetFramingErrorHandler@interruptHandler+1
  5955     0783  318D  25D5  3187   	fcall	_EUSART_SetFramingErrorHandler
  5956                           
  5957                           ;mcc_generated_files/eusart.c: 101:     EUSART_SetOverrunErrorHandler(EUSART_DefaultOver
      +                          runErrorHandler);
  5958     0786  30C7               	movlw	low _EUSART_DefaultOverrunErrorHandler
  5959     0787  00F0               	movwf	EUSART_SetOverrunErrorHandler@interruptHandler
  5960     0788  300D               	movlw	high _EUSART_DefaultOverrunErrorHandler
  5961     0789  00F1               	movwf	EUSART_SetOverrunErrorHandler@interruptHandler+1
  5962     078A  318D  25DB  3187   	fcall	_EUSART_SetOverrunErrorHandler
  5963                           
  5964                           ;mcc_generated_files/eusart.c: 102:     EUSART_SetErrorHandler(EUSART_DefaultErrorHandle
      +                          r);
  5965     078D  30C3               	movlw	low _EUSART_DefaultErrorHandler
  5966     078E  00F0               	movwf	EUSART_SetErrorHandler@interruptHandler
  5967     078F  300D               	movlw	high _EUSART_DefaultErrorHandler
  5968     0790  00F1               	movwf	EUSART_SetErrorHandler@interruptHandler+1
  5969     0791  318D  25CF  3187   	fcall	_EUSART_SetErrorHandler
  5970     0794                     l2717:
  5971                           
  5972                           ;mcc_generated_files/eusart.c: 104:     eusartRxLastError.status = 0;
  5973     0794  0020               	movlb	0	; select bank0
  5974     0795  01DE               	clrf	_eusartRxLastError	;volatile
  5975     0796                     l2719:
  5976                           
  5977                           ;mcc_generated_files/eusart.c: 107:     eusartTxHead = 0;
  5978     0796  01E3               	clrf	_eusartTxHead	;volatile
  5979     0797                     l2721:
  5980                           
  5981                           ;mcc_generated_files/eusart.c: 108:     eusartTxTail = 0;
  5982     0797  01E2               	clrf	_eusartTxTail	;volatile
  5983     0798                     l2723:
  5984                           
  5985                           ;mcc_generated_files/eusart.c: 109:     eusartTxBufferRemaining = sizeof(eusartTxBuffer)
      +                          ;
  5986     0798  3020               	movlw	32
  5987     0799  00E1               	movwf	_eusartTxBufferRemaining	;volatile
  5988     079A                     l2725:
  5989                           
  5990                           ;mcc_generated_files/eusart.c: 111:     eusartRxHead = 0;
  5991     079A  01FC               	clrf	_eusartRxHead	;volatile
  5992     079B                     l2727:
  5993                           
  5994                           ;mcc_generated_files/eusart.c: 112:     eusartRxTail = 0;
  5995     079B  01E0               	clrf	_eusartRxTail	;volatile
  5996     079C                     l2729:
  5997                           
  5998                           ;mcc_generated_files/eusart.c: 113:     eusartRxCount = 0;
  5999     079C  01DF               	clrf	_eusartRxCount	;volatile
  6000     079D                     l2731:
  6001                           
  6002                           ;mcc_generated_files/eusart.c: 116:     PIE1bits.RCIE = 1;
  6003     079D  0021               	movlb	1	; select bank1
  6004     079E  1691               	bsf	17,5	;volatile
  6005     079F                     l148:
  6006     079F  0008               	return
  6007     07A0                     __end_of_EUSART_Initialize:
  6008                           
  6009                           	psect	text21
  6010     0DE7                     __ptext21:	
  6011 ;; *************** function _EUSART_SetTxInterruptHandler *****************
  6012 ;; Defined at:
  6013 ;;		line 255 in file "mcc_generated_files/eusart.c"
  6014 ;; Parameters:    Size  Location     Type
  6015 ;;  interruptHan    2    0[COMMON] PTR FTN()void 
  6016 ;;		 -> EUSART_Transmit_ISR(1), 
  6017 ;; Auto vars:     Size  Location     Type
  6018 ;;		None
  6019 ;; Return value:  Size  Location     Type
  6020 ;;                  1    wreg      void 
  6021 ;; Registers used:
  6022 ;;		wreg
  6023 ;; Tracked objects:
  6024 ;;		On entry : 0/0
  6025 ;;		On exit  : 0/0
  6026 ;;		Unchanged: 0/0
  6027 ;; Data sizes:     COMMON   BANK0   BANK1   BANK2   BANK3   BANK4   BANK5   BANK6   BANK7   BANK8   BANK9  BANK10  BANK1
      +1  BANK12
  6028 ;;      Params:         2       0       0       0       0       0       0       0       0       0       0       0       
      +0       0
  6029 ;;      Locals:         0       0       0       0       0       0       0       0       0       0       0       0       
      +0       0
  6030 ;;      Temps:          0       0       0       0       0       0       0       0       0       0       0       0       
      +0       0
  6031 ;;      Totals:         2       0       0       0       0       0       0       0       0       0       0       0       
      +0       0
  6032 ;;Total ram usage:        2 bytes
  6033 ;; Hardware stack levels used: 1
  6034 ;; Hardware stack levels required when called: 4
  6035 ;; This function calls:
  6036 ;;		Nothing
  6037 ;; This function is called by:
  6038 ;;		_EUSART_Initialize
  6039 ;; This function uses a non-reentrant model
  6040 ;;
  6041                           
  6042     0DE7                     _EUSART_SetTxInterruptHandler:	
  6043                           ;psect for function _EUSART_SetTxInterruptHandler
  6044                           
  6045     0DE7                     l2553:	
  6046                           ;incstack = 0
  6047                           ; Regs used in _EUSART_SetTxInterruptHandler: [wreg]
  6048                           
  6049                           
  6050                           ;mcc_generated_files/eusart.c: 256:     EUSART_TxDefaultInterruptHandler = interruptHand
      +                          ler;
  6051     0DE7  0871               	movf	EUSART_SetTxInterruptHandler@interruptHandler+1,w
  6052     0DE8  0020               	movlb	0	; select bank0
  6053     0DE9  00BD               	movwf	_EUSART_TxDefaultInterruptHandler+1
  6054     0DEA  0870               	movf	EUSART_SetTxInterruptHandler@interruptHandler,w
  6055     0DEB  00BC               	movwf	_EUSART_TxDefaultInterruptHandler
  6056     0DEC                     l210:
  6057     0DEC  0008               	return
  6058     0DED                     __end_of_EUSART_SetTxInterruptHandler:
  6059                           
  6060                           	psect	text22
  6061     0DE1                     __ptext22:	
  6062 ;; *************** function _EUSART_SetRxInterruptHandler *****************
  6063 ;; Defined at:
  6064 ;;		line 259 in file "mcc_generated_files/eusart.c"
  6065 ;; Parameters:    Size  Location     Type
  6066 ;;  interruptHan    2    0[COMMON] PTR FTN()void 
  6067 ;;		 -> EUSART_Receive_ISR(1), 
  6068 ;; Auto vars:     Size  Location     Type
  6069 ;;		None
  6070 ;; Return value:  Size  Location     Type
  6071 ;;                  1    wreg      void 
  6072 ;; Registers used:
  6073 ;;		wreg
  6074 ;; Tracked objects:
  6075 ;;		On entry : 0/0
  6076 ;;		On exit  : 0/0
  6077 ;;		Unchanged: 0/0
  6078 ;; Data sizes:     COMMON   BANK0   BANK1   BANK2   BANK3   BANK4   BANK5   BANK6   BANK7   BANK8   BANK9  BANK10  BANK1
      +1  BANK12
  6079 ;;      Params:         2       0       0       0       0       0       0       0       0       0       0       0       
      +0       0
  6080 ;;      Locals:         0       0       0       0       0       0       0       0       0       0       0       0       
      +0       0
  6081 ;;      Temps:          0       0       0       0       0       0       0       0       0       0       0       0       
      +0       0
  6082 ;;      Totals:         2       0       0       0       0       0       0       0       0       0       0       0       
      +0       0
  6083 ;;Total ram usage:        2 bytes
  6084 ;; Hardware stack levels used: 1
  6085 ;; Hardware stack levels required when called: 4
  6086 ;; This function calls:
  6087 ;;		Nothing
  6088 ;; This function is called by:
  6089 ;;		_EUSART_Initialize
  6090 ;; This function uses a non-reentrant model
  6091 ;;
  6092                           
  6093     0DE1                     _EUSART_SetRxInterruptHandler:	
  6094                           ;psect for function _EUSART_SetRxInterruptHandler
  6095                           
  6096     0DE1                     l2551:	
  6097                           ;incstack = 0
  6098                           ; Regs used in _EUSART_SetRxInterruptHandler: [wreg]
  6099                           
  6100                           
  6101                           ;mcc_generated_files/eusart.c: 260:     EUSART_RxDefaultInterruptHandler = interruptHand
      +                          ler;
  6102     0DE1  0871               	movf	EUSART_SetRxInterruptHandler@interruptHandler+1,w
  6103     0DE2  0020               	movlb	0	; select bank0
  6104     0DE3  00BB               	movwf	_EUSART_RxDefaultInterruptHandler+1
  6105     0DE4  0870               	movf	EUSART_SetRxInterruptHandler@interruptHandler,w
  6106     0DE5  00BA               	movwf	_EUSART_RxDefaultInterruptHandler
  6107     0DE6                     l213:
  6108     0DE6  0008               	return
  6109     0DE7                     __end_of_EUSART_SetRxInterruptHandler:
  6110                           
  6111                           	psect	text23
  6112     0DDB                     __ptext23:	
  6113 ;; *************** function _EUSART_SetOverrunErrorHandler *****************
  6114 ;; Defined at:
  6115 ;;		line 247 in file "mcc_generated_files/eusart.c"
  6116 ;; Parameters:    Size  Location     Type
  6117 ;;  interruptHan    2    0[COMMON] PTR FTN()void 
  6118 ;;		 -> EUSART_DefaultOverrunErrorHandler(1), 
  6119 ;; Auto vars:     Size  Location     Type
  6120 ;;		None
  6121 ;; Return value:  Size  Location     Type
  6122 ;;                  1    wreg      void 
  6123 ;; Registers used:
  6124 ;;		wreg
  6125 ;; Tracked objects:
  6126 ;;		On entry : 0/0
  6127 ;;		On exit  : 0/0
  6128 ;;		Unchanged: 0/0
  6129 ;; Data sizes:     COMMON   BANK0   BANK1   BANK2   BANK3   BANK4   BANK5   BANK6   BANK7   BANK8   BANK9  BANK10  BANK1
      +1  BANK12
  6130 ;;      Params:         2       0       0       0       0       0       0       0       0       0       0       0       
      +0       0
  6131 ;;      Locals:         0       0       0       0       0       0       0       0       0       0       0       0       
      +0       0
  6132 ;;      Temps:          0       0       0       0       0       0       0       0       0       0       0       0       
      +0       0
  6133 ;;      Totals:         2       0       0       0       0       0       0       0       0       0       0       0       
      +0       0
  6134 ;;Total ram usage:        2 bytes
  6135 ;; Hardware stack levels used: 1
  6136 ;; Hardware stack levels required when called: 4
  6137 ;; This function calls:
  6138 ;;		Nothing
  6139 ;; This function is called by:
  6140 ;;		_EUSART_Initialize
  6141 ;; This function uses a non-reentrant model
  6142 ;;
  6143                           
  6144     0DDB                     _EUSART_SetOverrunErrorHandler:	
  6145                           ;psect for function _EUSART_SetOverrunErrorHandler
  6146                           
  6147     0DDB                     l2557:	
  6148                           ;incstack = 0
  6149                           ; Regs used in _EUSART_SetOverrunErrorHandler: [wreg]
  6150                           
  6151                           
  6152                           ;mcc_generated_files/eusart.c: 248:     EUSART_OverrunErrorHandler = interruptHandler;
  6153     0DDB  0871               	movf	EUSART_SetOverrunErrorHandler@interruptHandler+1,w
  6154     0DDC  0020               	movlb	0	; select bank0
  6155     0DDD  00B7               	movwf	_EUSART_OverrunErrorHandler+1
  6156     0DDE  0870               	movf	EUSART_SetOverrunErrorHandler@interruptHandler,w
  6157     0DDF  00B6               	movwf	_EUSART_OverrunErrorHandler
  6158     0DE0                     l204:
  6159     0DE0  0008               	return
  6160     0DE1                     __end_of_EUSART_SetOverrunErrorHandler:
  6161                           
  6162                           	psect	text24
  6163     0DD5                     __ptext24:	
  6164 ;; *************** function _EUSART_SetFramingErrorHandler *****************
  6165 ;; Defined at:
  6166 ;;		line 243 in file "mcc_generated_files/eusart.c"
  6167 ;; Parameters:    Size  Location     Type
  6168 ;;  interruptHan    2    0[COMMON] PTR FTN()void 
  6169 ;;		 -> EUSART_DefaultFramingErrorHandler(1), 
  6170 ;; Auto vars:     Size  Location     Type
  6171 ;;		None
  6172 ;; Return value:  Size  Location     Type
  6173 ;;                  1    wreg      void 
  6174 ;; Registers used:
  6175 ;;		wreg
  6176 ;; Tracked objects:
  6177 ;;		On entry : 0/0
  6178 ;;		On exit  : 0/0
  6179 ;;		Unchanged: 0/0
  6180 ;; Data sizes:     COMMON   BANK0   BANK1   BANK2   BANK3   BANK4   BANK5   BANK6   BANK7   BANK8   BANK9  BANK10  BANK1
      +1  BANK12
  6181 ;;      Params:         2       0       0       0       0       0       0       0       0       0       0       0       
      +0       0
  6182 ;;      Locals:         0       0       0       0       0       0       0       0       0       0       0       0       
      +0       0
  6183 ;;      Temps:          0       0       0       0       0       0       0       0       0       0       0       0       
      +0       0
  6184 ;;      Totals:         2       0       0       0       0       0       0       0       0       0       0       0       
      +0       0
  6185 ;;Total ram usage:        2 bytes
  6186 ;; Hardware stack levels used: 1
  6187 ;; Hardware stack levels required when called: 4
  6188 ;; This function calls:
  6189 ;;		Nothing
  6190 ;; This function is called by:
  6191 ;;		_EUSART_Initialize
  6192 ;; This function uses a non-reentrant model
  6193 ;;
  6194                           
  6195     0DD5                     _EUSART_SetFramingErrorHandler:	
  6196                           ;psect for function _EUSART_SetFramingErrorHandler
  6197                           
  6198     0DD5                     l2555:	
  6199                           ;incstack = 0
  6200                           ; Regs used in _EUSART_SetFramingErrorHandler: [wreg]
  6201                           
  6202                           
  6203                           ;mcc_generated_files/eusart.c: 244:     EUSART_FramingErrorHandler = interruptHandler;
  6204     0DD5  0871               	movf	EUSART_SetFramingErrorHandler@interruptHandler+1,w
  6205     0DD6  0020               	movlb	0	; select bank0
  6206     0DD7  00B9               	movwf	_EUSART_FramingErrorHandler+1
  6207     0DD8  0870               	movf	EUSART_SetFramingErrorHandler@interruptHandler,w
  6208     0DD9  00B8               	movwf	_EUSART_FramingErrorHandler
  6209     0DDA                     l201:
  6210     0DDA  0008               	return
  6211     0DDB                     __end_of_EUSART_SetFramingErrorHandler:
  6212                           
  6213                           	psect	text25
  6214     0DCF                     __ptext25:	
  6215 ;; *************** function _EUSART_SetErrorHandler *****************
  6216 ;; Defined at:
  6217 ;;		line 251 in file "mcc_generated_files/eusart.c"
  6218 ;; Parameters:    Size  Location     Type
  6219 ;;  interruptHan    2    0[COMMON] PTR FTN()void 
  6220 ;;		 -> EUSART_DefaultErrorHandler(1), 
  6221 ;; Auto vars:     Size  Location     Type
  6222 ;;		None
  6223 ;; Return value:  Size  Location     Type
  6224 ;;                  1    wreg      void 
  6225 ;; Registers used:
  6226 ;;		wreg
  6227 ;; Tracked objects:
  6228 ;;		On entry : 0/0
  6229 ;;		On exit  : 0/0
  6230 ;;		Unchanged: 0/0
  6231 ;; Data sizes:     COMMON   BANK0   BANK1   BANK2   BANK3   BANK4   BANK5   BANK6   BANK7   BANK8   BANK9  BANK10  BANK1
      +1  BANK12
  6232 ;;      Params:         2       0       0       0       0       0       0       0       0       0       0       0       
      +0       0
  6233 ;;      Locals:         0       0       0       0       0       0       0       0       0       0       0       0       
      +0       0
  6234 ;;      Temps:          0       0       0       0       0       0       0       0       0       0       0       0       
      +0       0
  6235 ;;      Totals:         2       0       0       0       0       0       0       0       0       0       0       0       
      +0       0
  6236 ;;Total ram usage:        2 bytes
  6237 ;; Hardware stack levels used: 1
  6238 ;; Hardware stack levels required when called: 4
  6239 ;; This function calls:
  6240 ;;		Nothing
  6241 ;; This function is called by:
  6242 ;;		_EUSART_Initialize
  6243 ;; This function uses a non-reentrant model
  6244 ;;
  6245                           
  6246     0DCF                     _EUSART_SetErrorHandler:	
  6247                           ;psect for function _EUSART_SetErrorHandler
  6248                           
  6249     0DCF                     l2559:	
  6250                           ;incstack = 0
  6251                           ; Regs used in _EUSART_SetErrorHandler: [wreg]
  6252                           
  6253                           
  6254                           ;mcc_generated_files/eusart.c: 252:     EUSART_ErrorHandler = interruptHandler;
  6255     0DCF  0871               	movf	EUSART_SetErrorHandler@interruptHandler+1,w
  6256     0DD0  0021               	movlb	1	; select bank1
  6257     0DD1  00E7               	movwf	(_EUSART_ErrorHandler+1)^(0+128)
  6258     0DD2  0870               	movf	EUSART_SetErrorHandler@interruptHandler,w
  6259     0DD3  00E6               	movwf	_EUSART_ErrorHandler^(0+128)
  6260     0DD4                     l207:
  6261     0DD4  0008               	return
  6262     0DD5                     __end_of_EUSART_SetErrorHandler:
  6263                           
  6264                           	psect	intentry
  6265     0004                     __pintentry:	
  6266 ;; *************** function _INTERRUPT_InterruptManager *****************
  6267 ;; Defined at:
  6268 ;;		line 52 in file "mcc_generated_files/interrupt_manager.c"
  6269 ;; Parameters:    Size  Location     Type
  6270 ;;		None
  6271 ;; Auto vars:     Size  Location     Type
  6272 ;;		None
  6273 ;; Return value:  Size  Location     Type
  6274 ;;                  1    wreg      void 
  6275 ;; Registers used:
  6276 ;;		wreg, fsr1l, fsr1h, status,2, status,0, pclath, cstack
  6277 ;; Tracked objects:
  6278 ;;		On entry : 0/0
  6279 ;;		On exit  : 0/0
  6280 ;;		Unchanged: 0/0
  6281 ;; Data sizes:     COMMON   BANK0   BANK1   BANK2   BANK3   BANK4   BANK5   BANK6   BANK7   BANK8   BANK9  BANK10  BANK1
      +1  BANK12
  6282 ;;      Params:         0       0       0       0       0       0       0       0       0       0       0       0       
      +0       0
  6283 ;;      Locals:         0       0       0       0       0       0       0       0       0       0       0       0       
      +0       0
  6284 ;;      Temps:          0       0       0       0       0       0       0       0       0       0       0       0       
      +0       0
  6285 ;;      Totals:         0       0       0       0       0       0       0       0       0       0       0       0       
      +0       0
  6286 ;;Total ram usage:        0 bytes
  6287 ;; Hardware stack levels used: 1
  6288 ;; Hardware stack levels required when called: 3
  6289 ;; This function calls:
  6290 ;;		NULL
  6291 ;;		_EUSART_Receive_ISR
  6292 ;;		_EUSART_Transmit_ISR
  6293 ;; This function is called by:
  6294 ;;		Interrupt level 1
  6295 ;; This function uses a non-reentrant model
  6296 ;;
  6297                           
  6298     0004                     _INTERRUPT_InterruptManager:
  6299                           
  6300                           ;incstack = 0
  6301     0004  147E               	bsf	int$flags,0	;set compiler interrupt flag (level 1)
  6302                           
  6303                           ; Regs used in _INTERRUPT_InterruptManager: [wreg+fsr1l+fsr1h+status,2+status,0+pclath+c
      +                          stack]
  6304     0005  3180               	pagesel	$
  6305     0006                     i1l2967:
  6306                           
  6307                           ;mcc_generated_files/interrupt_manager.c: 55:     if(INTCONbits.PEIE == 1)
  6308     0006  1F0B               	btfss	11,6	;volatile
  6309     0007  2809               	goto	u168_21
  6310     0008  280A               	goto	u168_20
  6311     0009                     u168_21:
  6312     0009  282A               	goto	i1l38
  6313     000A                     u168_20:
  6314     000A                     i1l2969:
  6315                           
  6316                           ;mcc_generated_files/interrupt_manager.c: 56:     {;mcc_generated_files/interrupt_manage
      +                          r.c: 57:         if(PIE1bits.TXIE == 1 && PIR1bits.TXIF == 1)
  6317     000A  0021               	movlb	1	; select bank1
  6318     000B  1E11               	btfss	17,4	;volatile
  6319     000C  280E               	goto	u169_21
  6320     000D  280F               	goto	u169_20
  6321     000E                     u169_21:
  6322     000E  281A               	goto	i1l33
  6323     000F                     u169_20:
  6324     000F                     i1l2971:
  6325     000F  0020               	movlb	0	; select bank0
  6326     0010  1E11               	btfss	17,4	;volatile
  6327     0011  2813               	goto	u170_21
  6328     0012  2814               	goto	u170_20
  6329     0013                     u170_21:
  6330     0013  281A               	goto	i1l33
  6331     0014                     u170_20:
  6332     0014                     i1l2973:
  6333                           
  6334                           ;mcc_generated_files/interrupt_manager.c: 58:         {;mcc_generated_files/interrupt_ma
      +                          nager.c: 59:             EUSART_TxDefaultInterruptHandler();
  6335     0014  083D               	movf	_EUSART_TxDefaultInterruptHandler+1,w
  6336     0015  008A               	movwf	10
  6337     0016  083C               	movf	_EUSART_TxDefaultInterruptHandler,w
  6338     0017  000A               	callw
  6339     0018  3180               	pagesel	$
  6340                           
  6341                           ;mcc_generated_files/interrupt_manager.c: 60:         }
  6342     0019  282A               	goto	i1l38
  6343     001A                     i1l33:	
  6344                           ;mcc_generated_files/interrupt_manager.c: 61:         else if(PIE1bits.RCIE == 1 && PIR1
      +                          bits.RCIF == 1)
  6345                           
  6346     001A  0021               	movlb	1	; select bank1
  6347     001B  1E91               	btfss	17,5	;volatile
  6348     001C  281E               	goto	u171_21
  6349     001D  281F               	goto	u171_20
  6350     001E                     u171_21:
  6351     001E  282A               	goto	i1l34
  6352     001F                     u171_20:
  6353     001F                     i1l2975:
  6354     001F  0020               	movlb	0	; select bank0
  6355     0020  1E91               	btfss	17,5	;volatile
  6356     0021  2823               	goto	u172_21
  6357     0022  2824               	goto	u172_20
  6358     0023                     u172_21:
  6359     0023  282A               	goto	i1l34
  6360     0024                     u172_20:
  6361     0024                     i1l2977:
  6362                           
  6363                           ;mcc_generated_files/interrupt_manager.c: 62:         {;mcc_generated_files/interrupt_ma
      +                          nager.c: 63:             EUSART_RxDefaultInterruptHandler();
  6364     0024  083B               	movf	_EUSART_RxDefaultInterruptHandler+1,w
  6365     0025  008A               	movwf	10
  6366     0026  083A               	movf	_EUSART_RxDefaultInterruptHandler,w
  6367     0027  000A               	callw
  6368     0028  3180               	pagesel	$
  6369                           
  6370                           ;mcc_generated_files/interrupt_manager.c: 64:         }
  6371     0029  282A               	goto	i1l38
  6372     002A                     i1l34:
  6373     002A                     i1l38:	
  6374                           ;mcc_generated_files/interrupt_manager.c: 69:     }
  6375                           
  6376     002A  107E               	bcf	int$flags,0	;clear compiler interrupt flag (level 1)
  6377     002B  0009               	retfie
  6378     002C                     __end_of_INTERRUPT_InterruptManager:
  6379                           
  6380                           	psect	text27
  6381     0E26                     __ptext27:	
  6382 ;; *************** function _EUSART_Transmit_ISR *****************
  6383 ;; Defined at:
  6384 ;;		line 186 in file "mcc_generated_files/eusart.c"
  6385 ;; Parameters:    Size  Location     Type
  6386 ;;		None
  6387 ;; Auto vars:     Size  Location     Type
  6388 ;;		None
  6389 ;; Return value:  Size  Location     Type
  6390 ;;                  1    wreg      void 
  6391 ;; Registers used:
  6392 ;;		wreg, fsr1l, fsr1h, status,2, status,0
  6393 ;; Tracked objects:
  6394 ;;		On entry : 0/0
  6395 ;;		On exit  : 0/0
  6396 ;;		Unchanged: 0/0
  6397 ;; Data sizes:     COMMON   BANK0   BANK1   BANK2   BANK3   BANK4   BANK5   BANK6   BANK7   BANK8   BANK9  BANK10  BANK1
      +1  BANK12
  6398 ;;      Params:         0       0       0       0       0       0       0       0       0       0       0       0       
      +0       0
  6399 ;;      Locals:         0       0       0       0       0       0       0       0       0       0       0       0       
      +0       0
  6400 ;;      Temps:          0       0       0       0       0       0       0       0       0       0       0       0       
      +0       0
  6401 ;;      Totals:         0       0       0       0       0       0       0       0       0       0       0       0       
      +0       0
  6402 ;;Total ram usage:        0 bytes
  6403 ;; Hardware stack levels used: 1
  6404 ;; This function calls:
  6405 ;;		Nothing
  6406 ;; This function is called by:
  6407 ;;		_EUSART_Initialize
  6408 ;;		_INTERRUPT_InterruptManager
  6409 ;; This function uses a non-reentrant model
  6410 ;;
  6411                           
  6412     0E26                     _EUSART_Transmit_ISR:	
  6413                           ;psect for function _EUSART_Transmit_ISR
  6414                           
  6415     0E26                     i1l2733:	
  6416                           ;incstack = 0
  6417                           ; Regs used in _EUSART_Transmit_ISR: [wreg+fsr1l+fsr1h+status,2+status,0]
  6418                           
  6419                           
  6420                           ;mcc_generated_files/eusart.c: 190:     if(sizeof(eusartTxBuffer) > eusartTxBufferRemain
      +                          ing)
  6421     0E26  3020               	movlw	32
  6422     0E27  0020               	movlb	0	; select bank0
  6423     0E28  0261               	subwf	_eusartTxBufferRemaining,w	;volatile
  6424     0E29  1803               	skipnc
  6425     0E2A  2E2C               	goto	u153_21
  6426     0E2B  2E2D               	goto	u153_20
  6427     0E2C                     u153_21:
  6428     0E2C  2E41               	goto	i1l179
  6429     0E2D                     u153_20:
  6430     0E2D                     i1l2735:
  6431                           
  6432                           ;mcc_generated_files/eusart.c: 191:     {;mcc_generated_files/eusart.c: 192:         TXR
      +                          EG = eusartTxBuffer[eusartTxTail++];
  6433     0E2D  0862               	movf	_eusartTxTail,w
  6434     0E2E  3EA0               	addlw	(low (_eusartTxBuffer| 0))& (0+255)
  6435     0E2F  0086               	movwf	6
  6436     0E30  0187               	clrf	7
  6437     0E31  0801               	movf	1,w
  6438     0E32  0023               	movlb	3	; select bank3
  6439     0E33  009A               	movwf	26	;volatile
  6440     0E34                     i1l2737:
  6441     0E34  3001               	movlw	1
  6442     0E35  0020               	movlb	0	; select bank0
  6443     0E36  07E2               	addwf	_eusartTxTail,f	;volatile
  6444     0E37                     i1l2739:
  6445                           
  6446                           ;mcc_generated_files/eusart.c: 193:         if(sizeof(eusartTxBuffer) <= eusartTxTail)
  6447     0E37  3020               	movlw	32
  6448     0E38  0262               	subwf	_eusartTxTail,w	;volatile
  6449     0E39  1C03               	skipc
  6450     0E3A  2E3C               	goto	u154_21
  6451     0E3B  2E3D               	goto	u154_20
  6452     0E3C                     u154_21:
  6453     0E3C  2E3E               	goto	i1l2743
  6454     0E3D                     u154_20:
  6455     0E3D                     i1l2741:
  6456                           
  6457                           ;mcc_generated_files/eusart.c: 194:         {;mcc_generated_files/eusart.c: 195:        
      +                               eusartTxTail = 0;
  6458     0E3D  01E2               	clrf	_eusartTxTail	;volatile
  6459     0E3E                     i1l2743:
  6460                           
  6461                           ;mcc_generated_files/eusart.c: 197:         eusartTxBufferRemaining++;
  6462     0E3E  3001               	movlw	1
  6463     0E3F  07E1               	addwf	_eusartTxBufferRemaining,f	;volatile
  6464                           
  6465                           ;mcc_generated_files/eusart.c: 198:     }
  6466     0E40  2E43               	goto	i1l182
  6467     0E41                     i1l179:	
  6468                           ;mcc_generated_files/eusart.c: 199:     else
  6469                           
  6470                           
  6471                           ;mcc_generated_files/eusart.c: 200:     {;mcc_generated_files/eusart.c: 201:         PIE
      +                          1bits.TXIE = 0;
  6472     0E41  0021               	movlb	1	; select bank1
  6473     0E42  1211               	bcf	17,4	;volatile
  6474     0E43                     i1l182:
  6475     0E43  0008               	return
  6476     0E44                     __end_of_EUSART_Transmit_ISR:
  6477                           
  6478                           	psect	text28
  6479     07A0                     __ptext28:	
  6480 ;; *************** function _EUSART_Receive_ISR *****************
  6481 ;; Defined at:
  6482 ;;		line 205 in file "mcc_generated_files/eusart.c"
  6483 ;; Parameters:    Size  Location     Type
  6484 ;;		None
  6485 ;; Auto vars:     Size  Location     Type
  6486 ;;		None
  6487 ;; Return value:  Size  Location     Type
  6488 ;;                  1    wreg      void 
  6489 ;; Registers used:
  6490 ;;		wreg, fsr1l, fsr1h, status,2, status,0, pclath, cstack
  6491 ;; Tracked objects:
  6492 ;;		On entry : 0/0
  6493 ;;		On exit  : 0/0
  6494 ;;		Unchanged: 0/0
  6495 ;; Data sizes:     COMMON   BANK0   BANK1   BANK2   BANK3   BANK4   BANK5   BANK6   BANK7   BANK8   BANK9  BANK10  BANK1
      +1  BANK12
  6496 ;;      Params:         0       0       0       0       0       0       0       0       0       0       0       0       
      +0       0
  6497 ;;      Locals:         0       0       0       0       0       0       0       0       0       0       0       0       
      +0       0
  6498 ;;      Temps:          0       0       0       0       0       0       0       0       0       0       0       0       
      +0       0
  6499 ;;      Totals:         0       0       0       0       0       0       0       0       0       0       0       0       
      +0       0
  6500 ;;Total ram usage:        0 bytes
  6501 ;; Hardware stack levels used: 1
  6502 ;; Hardware stack levels required when called: 2
  6503 ;; This function calls:
  6504 ;;		NULL
  6505 ;;		_EUSART_DefaultErrorHandler
  6506 ;;		_EUSART_DefaultFramingErrorHandler
  6507 ;;		_EUSART_DefaultOverrunErrorHandler
  6508 ;;		_EUSART_RxDataHandler
  6509 ;; This function is called by:
  6510 ;;		_EUSART_Initialize
  6511 ;;		_INTERRUPT_InterruptManager
  6512 ;; This function uses a non-reentrant model
  6513 ;;
  6514                           
  6515     07A0                     _EUSART_Receive_ISR:	
  6516                           ;psect for function _EUSART_Receive_ISR
  6517                           
  6518     07A0                     i1l2745:	
  6519                           ;incstack = 0
  6520                           ; Regs used in _EUSART_Receive_ISR: [wreg+fsr1l+fsr1h+status,2+status,0+pclath+cstack]
  6521                           
  6522                           
  6523                           ;mcc_generated_files/eusart.c: 208:     eusartRxStatusBuffer[eusartRxHead].status = 0;
  6524     07A0  087C               	movf	_eusartRxHead,w	;volatile
  6525     07A1  3EA0               	addlw	(low (_eusartRxStatusBuffer| (0+256)))& (0+255)
  6526     07A2  0086               	movwf	6
  6527     07A3  3001               	movlw	1	; select bank3/4
  6528     07A4  0087               	movwf	7
  6529     07A5  0181               	clrf	1
  6530     07A6                     i1l2747:
  6531                           
  6532                           ;mcc_generated_files/eusart.c: 210:     if(RCSTAbits.FERR){
  6533     07A6  0023               	movlb	3	; select bank3
  6534     07A7  1D1D               	btfss	29,2	;volatile
  6535     07A8  2FAA               	goto	u155_21
  6536     07A9  2FAB               	goto	u155_20
  6537     07AA                     u155_21:
  6538     07AA  2FB7               	goto	i1l2753
  6539     07AB                     u155_20:
  6540     07AB                     i1l2749:
  6541                           
  6542                           ;mcc_generated_files/eusart.c: 211:         eusartRxStatusBuffer[eusartRxHead].ferr = 1;
  6543     07AB  087C               	movf	_eusartRxHead,w	;volatile
  6544     07AC  3EA0               	addlw	(low (_eusartRxStatusBuffer| (0+256)))& (0+255)
  6545     07AD  0086               	movwf	6
  6546     07AE  3001               	movlw	1	; select bank3/4
  6547     07AF  0087               	movwf	7
  6548     07B0  1481               	bsf	1,1
  6549     07B1                     i1l2751:
  6550                           
  6551                           ;mcc_generated_files/eusart.c: 212:         EUSART_FramingErrorHandler();
  6552     07B1  0020               	movlb	0	; select bank0
  6553     07B2  0839               	movf	_EUSART_FramingErrorHandler+1,w
  6554     07B3  008A               	movwf	10
  6555     07B4  0838               	movf	_EUSART_FramingErrorHandler,w
  6556     07B5  000A               	callw
  6557     07B6  3187               	pagesel	$
  6558     07B7                     i1l2753:
  6559                           
  6560                           ;mcc_generated_files/eusart.c: 215:     if(RCSTAbits.OERR){
  6561     07B7  0023               	movlb	3	; select bank3
  6562     07B8  1C9D               	btfss	29,1	;volatile
  6563     07B9  2FBB               	goto	u156_21
  6564     07BA  2FBC               	goto	u156_20
  6565     07BB                     u156_21:
  6566     07BB  2FC8               	goto	i1l2759
  6567     07BC                     u156_20:
  6568     07BC                     i1l2755:
  6569                           
  6570                           ;mcc_generated_files/eusart.c: 216:         eusartRxStatusBuffer[eusartRxHead].oerr = 1;
  6571     07BC  087C               	movf	_eusartRxHead,w	;volatile
  6572     07BD  3EA0               	addlw	(low (_eusartRxStatusBuffer| (0+256)))& (0+255)
  6573     07BE  0086               	movwf	6
  6574     07BF  3001               	movlw	1	; select bank3/4
  6575     07C0  0087               	movwf	7
  6576     07C1  1501               	bsf	1,2
  6577     07C2                     i1l2757:
  6578                           
  6579                           ;mcc_generated_files/eusart.c: 217:         EUSART_OverrunErrorHandler();
  6580     07C2  0020               	movlb	0	; select bank0
  6581     07C3  0837               	movf	_EUSART_OverrunErrorHandler+1,w
  6582     07C4  008A               	movwf	10
  6583     07C5  0836               	movf	_EUSART_OverrunErrorHandler,w
  6584     07C6  000A               	callw
  6585     07C7  3187               	pagesel	$
  6586     07C8                     i1l2759:
  6587                           
  6588                           ;mcc_generated_files/eusart.c: 220:     if(eusartRxStatusBuffer[eusartRxHead].status){
  6589     07C8  087C               	movf	_eusartRxHead,w	;volatile
  6590     07C9  3EA0               	addlw	(low (_eusartRxStatusBuffer| (0+256)))& (0+255)
  6591     07CA  0086               	movwf	6
  6592     07CB  3001               	movlw	1	; select bank3/4
  6593     07CC  0087               	movwf	7
  6594     07CD  0801               	movf	1,w
  6595     07CE  1903               	btfsc	3,2
  6596     07CF  2FD1               	goto	u157_21
  6597     07D0  2FD2               	goto	u157_20
  6598     07D1                     u157_21:
  6599     07D1  2FD9               	goto	i1l2763
  6600     07D2                     u157_20:
  6601     07D2                     i1l2761:
  6602                           
  6603                           ;mcc_generated_files/eusart.c: 221:         EUSART_ErrorHandler();
  6604     07D2  0021               	movlb	1	; select bank1
  6605     07D3  0867               	movf	(_EUSART_ErrorHandler+1)^(0+128),w
  6606     07D4  008A               	movwf	10
  6607     07D5  0866               	movf	_EUSART_ErrorHandler^(0+128),w
  6608     07D6  000A               	callw
  6609     07D7  3187               	pagesel	$
  6610                           
  6611                           ;mcc_generated_files/eusart.c: 222:     } else {
  6612     07D8  2FDC               	goto	i1l189
  6613     07D9                     i1l2763:
  6614                           
  6615                           ;mcc_generated_files/eusart.c: 223:         EUSART_RxDataHandler();
  6616     07D9  3185  2537  3187   	fcall	_EUSART_RxDataHandler
  6617     07DC                     i1l189:
  6618     07DC  0008               	return
  6619     07DD                     __end_of_EUSART_Receive_ISR:
  6620                           
  6621                           	psect	text29
  6622     0DC7                     __ptext29:	
  6623 ;; *************** function _EUSART_DefaultOverrunErrorHandler *****************
  6624 ;; Defined at:
  6625 ;;		line 231 in file "mcc_generated_files/eusart.c"
  6626 ;; Parameters:    Size  Location     Type
  6627 ;;		None
  6628 ;; Auto vars:     Size  Location     Type
  6629 ;;		None
  6630 ;; Return value:  Size  Location     Type
  6631 ;;                  1    wreg      void 
  6632 ;; Registers used:
  6633 ;;		None
  6634 ;; Tracked objects:
  6635 ;;		On entry : 0/0
  6636 ;;		On exit  : 0/0
  6637 ;;		Unchanged: 0/0
  6638 ;; Data sizes:     COMMON   BANK0   BANK1   BANK2   BANK3   BANK4   BANK5   BANK6   BANK7   BANK8   BANK9  BANK10  BANK1
      +1  BANK12
  6639 ;;      Params:         0       0       0       0       0       0       0       0       0       0       0       0       
      +0       0
  6640 ;;      Locals:         0       0       0       0       0       0       0       0       0       0       0       0       
      +0       0
  6641 ;;      Temps:          0       0       0       0       0       0       0       0       0       0       0       0       
      +0       0
  6642 ;;      Totals:         0       0       0       0       0       0       0       0       0       0       0       0       
      +0       0
  6643 ;;Total ram usage:        0 bytes
  6644 ;; Hardware stack levels used: 1
  6645 ;; This function calls:
  6646 ;;		Nothing
  6647 ;; This function is called by:
  6648 ;;		_EUSART_Initialize
  6649 ;;		_EUSART_Receive_ISR
  6650 ;; This function uses a non-reentrant model
  6651 ;;
  6652                           
  6653     0DC7                     _EUSART_DefaultOverrunErrorHandler:	
  6654                           ;psect for function _EUSART_DefaultOverrunErrorHandler
  6655                           
  6656     0DC7                     i1l2561:	
  6657                           ;incstack = 0
  6658                           ; Regs used in _EUSART_DefaultOverrunErrorHandler: []
  6659                           
  6660                           
  6661                           ;mcc_generated_files/eusart.c: 234:     RCSTAbits.CREN = 0;
  6662     0DC7  0023               	movlb	3	; select bank3
  6663     0DC8  121D               	bcf	29,4	;volatile
  6664                           
  6665                           ;mcc_generated_files/eusart.c: 235:     RCSTAbits.CREN = 1;
  6666     0DC9  161D               	bsf	29,4	;volatile
  6667     0DCA                     i1l195:
  6668     0DCA  0008               	return
  6669     0DCB                     __end_of_EUSART_DefaultOverrunErrorHandler:
  6670                           
  6671                           	psect	text30
  6672     07FF                     __ptext30:	
  6673 ;; *************** function _EUSART_DefaultFramingErrorHandler *****************
  6674 ;; Defined at:
  6675 ;;		line 229 in file "mcc_generated_files/eusart.c"
  6676 ;; Parameters:    Size  Location     Type
  6677 ;;		None
  6678 ;; Auto vars:     Size  Location     Type
  6679 ;;		None
  6680 ;; Return value:  Size  Location     Type
  6681 ;;                  1    wreg      void 
  6682 ;; Registers used:
  6683 ;;		None
  6684 ;; Tracked objects:
  6685 ;;		On entry : 0/0
  6686 ;;		On exit  : 0/0
  6687 ;;		Unchanged: 0/0
  6688 ;; Data sizes:     COMMON   BANK0   BANK1   BANK2   BANK3   BANK4   BANK5   BANK6   BANK7   BANK8   BANK9  BANK10  BANK1
      +1  BANK12
  6689 ;;      Params:         0       0       0       0       0       0       0       0       0       0       0       0       
      +0       0
  6690 ;;      Locals:         0       0       0       0       0       0       0       0       0       0       0       0       
      +0       0
  6691 ;;      Temps:          0       0       0       0       0       0       0       0       0       0       0       0       
      +0       0
  6692 ;;      Totals:         0       0       0       0       0       0       0       0       0       0       0       0       
      +0       0
  6693 ;;Total ram usage:        0 bytes
  6694 ;; Hardware stack levels used: 1
  6695 ;; This function calls:
  6696 ;;		Nothing
  6697 ;; This function is called by:
  6698 ;;		_EUSART_Initialize
  6699 ;;		_EUSART_Receive_ISR
  6700 ;; This function uses a non-reentrant model
  6701 ;;
  6702                           
  6703     07FF                     _EUSART_DefaultFramingErrorHandler:	
  6704                           ;psect for function _EUSART_DefaultFramingErrorHandler
  6705                           
  6706     07FF                     i1l192:	
  6707                           ;incstack = 0
  6708                           ; Regs used in _EUSART_DefaultFramingErrorHandler: []
  6709                           
  6710     07FF  0008               	return
  6711     0800                     __end_of_EUSART_DefaultFramingErrorHandler:
  6712                           
  6713                           	psect	text31
  6714     0DC3                     __ptext31:	
  6715 ;; *************** function _EUSART_DefaultErrorHandler *****************
  6716 ;; Defined at:
  6717 ;;		line 239 in file "mcc_generated_files/eusart.c"
  6718 ;; Parameters:    Size  Location     Type
  6719 ;;		None
  6720 ;; Auto vars:     Size  Location     Type
  6721 ;;		None
  6722 ;; Return value:  Size  Location     Type
  6723 ;;                  1    wreg      void 
  6724 ;; Registers used:
  6725 ;;		wreg, fsr1l, fsr1h, status,2, status,0, pclath, cstack
  6726 ;; Tracked objects:
  6727 ;;		On entry : 0/0
  6728 ;;		On exit  : 0/0
  6729 ;;		Unchanged: 0/0
  6730 ;; Data sizes:     COMMON   BANK0   BANK1   BANK2   BANK3   BANK4   BANK5   BANK6   BANK7   BANK8   BANK9  BANK10  BANK1
      +1  BANK12
  6731 ;;      Params:         0       0       0       0       0       0       0       0       0       0       0       0       
      +0       0
  6732 ;;      Locals:         0       0       0       0       0       0       0       0       0       0       0       0       
      +0       0
  6733 ;;      Temps:          0       0       0       0       0       0       0       0       0       0       0       0       
      +0       0
  6734 ;;      Totals:         0       0       0       0       0       0       0       0       0       0       0       0       
      +0       0
  6735 ;;Total ram usage:        0 bytes
  6736 ;; Hardware stack levels used: 1
  6737 ;; Hardware stack levels required when called: 1
  6738 ;; This function calls:
  6739 ;;		_EUSART_RxDataHandler
  6740 ;; This function is called by:
  6741 ;;		_EUSART_Initialize
  6742 ;;		_EUSART_Receive_ISR
  6743 ;; This function uses a non-reentrant model
  6744 ;;
  6745                           
  6746     0DC3                     _EUSART_DefaultErrorHandler:	
  6747                           ;psect for function _EUSART_DefaultErrorHandler
  6748                           
  6749     0DC3                     i1l2563:	
  6750                           ;incstack = 0
  6751                           ; Regs used in _EUSART_DefaultErrorHandler: [wreg+fsr1l+fsr1h+status,2+status,0+pclath+c
      +                          stack]
  6752                           
  6753                           
  6754                           ;mcc_generated_files/eusart.c: 240:     EUSART_RxDataHandler();
  6755     0DC3  3185  2537  318D   	fcall	_EUSART_RxDataHandler
  6756     0DC6                     i1l198:
  6757     0DC6  0008               	return
  6758     0DC7                     __end_of_EUSART_DefaultErrorHandler:
  6759                           
  6760                           	psect	text32
  6761     0537                     __ptext32:	
  6762 ;; *************** function _EUSART_RxDataHandler *****************
  6763 ;; Defined at:
  6764 ;;		line 264 in file "mcc_generated_files/eusart.c"
  6765 ;; Parameters:    Size  Location     Type
  6766 ;;		None
  6767 ;; Auto vars:     Size  Location     Type
  6768 ;;		None
  6769 ;; Return value:  Size  Location     Type
  6770 ;;                  1    wreg      void 
  6771 ;; Registers used:
  6772 ;;		wreg, fsr1l, fsr1h, status,2, status,0
  6773 ;; Tracked objects:
  6774 ;;		On entry : 0/0
  6775 ;;		On exit  : 0/0
  6776 ;;		Unchanged: 0/0
  6777 ;; Data sizes:     COMMON   BANK0   BANK1   BANK2   BANK3   BANK4   BANK5   BANK6   BANK7   BANK8   BANK9  BANK10  BANK1
      +1  BANK12
  6778 ;;      Params:         0       0       0       0       0       0       0       0       0       0       0       0       
      +0       0
  6779 ;;      Locals:         0       0       0       0       0       0       0       0       0       0       0       0       
      +0       0
  6780 ;;      Temps:          0       0       0       0       0       0       0       0       0       0       0       0       
      +0       0
  6781 ;;      Totals:         0       0       0       0       0       0       0       0       0       0       0       0       
      +0       0
  6782 ;;Total ram usage:        0 bytes
  6783 ;; Hardware stack levels used: 1
  6784 ;; This function calls:
  6785 ;;		Nothing
  6786 ;; This function is called by:
  6787 ;;		_EUSART_Receive_ISR
  6788 ;;		_EUSART_DefaultErrorHandler
  6789 ;; This function uses a non-reentrant model
  6790 ;;
  6791                           
  6792     0537                     _EUSART_RxDataHandler:	
  6793                           ;psect for function _EUSART_RxDataHandler
  6794                           
  6795     0537                     i1l2449:	
  6796                           ;incstack = 0
  6797                           ; Regs used in _EUSART_RxDataHandler: [wreg+fsr1l+fsr1h+status,2+status,0]
  6798                           
  6799                           
  6800                           ;mcc_generated_files/eusart.c: 266:     TotalSerial++;
  6801     0537  3001               	movlw	1
  6802     0538  0021               	movlb	1	; select bank1
  6803     0539  07E8               	addwf	_TotalSerial^(0+128),f	;volatile
  6804     053A  3000               	movlw	0
  6805     053B  3DE9               	addwfc	(_TotalSerial+1)^(0+128),f	;volatile
  6806                           
  6807                           ;mcc_generated_files/eusart.c: 267:     UltimoDadoRecebido = RCREG;
  6808     053C  0023               	movlb	3	; select bank3
  6809     053D  0819               	movf	25,w	;volatile
  6810     053E  0020               	movlb	0	; select bank0
  6811     053F  00E6               	movwf	_UltimoDadoRecebido	;volatile
  6812     0540                     i1l2451:
  6813                           
  6814                           ;mcc_generated_files/eusart.c: 268:     if (UltimoDadoRecebido == '>')
  6815     0540  303E               	movlw	62
  6816     0541  0666               	xorwf	_UltimoDadoRecebido,w	;volatile
  6817     0542  1D03               	btfss	3,2
  6818     0543  2D45               	goto	u108_21
  6819     0544  2D46               	goto	u108_20
  6820     0545                     u108_21:
  6821     0545  2D47               	goto	i1l2455
  6822     0546                     u108_20:
  6823     0546                     i1l2453:
  6824                           
  6825                           ;mcc_generated_files/eusart.c: 269:         indice=0;
  6826     0546  01FD               	clrf	_indice	;volatile
  6827     0547                     i1l2455:
  6828                           
  6829                           ;mcc_generated_files/eusart.c: 270:     flags[0]=flags[1];
  6830     0547  0821               	movf	_flags+1,w	;volatile
  6831     0548  00A0               	movwf	_flags	;volatile
  6832     0549                     i1l2457:
  6833                           
  6834                           ;mcc_generated_files/eusart.c: 271:     flags[1]=flags[2];
  6835     0549  0822               	movf	_flags+2,w	;volatile
  6836     054A  00A1               	movwf	_flags+1	;volatile
  6837     054B                     i1l2459:
  6838                           
  6839                           ;mcc_generated_files/eusart.c: 272:     flags[2]=flags[3];
  6840     054B  0823               	movf	_flags+3,w	;volatile
  6841     054C  00A2               	movwf	_flags+2	;volatile
  6842     054D                     i1l2461:
  6843                           
  6844                           ;mcc_generated_files/eusart.c: 273:     flags[3]=flags[4];
  6845     054D  0824               	movf	_flags+4,w	;volatile
  6846     054E  00A3               	movwf	_flags+3	;volatile
  6847     054F                     i1l2463:
  6848                           
  6849                           ;mcc_generated_files/eusart.c: 274:     flags[4]=flags[5];
  6850     054F  0825               	movf	_flags+5,w	;volatile
  6851     0550  00A4               	movwf	_flags+4	;volatile
  6852     0551                     i1l2465:
  6853                           
  6854                           ;mcc_generated_files/eusart.c: 275:     flags[5]=UltimoDadoRecebido;
  6855     0551  0866               	movf	_UltimoDadoRecebido,w	;volatile
  6856     0552  00A5               	movwf	_flags+5	;volatile
  6857     0553                     i1l2467:
  6858                           
  6859                           ;mcc_generated_files/eusart.c: 277:     if (indice<64)
  6860     0553  3040               	movlw	64
  6861     0554  027D               	subwf	_indice,w	;volatile
  6862     0555  1803               	skipnc
  6863     0556  2D58               	goto	u109_21
  6864     0557  2D59               	goto	u109_20
  6865     0558                     u109_21:
  6866     0558  2D62               	goto	i1l2473
  6867     0559                     u109_20:
  6868     0559                     i1l2469:
  6869                           
  6870                           ;mcc_generated_files/eusart.c: 278:     {;mcc_generated_files/eusart.c: 279:         Dad
      +                          osLora[indice]= UltimoDadoRecebido;
  6871     0559  087D               	movf	_indice,w
  6872     055A  3E20               	addlw	(low (_DadosLora| (0+256)))& (0+255)
  6873     055B  0086               	movwf	6
  6874     055C  3001               	movlw	1	; select bank2/3
  6875     055D  0087               	movwf	7
  6876     055E  0866               	movf	_UltimoDadoRecebido,w	;volatile
  6877     055F  0081               	movwf	1
  6878     0560                     i1l2471:
  6879                           
  6880                           ;mcc_generated_files/eusart.c: 280:         indice++;
  6881     0560  3001               	movlw	1
  6882     0561  07FD               	addwf	_indice,f	;volatile
  6883     0562                     i1l2473:
  6884                           
  6885                           ;mcc_generated_files/eusart.c: 283:     if ((flags[1]=='t')&&(flags[2]=='x')&&(flags[4]=
      +                          ='o')&&(flags[5]=='k'))
  6886     0562  3074               	movlw	116
  6887     0563  0621               	xorwf	_flags+1,w	;volatile
  6888     0564  1D03               	btfss	3,2
  6889     0565  2D67               	goto	u110_21
  6890     0566  2D68               	goto	u110_20
  6891     0567                     u110_21:
  6892     0567  2D7D               	goto	i1l2483
  6893     0568                     u110_20:
  6894     0568                     i1l2475:
  6895     0568  3078               	movlw	120
  6896     0569  0622               	xorwf	_flags+2,w	;volatile
  6897     056A  1D03               	btfss	3,2
  6898     056B  2D6D               	goto	u111_21
  6899     056C  2D6E               	goto	u111_20
  6900     056D                     u111_21:
  6901     056D  2D7D               	goto	i1l2483
  6902     056E                     u111_20:
  6903     056E                     i1l2477:
  6904     056E  306F               	movlw	111
  6905     056F  0624               	xorwf	_flags+4,w	;volatile
  6906     0570  1D03               	btfss	3,2
  6907     0571  2D73               	goto	u112_21
  6908     0572  2D74               	goto	u112_20
  6909     0573                     u112_21:
  6910     0573  2D7D               	goto	i1l2483
  6911     0574                     u112_20:
  6912     0574                     i1l2479:
  6913     0574  306B               	movlw	107
  6914     0575  0625               	xorwf	_flags+5,w	;volatile
  6915     0576  1D03               	btfss	3,2
  6916     0577  2D79               	goto	u113_21
  6917     0578  2D7A               	goto	u113_20
  6918     0579                     u113_21:
  6919     0579  2D7D               	goto	i1l2483
  6920     057A                     u113_20:
  6921     057A                     i1l2481:
  6922                           
  6923                           ;mcc_generated_files/eusart.c: 284:         fTxOk=1;
  6924     057A  3001               	movlw	1
  6925     057B  00E7               	movwf	_fTxOk	;volatile
  6926     057C  2D97               	goto	i1l2493
  6927     057D                     i1l2483:
  6928     057D  300D               	movlw	13
  6929     057E  0622               	xorwf	_flags+2,w	;volatile
  6930     057F  1D03               	btfss	3,2
  6931     0580  2D82               	goto	u114_21
  6932     0581  2D83               	goto	u114_20
  6933     0582                     u114_21:
  6934     0582  2D97               	goto	i1l2493
  6935     0583                     u114_20:
  6936     0583                     i1l2485:
  6937     0583  300A               	movlw	10
  6938     0584  0623               	xorwf	_flags+3,w	;volatile
  6939     0585  1D03               	btfss	3,2
  6940     0586  2D88               	goto	u115_21
  6941     0587  2D89               	goto	u115_20
  6942     0588                     u115_21:
  6943     0588  2D97               	goto	i1l2493
  6944     0589                     u115_20:
  6945     0589                     i1l2487:
  6946     0589  304F               	movlw	79
  6947     058A  0624               	xorwf	_flags+4,w	;volatile
  6948     058B  1D03               	btfss	3,2
  6949     058C  2D8E               	goto	u116_21
  6950     058D  2D8F               	goto	u116_20
  6951     058E                     u116_21:
  6952     058E  2D97               	goto	i1l2493
  6953     058F                     u116_20:
  6954     058F                     i1l2489:
  6955     058F  304B               	movlw	75
  6956     0590  0625               	xorwf	_flags+5,w	;volatile
  6957     0591  1D03               	btfss	3,2
  6958     0592  2D94               	goto	u117_21
  6959     0593  2D95               	goto	u117_20
  6960     0594                     u117_21:
  6961     0594  2D97               	goto	i1l2493
  6962     0595                     u117_20:
  6963     0595                     i1l2491:
  6964                           
  6965                           ;mcc_generated_files/eusart.c: 286:         fOK=1;
  6966     0595  3001               	movlw	1
  6967     0596  00EC               	movwf	_fOK	;volatile
  6968     0597                     i1l2493:
  6969                           
  6970                           ;mcc_generated_files/eusart.c: 287:     if ((flags[2]=='O')&&(flags[3]=='T')&&(flags[4]=
      +                          ='A')&&(flags[5]=='A'))
  6971     0597  304F               	movlw	79
  6972     0598  0622               	xorwf	_flags+2,w	;volatile
  6973     0599  1D03               	btfss	3,2
  6974     059A  2D9C               	goto	u118_21
  6975     059B  2D9D               	goto	u118_20
  6976     059C                     u118_21:
  6977     059C  2DB2               	goto	i1l2503
  6978     059D                     u118_20:
  6979     059D                     i1l2495:
  6980     059D  3054               	movlw	84
  6981     059E  0623               	xorwf	_flags+3,w	;volatile
  6982     059F  1D03               	btfss	3,2
  6983     05A0  2DA2               	goto	u119_21
  6984     05A1  2DA3               	goto	u119_20
  6985     05A2                     u119_21:
  6986     05A2  2DB2               	goto	i1l2503
  6987     05A3                     u119_20:
  6988     05A3                     i1l2497:
  6989     05A3  3041               	movlw	65
  6990     05A4  0624               	xorwf	_flags+4,w	;volatile
  6991     05A5  1D03               	btfss	3,2
  6992     05A6  2DA8               	goto	u120_21
  6993     05A7  2DA9               	goto	u120_20
  6994     05A8                     u120_21:
  6995     05A8  2DB2               	goto	i1l2503
  6996     05A9                     u120_20:
  6997     05A9                     i1l2499:
  6998     05A9  3041               	movlw	65
  6999     05AA  0625               	xorwf	_flags+5,w	;volatile
  7000     05AB  1D03               	btfss	3,2
  7001     05AC  2DAE               	goto	u121_21
  7002     05AD  2DAF               	goto	u121_20
  7003     05AE                     u121_21:
  7004     05AE  2DB2               	goto	i1l2503
  7005     05AF                     u121_20:
  7006     05AF                     i1l2501:
  7007                           
  7008                           ;mcc_generated_files/eusart.c: 288:         fAtOk=1;
  7009     05AF  3001               	movlw	1
  7010     05B0  00EA               	movwf	_fAtOk	;volatile
  7011     05B1  2DD2               	goto	i1l2515
  7012     05B2                     i1l2503:
  7013     05B2  3041               	movlw	65
  7014     05B3  0621               	xorwf	_flags+1,w	;volatile
  7015     05B4  1D03               	btfss	3,2
  7016     05B5  2DB7               	goto	u122_21
  7017     05B6  2DB8               	goto	u122_20
  7018     05B7                     u122_21:
  7019     05B7  2DD2               	goto	i1l2515
  7020     05B8                     u122_20:
  7021     05B8                     i1l2505:
  7022     05B8  3054               	movlw	84
  7023     05B9  0622               	xorwf	_flags+2,w	;volatile
  7024     05BA  1D03               	btfss	3,2
  7025     05BB  2DBD               	goto	u123_21
  7026     05BC  2DBE               	goto	u123_20
  7027     05BD                     u123_21:
  7028     05BD  2DD2               	goto	i1l2515
  7029     05BE                     u123_20:
  7030     05BE                     i1l2507:
  7031     05BE  305F               	movlw	95
  7032     05BF  0623               	xorwf	_flags+3,w	;volatile
  7033     05C0  1D03               	btfss	3,2
  7034     05C1  2DC3               	goto	u124_21
  7035     05C2  2DC4               	goto	u124_20
  7036     05C3                     u124_21:
  7037     05C3  2DD2               	goto	i1l2515
  7038     05C4                     u124_20:
  7039     05C4                     i1l2509:
  7040     05C4  3045               	movlw	69
  7041     05C5  0624               	xorwf	_flags+4,w	;volatile
  7042     05C6  1D03               	btfss	3,2
  7043     05C7  2DC9               	goto	u125_21
  7044     05C8  2DCA               	goto	u125_20
  7045     05C9                     u125_21:
  7046     05C9  2DD2               	goto	i1l2515
  7047     05CA                     u125_20:
  7048     05CA                     i1l2511:
  7049     05CA  3052               	movlw	82
  7050     05CB  0625               	xorwf	_flags+5,w	;volatile
  7051     05CC  1D03               	btfss	3,2
  7052     05CD  2DCF               	goto	u126_21
  7053     05CE  2DD0               	goto	u126_20
  7054     05CF                     u126_21:
  7055     05CF  2DD2               	goto	i1l2515
  7056     05D0                     u126_20:
  7057     05D0                     i1l2513:
  7058                           
  7059                           ;mcc_generated_files/eusart.c: 290:         fATerr=1;
  7060     05D0  3001               	movlw	1
  7061     05D1  00EB               	movwf	_fATerr	;volatile
  7062     05D2                     i1l2515:
  7063                           
  7064                           ;mcc_generated_files/eusart.c: 294:     if (indice==17)
  7065     05D2  3011               	movlw	17
  7066     05D3  067D               	xorwf	_indice,w	;volatile
  7067     05D4  1D03               	btfss	3,2
  7068     05D5  2DD7               	goto	u127_21
  7069     05D6  2DD8               	goto	u127_20
  7070     05D7                     u127_21:
  7071     05D7  2DEF               	goto	i1l2527
  7072     05D8                     u127_20:
  7073     05D8                     i1l2517:
  7074                           
  7075                           ;mcc_generated_files/eusart.c: 295:     {;mcc_generated_files/eusart.c: 296:         __n
      +                          op();
  7076     05D8  0000               	nop
  7077     05D9                     i1l2519:
  7078                           
  7079                           ;mcc_generated_files/eusart.c: 297:         if ( (DadosLora[ 2] == 'E')&&
  7080     05D9  3045               	movlw	69
  7081     05DA  0022               	movlb	2	; select bank2
  7082     05DB  0622               	xorwf	(_DadosLora^(0+256)+2),w	;volatile
  7083     05DC  1D03               	btfss	3,2
  7084     05DD  2DDF               	goto	u128_21
  7085     05DE  2DE0               	goto	u128_20
  7086     05DF                     u128_21:
  7087     05DF  2DEF               	goto	i1l2527
  7088     05E0                     u128_20:
  7089     05E0                     i1l2521:
  7090     05E0  3041               	movlw	65
  7091     05E1  0623               	xorwf	(_DadosLora^(0+256)+3),w	;volatile
  7092     05E2  1D03               	btfss	3,2
  7093     05E3  2DE5               	goto	u129_21
  7094     05E4  2DE6               	goto	u129_20
  7095     05E5                     u129_21:
  7096     05E5  2DEF               	goto	i1l2527
  7097     05E6                     u129_20:
  7098     05E6                     i1l2523:
  7099     05E6  3045               	movlw	69
  7100     05E7  062E               	xorwf	(_DadosLora^(0+256)+14),w	;volatile
  7101     05E8  1D03               	btfss	3,2
  7102     05E9  2DEB               	goto	u130_21
  7103     05EA  2DEC               	goto	u130_20
  7104     05EB                     u130_21:
  7105     05EB  2DEF               	goto	i1l2527
  7106     05EC                     u130_20:
  7107     05EC                     i1l2525:
  7108                           
  7109                           ;mcc_generated_files/eusart.c: 301:         {;mcc_generated_files/eusart.c: 302:        
      +                               fRetLora=1;
  7110     05EC  3001               	movlw	1
  7111     05ED  0020               	movlb	0	; select bank0
  7112     05EE  00E5               	movwf	_fRetLora	;volatile
  7113     05EF                     i1l2527:
  7114                           
  7115                           ;mcc_generated_files/eusart.c: 306:     if ( (DadosLora[2]=='I')&&(DadosLora[7]=='D') )
  7116     05EF  3049               	movlw	73
  7117     05F0  0022               	movlb	2	; select bank2
  7118     05F1  0622               	xorwf	(_DadosLora^(0+256)+2),w	;volatile
  7119     05F2  1D03               	btfss	3,2
  7120     05F3  2DF5               	goto	u131_21
  7121     05F4  2DF6               	goto	u131_20
  7122     05F5                     u131_21:
  7123     05F5  2E0F               	goto	i1l2535
  7124     05F6                     u131_20:
  7125     05F6                     i1l2529:
  7126     05F6  3044               	movlw	68
  7127     05F7  0627               	xorwf	(_DadosLora^(0+256)+7),w	;volatile
  7128     05F8  1D03               	btfss	3,2
  7129     05F9  2DFB               	goto	u132_21
  7130     05FA  2DFC               	goto	u132_20
  7131     05FB                     u132_21:
  7132     05FB  2E0F               	goto	i1l2535
  7133     05FC                     u132_20:
  7134     05FC                     i1l2531:
  7135                           
  7136                           ;mcc_generated_files/eusart.c: 307:     {;mcc_generated_files/eusart.c: 308:         fPr
      +                          ogID=1;
  7137     05FC  3001               	movlw	1
  7138     05FD  0020               	movlb	0	; select bank0
  7139     05FE  00E4               	movwf	_fProgID	;volatile
  7140     05FF                     i1l2533:
  7141                           
  7142                           ;mcc_generated_files/eusart.c: 309:         ID[0] = DadosLora[3]; ID[1] = DadosLora[4];
  7143     05FF  0022               	movlb	2	; select bank2
  7144     0600  0823               	movf	(_DadosLora^(0+256)+3),w	;volatile
  7145     0601  0021               	movlb	1	; select bank1
  7146     0602  00DA               	movwf	_ID^(0+128)	;volatile
  7147     0603  0022               	movlb	2	; select bank2
  7148     0604  0824               	movf	(_DadosLora^(0+256)+4),w	;volatile
  7149     0605  0021               	movlb	1	; select bank1
  7150     0606  00DB               	movwf	(_ID^(0+128)+1)	;volatile
  7151                           
  7152                           ;mcc_generated_files/eusart.c: 310:         ID[2] = DadosLora[5]; ID[3] = DadosLora[6];
  7153     0607  0022               	movlb	2	; select bank2
  7154     0608  0825               	movf	(_DadosLora^(0+256)+5),w	;volatile
  7155     0609  0021               	movlb	1	; select bank1
  7156     060A  00DC               	movwf	(_ID^(0+128)+2)	;volatile
  7157     060B  0022               	movlb	2	; select bank2
  7158     060C  0826               	movf	(_DadosLora^(0+256)+6),w	;volatile
  7159     060D  0021               	movlb	1	; select bank1
  7160     060E  00DD               	movwf	(_ID^(0+128)+3)	;volatile
  7161     060F                     i1l2535:
  7162                           
  7163                           ;mcc_generated_files/eusart.c: 312:     __nop();
  7164     060F  0000               	nop
  7165     0610                     i1l2537:
  7166                           
  7167                           ;mcc_generated_files/eusart.c: 313:     __nop();
  7168     0610  0000               	nop
  7169     0611                     i1l2539:
  7170                           
  7171                           ;mcc_generated_files/eusart.c: 314:     __nop();
  7172     0611  0000               	nop
  7173     0612                     i1l2541:
  7174                           
  7175                           ;mcc_generated_files/eusart.c: 316:     eusartRxBuffer[eusartRxHead++] = UltimoDadoReceb
      +                          ido;
  7176     0612  087C               	movf	_eusartRxHead,w
  7177     0613  3E20               	addlw	(low (_eusartRxBuffer| (0+512)))& (0+255)
  7178     0614  0086               	movwf	6
  7179     0615  3002               	movlw	2	; select bank4/5
  7180     0616  0087               	movwf	7
  7181     0617  0020               	movlb	0	; select bank0
  7182     0618  0866               	movf	_UltimoDadoRecebido,w	;volatile
  7183     0619  0081               	movwf	1
  7184     061A                     i1l2543:
  7185     061A  3001               	movlw	1
  7186     061B  07FC               	addwf	_eusartRxHead,f	;volatile
  7187     061C                     i1l2545:
  7188                           
  7189                           ;mcc_generated_files/eusart.c: 317:     if(sizeof(eusartRxBuffer) <= eusartRxHead)
  7190     061C  3040               	movlw	64
  7191     061D  027C               	subwf	_eusartRxHead,w	;volatile
  7192     061E  1C03               	skipc
  7193     061F  2E21               	goto	u133_21
  7194     0620  2E22               	goto	u133_20
  7195     0621                     u133_21:
  7196     0621  2E23               	goto	i1l2549
  7197     0622                     u133_20:
  7198     0622                     i1l2547:
  7199                           
  7200                           ;mcc_generated_files/eusart.c: 318:     {;mcc_generated_files/eusart.c: 319:         eus
      +                          artRxHead = 0;
  7201     0622  01FC               	clrf	_eusartRxHead	;volatile
  7202     0623                     i1l2549:
  7203                           
  7204                           ;mcc_generated_files/eusart.c: 321:     eusartRxCount++;
  7205     0623  3001               	movlw	1
  7206     0624  07DF               	addwf	_eusartRxCount,f	;volatile
  7207     0625                     i1l228:
  7208     0625  0008               	return
  7209     0626                     __end_of_EUSART_RxDataHandler:
  7210     0002                     ___latbits      equ	2
  7211     007E                     btemp           set	126	;btemp
  7212     007E                     int$flags       set	126
  7213     007E                     wtemp0          set	126
  7214                           
  7215                           	psect	idloc
  7216                           
  7217                           ;Config register IDLOC0 @ 0x8000
  7218                           ;	unspecified, using default values
  7219     8000                     	org	32768
  7220     8000  3FFF               	dw	16383
  7221                           
  7222                           ;Config register IDLOC1 @ 0x8001
  7223                           ;	unspecified, using default values
  7224     8001                     	org	32769
  7225     8001  3FFF               	dw	16383
  7226                           
  7227                           ;Config register IDLOC2 @ 0x8002
  7228                           ;	unspecified, using default values
  7229     8002                     	org	32770
  7230     8002  3FFF               	dw	16383
  7231                           
  7232                           ;Config register IDLOC3 @ 0x8003
  7233                           ;	unspecified, using default values
  7234     8003                     	org	32771
  7235     8003  3FFF               	dw	16383
  7236                           
  7237                           	psect	config
  7238                           
  7239                           ;Config register CONFIG1 @ 0x8007
  7240                           ;	Oscillator Selection
  7241                           ;	FOSC = INTOSC, INTOSC oscillator: I/O function on CLKIN pin
  7242                           ;	Watchdog Timer Enable
  7243                           ;	WDTE = SWDTEN, WDT controlled by the SWDTEN bit in the WDTCON register
  7244                           ;	Power-up Timer Enable
  7245                           ;	PWRTE = OFF, PWRT disabled
  7246                           ;	MCLR Pin Function Select
  7247                           ;	MCLRE = ON, MCLR/VPP pin function is MCLR
  7248                           ;	Flash Program Memory Code Protection
  7249                           ;	CP = ON, Program memory code protection is enabled
  7250                           ;	Data Memory Code Protection
  7251                           ;	CPD = ON, Data memory code protection is enabled
  7252                           ;	Brown-out Reset Enable
  7253                           ;	BOREN = ON, Brown-out Reset enabled
  7254                           ;	Clock Out Enable
  7255                           ;	CLKOUTEN = OFF, CLKOUT function is disabled. I/O or oscillator function on the CLKOUT 
      +                          pin
  7256                           ;	Internal/External Switchover
  7257                           ;	IESO = ON, Internal/External Switchover mode is enabled
  7258                           ;	Fail-Safe Clock Monitor Enable
  7259                           ;	FCMEN = ON, Fail-Safe Clock Monitor is enabled
  7260     8007                     	org	32775
  7261     8007  3E6C               	dw	15980
  7262                           
  7263                           ;Config register CONFIG2 @ 0x8008
  7264                           ;	Flash Memory Self-Write Protection
  7265                           ;	WRT = OFF, Write protection off
  7266                           ;	PLL Enable
  7267                           ;	PLLEN = OFF, 4x PLL disabled
  7268                           ;	Stack Overflow/Underflow Reset Enable
  7269                           ;	STVREN = ON, Stack Overflow or Underflow will cause a Reset
  7270                           ;	Brown-out Reset Voltage Selection
  7271                           ;	BORV = LO, Brown-out Reset Voltage (Vbor), low trip point selected.
  7272                           ;	In-Circuit Debugger Mode
  7273                           ;	DEBUG = 0x1, unprogrammed default
  7274                           ;	Low-Voltage Programming Enable
  7275                           ;	LVP = OFF, High-voltage on MCLR/VPP must be used for programming
  7276     8008                     	org	32776
  7277     8008  1EFF               	dw	7935

Data Sizes:
    Strings     0
    Constant    111
    Data        0
    BSS         348
    Persistent  34
    Stack       0

Auto Spaces:
    Space          Size  Autos    Used
    COMMON           14     11      14
    BANK0            80      0      79
    BANK1            80      0      76
    BANK2            80      0      64
    BANK3            80      0      64
    BANK4            80      0      64
    BANK5            80      0       0
    BANK6            80      0       0
    BANK7            80      0       0
    BANK8            80      0       0
    BANK9            80      0       0
    BANK10           80      0       0
    BANK11           80      0       0
    BANK12           48      0       0

Pointer List with Targets:

    EUSART_ErrorHandler	PTR FTN()void  size(2) Largest target is 1
		 -> EUSART_DefaultErrorHandler(), NULL(), 

    EUSART_FramingErrorHandler	PTR FTN()void  size(2) Largest target is 1
		 -> EUSART_DefaultFramingErrorHandler(), NULL(), 

    EUSART_OverrunErrorHandler	PTR FTN()void  size(2) Largest target is 1
		 -> EUSART_DefaultOverrunErrorHandler(), NULL(), 

    EUSART_RxDefaultInterruptHandler	PTR FTN()void  size(2) Largest target is 1
		 -> EUSART_Receive_ISR(), NULL(), 

    EUSART_SetErrorHandler@interruptHandler	PTR FTN()void  size(2) Largest target is 1
		 -> EUSART_DefaultErrorHandler(), 

    EUSART_SetFramingErrorHandler@interruptHandler	PTR FTN()void  size(2) Largest target is 1
		 -> EUSART_DefaultFramingErrorHandler(), 

    EUSART_SetOverrunErrorHandler@interruptHandler	PTR FTN()void  size(2) Largest target is 1
		 -> EUSART_DefaultOverrunErrorHandler(), 

    EUSART_SetRxInterruptHandler@interruptHandler	PTR FTN()void  size(2) Largest target is 1
		 -> EUSART_Receive_ISR(), 

    EUSART_SetTxInterruptHandler@interruptHandler	PTR FTN()void  size(2) Largest target is 1
		 -> EUSART_Transmit_ISR(), 

    EUSART_TxDefaultInterruptHandler	PTR FTN()void  size(2) Largest target is 1
		 -> EUSART_Transmit_ISR(), NULL(), 


Critical Paths under _main in COMMON

    _main->_TesteEnvio
    _TesteEnvio->___lwdiv
    _SM_MODORX->_EUSART_Write
    _TX_Lora->_SM_CFOFF
    _TX_Lora->_SM_CONFIGRADIO
    _SM_CONFIGRADIO->_EUSART_Write
    _SM_CFOFF->_EUSART_Write
    _SM_START->_SM_RESET
    _SM_RESET->_EUSART_Write
    _ErrCode->_ModuloOff
    _EUSART_Initialize->_EUSART_SetErrorHandler
    _EUSART_Initialize->_EUSART_SetFramingErrorHandler
    _EUSART_Initialize->_EUSART_SetOverrunErrorHandler
    _EUSART_Initialize->_EUSART_SetRxInterruptHandler
    _EUSART_Initialize->_EUSART_SetTxInterruptHandler

Critical Paths under _INTERRUPT_InterruptManager in COMMON

    None.

Critical Paths under _main in BANK0

    None.

Critical Paths under _INTERRUPT_InterruptManager in BANK0

    None.

Critical Paths under _main in BANK1

    None.

Critical Paths under _INTERRUPT_InterruptManager in BANK1

    None.

Critical Paths under _main in BANK2

    None.

Critical Paths under _INTERRUPT_InterruptManager in BANK2

    None.

Critical Paths under _main in BANK3

    None.

Critical Paths under _INTERRUPT_InterruptManager in BANK3

    None.

Critical Paths under _main in BANK4

    None.

Critical Paths under _INTERRUPT_InterruptManager in BANK4

    None.

Critical Paths under _main in BANK5

    None.

Critical Paths under _INTERRUPT_InterruptManager in BANK5

    None.

Critical Paths under _main in BANK6

    None.

Critical Paths under _INTERRUPT_InterruptManager in BANK6

    None.

Critical Paths under _main in BANK7

    None.

Critical Paths under _INTERRUPT_InterruptManager in BANK7

    None.

Critical Paths under _main in BANK8

    None.

Critical Paths under _INTERRUPT_InterruptManager in BANK8

    None.

Critical Paths under _main in BANK9

    None.

Critical Paths under _INTERRUPT_InterruptManager in BANK9

    None.

Critical Paths under _main in BANK10

    None.

Critical Paths under _INTERRUPT_InterruptManager in BANK10

    None.

Critical Paths under _main in BANK11

    None.

Critical Paths under _INTERRUPT_InterruptManager in BANK11

    None.

Critical Paths under _main in BANK12

    None.

Critical Paths under _INTERRUPT_InterruptManager in BANK12

    None.

Call Graph Tables:

 ---------------------------------------------------------------------------------
 (Depth) Function   	        Calls       Base Space   Used Autos Params    Refs
 ---------------------------------------------------------------------------------
 (0) _main                                                 2     2      0    1573
                                              9 COMMON     2     2      0
                  _EUSART_Initialize
                            _ErrCode
                          _ModuloOff
              _OSCILLATOR_Initialize
             _PIN_MANAGER_Initialize
                           _SM_CFOFF
                     _SM_CONFIGRADIO
                          _SM_MODORX
                           _SM_START
                            _TX_Lora
                         _TesteEnvio
                     _WDT_Initialize
                            ___lwdiv
                            ___lwmod
                             ___wmul
 ---------------------------------------------------------------------------------
 (1) ___wmul                                               6     2      4     100
                                              0 COMMON     6     2      4
 ---------------------------------------------------------------------------------
 (1) _WDT_Initialize                                       0     0      0       0
 ---------------------------------------------------------------------------------
 (1) _TesteEnvio                                           2     2      0     577
                                              7 COMMON     2     2      0
                       _EUSART_Reset
                       _EUSART_Write
                           _SM_CFOFF
                     _SM_CONFIGRADIO
                          _SM_MODORX
                            ___lwdiv
                            ___lwmod
 ---------------------------------------------------------------------------------
 (1) ___lwmod                                              5     1      4     171
                                              0 COMMON     5     1      4
 ---------------------------------------------------------------------------------
 (1) ___lwdiv                                              7     3      4     174
                                              0 COMMON     7     3      4
 ---------------------------------------------------------------------------------
 (2) _SM_MODORX                                            3     3      0      58
                                              1 COMMON     2     2      0
                       _EUSART_Reset
                       _EUSART_Write
 ---------------------------------------------------------------------------------
 (1) _TX_Lora                                              1     1      0     174
                                              3 COMMON     1     1      0
                       _EUSART_Reset
                       _EUSART_Write
                        _Espera_TxOk
                           _ModuloOn
                           _SM_CFOFF
                     _SM_CONFIGRADIO
 ---------------------------------------------------------------------------------
 (2) _SM_CONFIGRADIO                                       3     3      0      58
                                              1 COMMON     2     2      0
                       _EUSART_Reset
                       _EUSART_Write
 ---------------------------------------------------------------------------------
 (2) _SM_CFOFF                                             2     2      0      58
                                              1 COMMON     2     2      0
                       _EUSART_Reset
                       _EUSART_Write
 ---------------------------------------------------------------------------------
 (2) _Espera_TxOk                                          1     1      0       0
                                              0 COMMON     1     1      0
 ---------------------------------------------------------------------------------
 (1) _SM_START                                             2     2      0      58
                                              3 COMMON     2     2      0
                       _EUSART_Reset
                           _ModuloOn
                           _SM_RESET
 ---------------------------------------------------------------------------------
 (2) _SM_RESET                                             2     2      0      58
                                              1 COMMON     2     2      0
                       _EUSART_Reset
                       _EUSART_Write
 ---------------------------------------------------------------------------------
 (3) _EUSART_Write                                         1     1      0      58
                                              0 COMMON     1     1      0
 ---------------------------------------------------------------------------------
 (3) _EUSART_Reset                                         0     0      0       0
 ---------------------------------------------------------------------------------
 (2) _ModuloOn                                             2     2      0       0
                                              0 COMMON     2     2      0
 ---------------------------------------------------------------------------------
 (1) _PIN_MANAGER_Initialize                               0     0      0       0
 ---------------------------------------------------------------------------------
 (1) _OSCILLATOR_Initialize                                0     0      0       0
 ---------------------------------------------------------------------------------
 (1) _ErrCode                                              4     4      0      30
                                              1 COMMON     3     3      0
                          _ModuloOff
 ---------------------------------------------------------------------------------
 (1) _ModuloOff                                            1     1      0       0
                                              0 COMMON     1     1      0
 ---------------------------------------------------------------------------------
 (1) _EUSART_Initialize                                    0     0      0     115
             _EUSART_SetErrorHandler
      _EUSART_SetFramingErrorHandler
      _EUSART_SetOverrunErrorHandler
       _EUSART_SetRxInterruptHandler
       _EUSART_SetTxInterruptHandler
 ---------------------------------------------------------------------------------
 (2) _EUSART_SetTxInterruptHandler                         2     0      2      23
                                              0 COMMON     2     0      2
 ---------------------------------------------------------------------------------
 (2) _EUSART_SetRxInterruptHandler                         2     0      2      23
                                              0 COMMON     2     0      2
 ---------------------------------------------------------------------------------
 (2) _EUSART_SetOverrunErrorHandler                        2     0      2      23
                                              0 COMMON     2     0      2
 ---------------------------------------------------------------------------------
 (2) _EUSART_SetFramingErrorHandler                        2     0      2      23
                                              0 COMMON     2     0      2
 ---------------------------------------------------------------------------------
 (2) _EUSART_SetErrorHandler                               2     0      2      23
                                              0 COMMON     2     0      2
 ---------------------------------------------------------------------------------
 Estimated maximum stack depth 3
 ---------------------------------------------------------------------------------
 (Depth) Function   	        Calls       Base Space   Used Autos Params    Refs
 ---------------------------------------------------------------------------------
 (4) _INTERRUPT_InterruptManager                           0     0      0       0
                                NULL *
                 _EUSART_Receive_ISR *
                _EUSART_Transmit_ISR *
 ---------------------------------------------------------------------------------
 (5) _EUSART_Transmit_ISR                                  0     0      0       0
 ---------------------------------------------------------------------------------
 (5) _EUSART_Receive_ISR                                   0     0      0       0
                                NULL *
         _EUSART_DefaultErrorHandler *
  _EUSART_DefaultFramingErrorHandler *
  _EUSART_DefaultOverrunErrorHandler *
               _EUSART_RxDataHandler
 ---------------------------------------------------------------------------------
 (6) _EUSART_DefaultOverrunErrorHandler                    0     0      0       0
 ---------------------------------------------------------------------------------
 (6) _EUSART_DefaultFramingErrorHandler                    0     0      0       0
 ---------------------------------------------------------------------------------
 (6) _EUSART_DefaultErrorHandler                           0     0      0       0
               _EUSART_RxDataHandler
 ---------------------------------------------------------------------------------
 (6) _EUSART_RxDataHandler                                 0     0      0       0
 ---------------------------------------------------------------------------------
 (6) NULL(Fake)                                            0     0      0       0
 ---------------------------------------------------------------------------------
 Estimated maximum stack depth 6
 ---------------------------------------------------------------------------------

 Call Graph Graphs:

 _main (ROOT)
   _EUSART_Initialize
     _EUSART_SetErrorHandler
     _EUSART_SetFramingErrorHandler
     _EUSART_SetOverrunErrorHandler
     _EUSART_SetRxInterruptHandler
     _EUSART_SetTxInterruptHandler
   _ErrCode
     _ModuloOff
   _ModuloOff
   _OSCILLATOR_Initialize
   _PIN_MANAGER_Initialize
   _SM_CFOFF
     _EUSART_Reset
     _EUSART_Write
   _SM_CONFIGRADIO
     _EUSART_Reset
     _EUSART_Write
   _SM_MODORX
     _EUSART_Reset
     _EUSART_Write
   _SM_START
     _EUSART_Reset
     _ModuloOn
     _SM_RESET
       _EUSART_Reset
       _EUSART_Write
   _TX_Lora
     _EUSART_Reset
     _EUSART_Write
     _Espera_TxOk
     _ModuloOn
     _SM_CFOFF
     _SM_CONFIGRADIO
   _TesteEnvio
     _EUSART_Reset
     _EUSART_Write
     _SM_CFOFF
     _SM_CONFIGRADIO
     _SM_MODORX
     ___lwdiv
     ___lwmod
   _WDT_Initialize
   ___lwdiv
   ___lwmod
   ___wmul

 _INTERRUPT_InterruptManager (ROOT)
   NULL(Fake) *
   _EUSART_Receive_ISR *
     NULL(Fake) *
     _EUSART_DefaultErrorHandler *
       _EUSART_RxDataHandler
     _EUSART_DefaultFramingErrorHandler *
     _EUSART_DefaultOverrunErrorHandler *
     _EUSART_RxDataHandler *
   _EUSART_Transmit_ISR *

Address spaces:
Name               Size   Autos  Total    Usage
BITCOMMON           14      0       0      0.0%
BITBANK0            80      0       0      0.0%
BITBANK1            80      0       0      0.0%
BITBANK2            80      0       0      0.0%
BITBANK3            80      0       0      0.0%
BITBANK4            80      0       0      0.0%
BITBANK5            80      0       0      0.0%
BITBANK6            80      0       0      0.0%
BITBANK7            80      0       0      0.0%
BITBANK8            80      0       0      0.0%
BITBANK9            80      0       0      0.0%
BITBANK10           80      0       0      0.0%
BITBANK11           80      0       0      0.0%
BITBANK12           48      0       0      0.0%
BIGRAM            1008      0       0      0.0%
COMMON              14     11      14    100.0%
BANK0               80      0      79     98.8%
BANK1               80      0      76     95.0%
BANK2               80      0      64     80.0%
BANK3               80      0      64     80.0%
BANK4               80      0      64     80.0%
BANK5               80      0       0      0.0%
BANK6               80      0       0      0.0%
BANK7               80      0       0      0.0%
BANK8               80      0       0      0.0%
BANK9               80      0       0      0.0%
BANK10              80      0       0      0.0%
BANK11              80      0       0      0.0%
BANK12              48      0       0      0.0%
STACK                0      0       0      0.0%
DATA                 0      0     361      0.0%


Microchip Technology PIC Macro Assembler V2.50 build 20240725155939 
Symbol Table                                                                                   Sun Dec 08 11:06:36 2024

                ?_EUSART_SetRxInterruptHandler 0070                                             l14 0DF9  
                                           l17 0DCE                                             _ID 00DA  
                                           _HH 004B                                             _LL 004A  
                          ___wmul@multiplicand 0072                                            l201 0DDA  
                                          l210 0DEC                                            l204 0DE0  
                                          l213 0DE6                                            l207 0DD4  
                                          l144 0FAA                                            l145 0FC5  
                                          l171 0E8A                                            l148 079F  
                                          l172 0E91                                            l253 0E25  
                                          l173 0E9A                                            l176 0EAF  
                                          l603 0066                                            l540 0F30  
                                          l534 0EDA                                            l527 07FE  
                                          l552 0F05                                            l481 0E63  
                                          l546 0F5E                                            l491 0E05  
                                          l571 0627                                            l651 015D  
                                          l492 0E0C                                            l644 0145  
                                          l485 0E87                                            l566 0761  
                                          l638 0138                                            l583 0429  
                                          l655 017F                                            l639 0135  
                                          l488 0DFA                                            l648 0154  
                                          l681 0341                                            l578 06A3  
                                          l586 0439                                            l658 0194  
                                          l595 0536                                            l691 03C1  
                                          l683 034F                                            l588 044A  
                                          l678 0332                                            l855 0E4E  
                                          l857 0E62                                            l699 0402  
                                          _fAT 0057                                            _fOK 006C  
                       ??_EUSART_RxDataHandler 0070                                            _tMs 00E2  
               ?_EUSART_SetFramingErrorHandler 0070                                            wreg 0009  
                                         l1135 0FFF                                           l1145 0F90  
                                         l3101 00E1                                           l3111 00F2  
                                         l3103 00E3                                           l3031 006C  
                                         l3023 005D                                           l3201 01D9  
                                         l3121 010B                                           l3113 00FD  
                                         l3105 00E4                                           l3041 0076  
                                         l3033 006E                                           l3025 005F  
                                         l3211 020B                                           l3203 01DD  
                                         l3131 0119                                           l3123 010D  
                                         l3115 00FF                                           l3107 00EF  
                                         l3051 0081                                           l3043 0077  
                                         l3035 0070                                           l3027 0062  
                                         l3301 03A9                                           l3221 023F  
                                         l3213 021B                                           l3205 01DE  
                                         l3141 013C                                           l3133 011C  
                                         l3125 0112                                           l3117 0100  
                                         l3109 00F1                                           l3061 0091  
                                         l3053 0082                                           l3045 007A  
                                         l3037 0073                                           l3029 0064  
                                         l2423 0F99                                           l2431 0E89  
                                         l3311 03C8                                           l3303 03AF  
                                         l3231 0258                                           l3223 0244  
                                         l3215 0229                                           l3207 01ED  
                                         l3151 015F                                           l3143 0147  
                                         l3135 0124                                           l3127 0113  
                                         l3119 0102                                           l3071 00A0  
                                         l3063 0092                                           l3055 0083  
                                         l3047 007D                                           l3039 0075  
                                         l2425 0FA7                                           l2417 0F91  
                                         l2441 0EA4                                           l2433 0E8B  
                                         l2601 0EB5                                           l3321 03E3  
                                         l3313 03CB                                           l3305 03B5  
                                         l3241 0292                                           l3225 0249  
                                         l3217 0237                                           l3209 01FD  
                                         l3161 0190                                           l3153 0173  
                                         l3145 014B                                           l3137 012A  
                                         l3129 0114                                           l3081 00AC  
                                         l3073 00A4                                           l3065 0095  
                                         l3057 0088                                           l3049 0080  
                                         l2419 0F92                                           l2443 0EAA  
                                         l2435 0E96                                           l2603 0EC0  
                                         l2611 0F09                                           l3331 03FC  
                                         l3323 03E9                                           l3307 03BB  
                                         l3315 03D0                                           l3251 02A8  
                                         l3243 0296                                           l3227 024E  
                                         l3235 025D                                           l3219 023D  
                                         l3171 01A5                                           l3163 019E  
                                         l3155 017C                                           l3139 012E  
                                         l3091 00C7                                           l3083 00B7  
                                         l3075 00A8                                           l3067 0099  
                                         l3059 008D                                           l2701 0762  
                                         l2429 0FBB                                           l2445 0EAB  
                                         l2437 0E9B                                           l2605 0EC2  
                                         l2613 0F0B                                           l2621 0F31  
                                         l3333 03FE                                           l3325 03EF  
                                         l3317 03D7                                           l3309 03C3  
                                         l3341 040F                                           l3261 02DA  
                                         l3253 02AD                                           l3245 029D  
                                         l3229 0253                                           l3237 027E  
                                         l3181 01B4                                           l3173 01A8  
                                         l3165 019F                                           l3157 0181  
                                         l3149 0157                                           l3093 00C8  
                                         l3085 00B9                                           l3077 00A9  
                                         l3069 009D                                           l2551 0DE1  
                                         l2711 0779                                           l2703 0764  
                                         l2439 0EA2                                           l2447 0EAD  
                                         l2607 0ECE                                           l2615 0F16  
                                         l2631 0F4F                                           l2623 0F34  
                                         l3351 0421                                           l3343 0412  
                                         l3335 0400                                           l3327 03F5  
                                         l3319 03DD                                           l3271 033F  
                                         l3263 02F4                                           l3255 02B2  
                                         l3247 029E                                           l3239 028E  
                                         l3183 01B7                                           l3175 01A9  
                                         l3167 01A1                                           l3159 0187  
                                         l3191 01C8                                           l3095 00D3  
                                         l3087 00BA                                           l3079 00AB  
                                         l2553 0DE7                                           l2721 0797  
                                         l2713 077B                                           l2705 076B  
                                         l2801 06D0                                           l2641 0EEB  
                                         l2617 0F18                                           l2609 0F06  
                                         l2633 0F5B                                           l2625 0F36  
                                         l3345 0416                                           l3337 0407  
                                         l3329 03FB                                           l3281 036B  
                                         l3273 034D                                           l3265 0329  
                                         l3257 02B3                                           l3249 02A3  
                                         l3193 01CE                                           l3185 01BB  
                                         l3177 01AC                                           l3169 01A4  
                                         l3097 00D5                                           l3089 00C5  
                                         l2555 0DD5                                           l2731 079D  
                                         l2723 0798                                           l2715 077D  
                                         l2707 0774                                           l2811 06EC  
                                         l2803 06D2                                           l2571 0E73  
                                         l2643 0EED                                           l2635 0EDB  
                                         l2619 0F24                                           l2627 0F41  
                                         l2651 0FCE                                           l3347 041A  
                                         l3339 040A                                           l3291 0387  
                                         l3283 037D                                           l3275 035B  
                                         l3267 032B                                           l3259 02C7  
                                         l3195 01CF                                           l3187 01BF  
                                         l3179 01B0                                           l3099 00D6  
                                         l2557 0DDB                                           l2725 079A  
                                         l2717 0794                                           l2709 0777  
                                         l2821 0711                                           l2813 06F7  
                                         l2805 06DD                                           l2581 0E79  
                                         l2573 0E74                                           l2565 0E65  
                                         l2645 0EF9                                           l2637 0EDE  
                                         l2629 0F43                                           l2661 0FEB  
                                         l2653 0FD1                                           l2901 045A  
                                         l3349 041D                                           l3293 0390  
                                         l3285 037F                                           l3269 0333  
                                         l3277 035D                                           l3197 01D1  
                                         l3189 01C4                                           l2559 0DCF  
                                         l2727 079B                                           l2719 0796  
                                         l2815 06F9                                           l2807 06DF  
                                         l2583 0E7A                                           l2575 0E75  
                                         l2567 0E71                                           l2831 0731  
                                         l2823 071F                                           l2591 07E1  
                                         l2639 0EE0                                           l2663 0FEF  
                                         l2655 0FD6                                           l2647 0FC6  
                                         l2911 04A4                                           l2903 0468  
                                         l3295 0397                                           l3287 0384  
                                         l3279 0369                                           l3199 01D6  
                                         l2729 079C                                           l2585 0DFC  
                                         l2817 0704                                           l2809 06EA  
                                         l2577 0E77                                           l2569 0E72  
                                         l2841 0749                                           l2833 0734  
                                         l2825 0722                                           l2665 0FF0  
                                         l2657 0FD8                                           l2649 0FC8  
                                         l2681 0F6F                                           l2673 0F5F  
                                         l2921 04BA                                           l2913 04B2  
                                         l2905 0478                                           l3297 039D  
                                         l3289 0385                                           l2587 0E03  
                                         l2819 0706                                           l2771 0E14  
                                         l2579 0E78                                           l2851 0760  
                                         l2835 0737                                           l2827 0725  
                                         l2595 07F8                                           l2667 0FF5  
                                         l2659 0FDC                                           l2683 0F73  
                                         l2675 0F65                                           l2691 0F8C  
                                         l2931 04CD                                           l2923 04BB  
                                         l2915 04B4                                           l2907 0486  
                                         l3299 03A3                                           l2781 0E23  
                                         l2773 0E16                                           l2765 0E0D  
                                         l2597 0EB0                                           l2837 073B  
                                         l2845 074B                                           l2829 0730  
                                         l2589 07DD                                           l2861 062F  
                                         l2669 0FFB                                           l2685 0F7D  
                                         l2677 0F68                                           l2941 0524  
                                         l2933 04D9                                           l2925 04BE  
                                         l2917 04B6                                           l2909 0496  
                                         l2791 06AB                                           l2783 06A5  
                                         l2695 0DF3                                           l2775 0E1A  
                                         l2767 0E0F                                           l2599 0EB3  
                                         l2847 0758                                           l2839 0743  
                                         l2871 063A                                           l2863 0630  
                                         l2855 0626                                           l2687 0F81  
                                         l2679 0F6D                                           l2951 0534  
                                         l2943 0528                                           l2935 0511  
                                         l2927 04C0                                           l2919 04B8  
                                         l2793 06B6                                           l2785 06A5  
                                         l2697 0DF6                                           l2777 0E1E  
                                         l2769 0E11                                           l2849 075A  
                                         l2881 06A0                                           l2873 0645  
                                         l2865 0634                                           l2857 0629  
                                         l2689 0F86                                           l2945 052B  
                                         l2937 051D                                           l2929 04CB  
                                         l2961 0E58                                           l2953 0E44  
                                         l2795 06B8                                           l2787 06A6  
                                         l2779 0E20                                           l2883 06A1  
                                         l2875 0647                                           l2867 0635  
                                         l2859 062C                                           l2947 052F  
                                         l2939 0520                                           l2891 0445  
                                         l2699 0DCB                                           l2963 0E5E  
                                         l2955 0E46                                           l2797 06C3  
                                         l2789 06A9                                           l2877 0653  
                                         l2869 0638                                           l2949 0533  
                                         l2893 044C                                           l2885 0428  
                                         l2957 0E4A                                           l2799 06C5  
                                         l2879 069D                                           l2895 044F  
                                         l2887 042B                                           l2959 0E53  
                                         l2897 0454                                           l2889 0437  
                                         l2899 0455                                           u1040 0F98  
                                         u2000 03A9                                           u1041 0F97  
                                         u2001 03A8                                           u1050 0E91  
                                         u2010 03AF                                           u1051 0E90  
                                         u2011 03AE                                           u1060 0E96  
                                         u2100 03FB                                           u2020 03B5  
                                         u1061 0E95                                           u2101 03FA  
                                         u2021 03B4                                           u1070 0EAA  
                                         u2030 03BB                                           u1071 0EA9  
                                         u2031 03BA                                           u1400 0FCE  
                                         u2040 03D7                                           u1401 0FCD  
                                         u2041 03D6                                           u2050 03DD  
                                         u2051 03DC                                           u1340 07F7  
                                         u1420 0FDC                                           u1500 0F7D  
                                         u2060 03E3                                           u1341 07F6  
                                         u1421 0FDB                                           u1501 0F7C  
                                         u2061 03E2                                           u2117 00B1  
                                         _LATA 010C                                           u1350 07FE  
                                         u2070 03E9                                           _LATB 010D  
                                         u1351 07FD                                           u1415 0FD2  
                                         u2071 03E8                                           u2207 0354  
                                         u2127 00BF                                           u1360 0ECE  
                                         u1600 0760                                           u1440 0FEB  
                                         u1520 0F8C                                           u2080 03EF  
                                         u1361 0ECD                                           u1601 075F  
                                         u1441 0FEA                                           u1521 0F8B  
                                         u1505 0F79                                           u2217 0430  
                                         u2081 03EE                                           u2137 00CD  
                                         u1370 0F24                                           u1610 0653  
                                         u2090 03F5                                           u2307 0ED3  
                                         u1371 0F23                                           u1611 0652  
                                         u1435 0FDD                                           u1515 0F82  
                                         u2227 043E                                           u2091 03F4  
                                         u2147 00DB                                           u1380 0F4F  
                                         u1460 0FFB                                           u1620 044A  
                                         u2317 0E6A                                           u1381 0F4E  
                                         u1461 0FFA                                           u1445 0FE7  
                                         u2237 0516                                           u1621 0449  
                                         u2157 00E9                                           u1390 0EF9  
                                         u1470 0F65                                           u1630 04D9  
                                         u2407 070B                                           u2327 0E80  
                                         u1391 0EF8                                           u2247 0F54  
                                         u1455 0FF1                                           u1471 0F64  
                                         u1631 04D8                                           u2167 00F7  
                                         u1640 0E4A                                           u1800 0119  
                                         u2417 0716                                           u2337 06B0  
                                         u2257 0F29                                           u1641 0E49  
                                         u2177 011F                                           u1801 0118  
                                         u1490 0F73                                           u1810 012A  
                                         u2427 0DFF                                           u2347 06BD  
                                         u2267 0EFE                                           u1491 0F72  
                                         u2187 0338                                           u1811 0129  
                                         u1580 0749                                           u1900 019E  
                                         u1820 0135                                           u2437 0E08  
                                         u2357 06CA                                           u1581 0748  
                                         u2277 07E4                                           u1485 0F69  
                                         u2197 0346                                           u1901 019D  
                                         u1821 0134                                           u1590 0758  
                                         u1670 0E5E                                           u1910 01CE  
                                         u1830 013C                                           u2367 06D7  
                                         u1591 0757                                           u2287 072A  
                                         u1671 0E5D                                           u1655 0E4F  
                                         u1911 01CD                                           u1831 013B  
                                         u1920 01D6                                           u1840 0145  
                                         u2377 06E4                                           u2297 073E  
                                         u1665 0E54                                           u1921 01D5  
                                         u1905 019A                                           u1841 0144  
                                         u1930 0332                                           u1850 0154  
                                         u2387 06F1                                           u1931 0331  
                                         u1851 0153                                           u1940 0369  
                                         u1860 015D                                           u2397 06FE  
                                         u1941 0368                                           u1861 015C  
                                         u1950 037D                                           u1870 0173  
                                         u1790 008D                                           u1951 037C  
                                         u1871 0172                                           u1791 008C  
                                         u1960 0384                                           u1880 0187  
                                         u1961 0383                                           u1945 0365  
                                         u1881 0186                                           u1970 0397  
                                         u1890 0190                                           u1971 0396  
                                         u1955 0379                                           u1891 018F  
                                         u1980 039D                                           u1981 039C  
                                         u1990 03A3                                           u1991 03A2  
                                         i1l33 001A                                           i1l34 002A  
                                         i1l38 002A                                           _TIPO 005C  
                                         _BatH 0047                                           _BatL 0046  
                                         _WPUA 020C                                           _WPUB 020D  
                                         _fRTX 0052                             _UltimoDadoRecebido 0066  
                                         _dips 0048                                           _main 005D  
                                         _loop 007B                                           _rett 0044  
                                         fsr0h 0005                                           fsr1h 0007  
                                         indf0 0000                                           fsr0l 0004  
                                         indf1 0001                                           fsr1l 0006  
                                         btemp 007E                                           start 002C  
                                ??_Espera_TxOk 0070                               _enderecoRecebido 0028  
                              __end_of_TX_Lora 06A4                                __end_of_ErrCode 071F  
                                  _DadosSensor 00CE                                  ?_EUSART_Reset 0070  
                                ?_EUSART_Write 0070                  __end_of_OSCILLATOR_Initialize 0DFA  
                                   __TXC22PING 1023                                          ?_main 0070  
                              __end_of___lwdiv 1000                                          i1l228 0625  
                                        i1l182 0E43                                          i1l192 07FF  
                              __end_of___lwmod 0F91                                          i1l195 0DCA  
                                        i1l179 0E41                                          i1l189 07DC  
                                        i1l198 0DC6                                          _RCREG 0199  
                                        _RCSTA 019D                                          _TRISA 008C  
                                        _TRISB 008D                                          _TXREG 019A  
                                        _TXSTA 019E                                          _fAtOk 006A  
                                        _fBusy 0069                                          _fParm 0068  
                                        _fTxOk 0067                                          _canal 0049  
                                        _flags 0020                                 _WDT_Initialize 0DCB  
                             __end_of_SM_CFOFF 0F06                                          _temp8 0045  
                             __end_of_SM_RESET 0EDB                               __end_of_SM_START 0762  
                                        pclath 000A                                          status 0003  
                                        wtemp0 007E                                     __TXSTART22 104E  
                              __initialization 002E                                   __end_of_main 0428  
                               ??_EUSART_Reset 0070                                 ??_EUSART_Write 0070  
                  ?_INTERRUPT_InterruptManager 0070                            __end_of_Espera_TxOk 07FF  
               ??_EUSART_SetRxInterruptHandler 0072                                         ??_main 0079  
                             __end_of_ModuloOn 0E88                                 _SM_STATUSflags 005D  
                       __end_of_WDT_Initialize 0DCF      __end_of_EUSART_DefaultFramingErrorHandler 0800  
          ??_EUSART_DefaultFramingErrorHandler 0070             ?_EUSART_DefaultFramingErrorHandler 0070  
            _EUSART_DefaultFramingErrorHandler 07FF                     _EUSART_OverrunErrorHandler 0036  
                                       _EEADRH 0192                                         _EEADRL 0191  
                                       _EEDATH 0194                                         _EEDATL 0193  
                                       _EECON2 0196                                         _ANSELA 018C  
                                       _ANSELB 018D                                         _BORCON 0116  
                                       u110_20 0568                                         u110_21 0567  
                                       u111_20 056E                                         u111_21 056D  
                                       u120_20 05A9                                         u112_20 0574  
                                       u120_21 05A8                                         u112_21 0573  
                                       i1l2501 05AF                                         i1l2511 05CA  
                                       i1l2503 05B2                                         u121_20 05AF  
                                       u113_20 057A                                         i1l2521 05E0  
                                       i1l2513 05D0                                         i1l2505 05B8  
                                       u121_21 05AE                                         u113_21 0579  
                                       i1l2531 05FC                                         i1l2523 05E6  
                                       i1l2507 05BE                                         i1l2515 05D2  
                                       i1l2451 0540                                         i1l2541 0612  
                                       i1l2533 05FF                                         i1l2525 05EC  
                                       i1l2517 05D8                                         i1l2509 05C4  
                                       i1l2461 054D                                         i1l2453 0546  
                                       i1l2543 061A                                         i1l2535 060F  
                                       i1l2519 05D9                                         i1l2527 05EF  
                                       i1l2471 0560                                         i1l2463 054F  
                                       i1l2455 0547                                         u130_20 05EC  
                                       u122_20 05B8                                         u114_20 0583  
                                       i1l2545 061C                                         i1l2537 0610  
                                       i1l2529 05F6                                         u130_21 05EB  
                                       u122_21 05B7                                         u114_21 0582  
                                       i1l2481 057A                                         i1l2473 0562  
                                       i1l2465 0551                                         i1l2457 0549  
                                       i1l2449 0537                                         i1l2561 0DC7  
                                       i1l2547 0622                                         i1l2539 0611  
                                       i1l2491 0595                                         i1l2475 0568  
                                       i1l2483 057D                                         i1l2467 0553  
                                       i1l2459 054B                                         i1l2563 0DC3  
                                       i1l2549 0623                                         i1l2485 0583  
                                       i1l2493 0597                                         i1l2477 056E  
                                       i1l2469 0559                                         i1l2741 0E3D  
                                       i1l2733 0E26                                         i1l2495 059D  
                                       i1l2487 0589                                         i1l2479 0574  
                                       i1l2751 07B1                                         i1l2743 0E3E  
                                       i1l2735 0E2D                                         u131_20 05F6  
                                       u123_20 05BE                                         u115_20 0589  
                                       u131_21 05F5                                         u123_21 05BD  
                                       i1l2497 05A3                                         i1l2489 058F  
                                       u115_21 0588                                         i1l2761 07D2  
                                       i1l2753 07B7                                         i1l2745 07A0  
                                       i1l2737 0E34                                         i1l2499 05A9  
                                       i1l2763 07D9                                         i1l2755 07BC  
                                       i1l2747 07A6                                         i1l2739 0E37  
                                       i1l2757 07C2                                         i1l2749 07AB  
                                       i1l2759 07C8                                         u132_20 05FC  
                                       u124_20 05C4                                         u116_20 058F  
                                       u108_20 0546                                         u132_21 05FB  
                                       u124_21 05C3                                         u116_21 058E  
                                       u108_21 0545                                         i1l2971 000F  
                                       i1l2973 0014                                         i1l2975 001F  
                                       i1l2967 0006                                         u133_20 0622  
                                       u125_20 05CA                                         u117_20 0595  
                                       u109_20 0559                                         u133_21 0621  
                                       u125_21 05C9                                         u117_21 0594  
                                       u109_21 0558                                         i1l2977 0024  
                                       i1l2969 000A                                         u126_20 05D0  
                                       u118_20 059D                                         u126_21 05CF  
                                       u118_21 059C                                         u127_20 05D8  
                                       u119_20 05A3                                         u127_21 05D7  
                                       u119_21 05A2                                         u128_20 05E0  
                                       u128_21 05DF                                         u129_20 05E6  
                                       u153_20 0E2D                                         u129_21 05E5  
                                       u153_21 0E2C                                         _OFFSET 0034  
                                       u154_20 0E3D                                         u170_20 0014  
                                       u154_21 0E3C                                         u170_21 0013  
                                       u155_20 07AB                                         u171_20 001F  
                                       u155_21 07AA                                         u171_21 001E  
                                       u156_20 07BC                                         u172_20 0024  
                                       u156_21 07BB                                         u172_21 0023  
                                       u157_20 07D2                                         u157_21 07D1  
                                       u168_20 000A                                         u168_21 0009  
                                       u169_20 000F                                         u169_21 000E  
                                       _OSCCON 0099                                         _SPBRGH 019C  
                                       _SPBRGL 019B                                         _WDTCON 0097  
                                    ??_TX_Lora 0073                                         __CFC22 1000  
                                    ??_ErrCode 0071                                         __CFOFF 1061  
                                       __RESET 106A                                         __RXC22 103B  
                                       _fATerr 006B                                         _fDetec 0056  
                                       ___wmul 0E44                                      ??___lwdiv 0074  
                                    ??___lwmod 0074                            _EUSART_Transmit_ISR 0E26  
                                       _indice 007D                                     _TesteEnvio 0428  
                             ??_SM_CONFIGRADIO 0071                                         _offset 00DE  
                                       _temp16 002A                              __end_of_SM_MODORX 0F5F  
                              ?_WDT_Initialize 0070                           ?_EUSART_Transmit_ISR 0070  
                           _M_EnderecoRecebido 0043                        __end_of__initialization 0059  
                                   _fRetSensor 004E           __end_of_EUSART_SetTxInterruptHandler 0DED  
                 _EUSART_SetTxInterruptHandler 0DE7                                    _Espera_TxOk 07DD  
                               __pcstackCOMMON 0070                                      ?_SM_CFOFF 0070  
                                    ?_SM_RESET 0070                                      ?_SM_START 0070  
                               _OPTION_REGbits 0095                           _eusartRxStatusBuffer 01A0  
              ??_EUSART_SetOverrunErrorHandler 0072                          ??_EUSART_Transmit_ISR 0070  
                            __end_of_ModuloOff 0E0D                           __end_of_EUSART_Reset 0FC6  
                                   __pbssBANK0 0020                                     __pbssBANK1 00A0  
                                   __pbssBANK2 0120                                     __pbssBANK3 01A0  
                                   __pbssBANK4 0220                           __end_of_EUSART_Write 0EB0  
                                    ?_ModuloOn 0070                                     __pmaintext 005D  
                ?_EUSART_SetTxInterruptHandler 0070               _EUSART_TxDefaultInterruptHandler 003C  
                                      ?___wmul 0070                                     __pintentry 0004  
                                   ??_SM_CFOFF 0071                                    ?_TesteEnvio 0070  
                                      _BAUDCON 019F                              _TempoDeReplicacao 0030  
                                      _APFCON0 011D                                        _APFCON1 011E  
                 ??_EUSART_DefaultErrorHandler 0070                                     ??_SM_RESET 0071  
                                   ??_SM_START 0073                                  _eusartRxCount 005F  
                                   _endereco_C 0040                                     _endereco_D 003F  
                                   _endereco_M 0041                                     _endereco_U 003E  
                                      _OSCTUNE 0098                       ??_EUSART_SetErrorHandler 0072  
                                      _TX_Lora 0626                                        _ErrCode 06A4  
                                   ??_ModuloOn 0070                                 _fComandoSirene 0050  
                                      _fErroID 0054                                        _fLigado 0053  
                                      _fEspera 004C                                        _fRepete 004D  
                                      _fProgID 0064                                        ___lwdiv 0FC6  
                                      ___lwmod 0F5F                                        __ptext1 0E44  
                                      __ptext2 0DCB                                        __ptext3 0428  
                                      __ptext4 0F5F                                        __ptext5 0FC6  
                                      __ptext6 0F31                                        __ptext7 0626  
                                      __ptext8 0F06                                        __ptext9 0EDB  
                        _OSCILLATOR_Initialize 0DF3                       ??_PIN_MANAGER_Initialize 0070  
                                      clrloop0 0DEE                           end_of_initialization 0059  
        __end_of_EUSART_SetOverrunErrorHandler 0DE1                  _EUSART_SetOverrunErrorHandler 0DDB  
                            _EUSART_Initialize 0762                             ?_EUSART_Initialize 0070  
                                    _RCSTAbits 019D                            ??_EUSART_Initialize 0072  
                             ??_WDT_Initialize 0070                 ??_EUSART_SetTxInterruptHandler 0072  
                                    _PORTAbits 000C                                      _PORTBbits 000D  
                                  _TotalSerial 00E8                                      _TRISBbits 008D  
                                    _SM_MODORX 0F31                                      _DadosLora 0120  
                    __end_of_EUSART_Initialize 07A0                                  _AcAliveBatLOW 005A  
                                    _TXSTAbits 019E                                 __end_of__CFC22 1023  
                           __end_of__TXC22PING 103B                                 __end_of__CFOFF 106A  
                               __end_of__RESET 106F                                 __end_of__RXC22 104E  
                                 ?_Espera_TxOk 0070             __end_of_EUSART_DefaultErrorHandler 0DC7  
                   _EUSART_DefaultErrorHandler 0DC3                                 __end_of___wmul 0E63  
                                 _EUSART_Reset 0F91                                   _EUSART_Write 0E88  
                       ?_OSCILLATOR_Initialize 0070                                   _indiceSensor 004F  
                          start_initialization 002E                             __end_of__TXSTART22 1061  
                                   ?_SM_MODORX 0070                                    SM_MODORX@ch 0070  
 EUSART_SetRxInterruptHandler@interruptHandler 0070   EUSART_SetTxInterruptHandler@interruptHandler 0070  
                           _C_EnderecoRecebido 006E                             _U_EnderecoRecebido 0042  
                                    _ModuloOff 0DFA                 ?_EUSART_SetOverrunErrorHandler 0070  
                   _EUSART_FramingErrorHandler 0038                                       ??___wmul 0074  
                       _EUSART_SetErrorHandler 0DCF                                   ??_TesteEnvio 0077  
                  __end_of_EUSART_Transmit_ISR 0E44                                    __pbssCOMMON 007B  
                                    ___latbits 0002                                      _fReplicar 0051  
                   __end_of_EUSART_Receive_ISR 07DD                                       ?_TX_Lora 0070  
             _EUSART_RxDefaultInterruptHandler 003A                                       ?_ErrCode 0070  
                                   ?_ModuloOff 0070                             __end_of_TesteEnvio 0537  
                                    __pnvBANK1 00EA                   __end_of_EUSART_RxDataHandler 0626  
                             ___lwdiv@dividend 0072                         _PIN_MANAGER_Initialize 0E0D  
                                     ?___lwdiv 0070                                       ?___lwmod 0070  
                                 _eusartRxHead 007C                                   _eusartTxHead 0063  
                                 _eusartRxTail 0060                                   _eusartTxTail 0062  
                 ??_INTERRUPT_InterruptManager 0070                        _eusartTxBufferRemaining 0061  
                                  ??_SM_MODORX 0071                                      _pacoteTRX 00C0  
                             ___lwdiv@quotient 0074                                       _ENDERECO 0032  
                               _eusartRxBuffer 0220                                 _eusartTxBuffer 00A0  
                                    _segsAlive 00EA                                 ___wmul@product 0074  
                                     _LATAbits 010C         EUSART_SetErrorHandler@interruptHandler 0070  
                                     _LATBbits 010D                                      clear_ram0 0DED  
                                     _PIE1bits 0091                              _eusartRxLastError 005E  
                                     _PIR1bits 0011                ??_EUSART_SetFramingErrorHandler 0072  
    __end_of_EUSART_DefaultOverrunErrorHandler 0DCB            ??_EUSART_DefaultOverrunErrorHandler 0070  
           ?_EUSART_DefaultOverrunErrorHandler 0070              _EUSART_DefaultOverrunErrorHandler 0DC7  
                                     _SM_CFOFF 0EDB                             _D_EnderecoRecebido 006D  
                                     _SM_RESET 0EB0                                       _SM_START 071F  
                            ___wmul@multiplier 0070                                   _AcAliveBatOK 005B  
                                  ??_ModuloOff 0070                                     _EECON1bits 0195  
                                     _ModuloOn 0E63                                    _AcEVTBatLOW 0058  
                      ??_OSCILLATOR_Initialize 0070                            _EUSART_ErrorHandler 00E6  
                                     _fRetLora 0065                    ?_EUSART_DefaultErrorHandler 0070  
                                     _fTimeOut 0055                                       _cicloLED 002E  
                              ___lwdiv@divisor 0070                           _EUSART_RxDataHandler 0537  
                               _SM_CONFIGRADIO 0F06                                ___lwdiv@counter 0076  
                                     __ptext10 07DD                                       __ptext11 071F  
                                     __ptext20 0762                                       __ptext12 0EB0  
                                     __ptext21 0DE7                                       __ptext13 0E88  
                                     __ptext30 07FF                                       __ptext22 0DE1  
                                     __ptext14 0F91                                       __ptext31 0DC3  
                                     __ptext23 0DDB                                       __ptext15 0E63  
                                     __ptext32 0537                                       __ptext24 0DD5  
                                     __ptext16 0E0D                                       __ptext25 0DCF  
                                     __ptext17 0DF3                                       __ptext18 06A4  
                                     __ptext27 0E26                                       __ptext19 0DFA  
                                     __ptext28 07A0                                       __ptext29 0DC7  
                                     _endereco 0026                                       _contaRTX 00E0  
                             SM_CONFIGRADIO@ch 0070                                       _passagem 00D6  
                      ?_EUSART_SetErrorHandler 0070                                       _tempoRTX 002C  
EUSART_SetOverrunErrorHandler@interruptHandler 0070                                       int$flags 007E  
           __end_of_INTERRUPT_InterruptManager 002C                     _INTERRUPT_InterruptManager 0004  
        __end_of_EUSART_SetFramingErrorHandler 0DDB                  _EUSART_SetFramingErrorHandler 0DD5  
                       __end_of_SM_CONFIGRADIO 0F31                                     _INTCONbits 000B  
                        ?_EUSART_RxDataHandler 0070                                     _AcEVTBatOK 0059  
                                     intlevel1 0000                               ___lwmod@dividend 0072  
                      ?_PIN_MANAGER_Initialize 0070                 __end_of_EUSART_SetErrorHandler 0DD5  
         __end_of_EUSART_SetRxInterruptHandler 0DE7                   _EUSART_SetRxInterruptHandler 0DE1  
                           _EUSART_Receive_ISR 07A0  EUSART_SetFramingErrorHandler@interruptHandler 0070  
                                  _tempoEspera 00E4                                  __pstringtext1 1000  
                                __pstringtext2 1023                                  __pstringtext3 103B  
                                __pstringtext4 104E                                  __pstringtext5 1061  
                                __pstringtext6 106A                                    ErrCode@code 0073  
                          ?_EUSART_Receive_ISR 0070                                ___lwmod@divisor 0070  
                              ?_SM_CONFIGRADIO 0070                                ___lwmod@counter 0074  
                                   _WDTCONbits 0097                             EUSART_Write@txData 0070  
               __end_of_PIN_MANAGER_Initialize 0E26                           ??_EUSART_Receive_ISR 0070  
